
NTRU_48_bitM.elf:     file format elf32-littleriscv


Disassembly of section .vectors:

00000000 <_stack_start-0x10000>:
  // external interrupts are handled by the same callback
  // until compiler supports IRQ routines
  .org 0x00
  .rept 31
  nop
  .endr
   0:	00000013          	nop
   4:	00000013          	nop
   8:	00000013          	nop
   c:	00000013          	nop
  10:	00000013          	nop
  14:	00000013          	nop
  18:	00000013          	nop
  1c:	00000013          	nop
  20:	00000013          	nop
  24:	00000013          	nop
  28:	00000013          	nop
  2c:	00000013          	nop
  30:	00000013          	nop
  34:	00000013          	nop
  38:	00000013          	nop
  3c:	00000013          	nop
  40:	00000013          	nop
  44:	00000013          	nop
  48:	00000013          	nop
  4c:	00000013          	nop
  50:	00000013          	nop
  54:	00000013          	nop
  58:	00000013          	nop
  5c:	00000013          	nop
  60:	00000013          	nop
  64:	00000013          	nop
  68:	00000013          	nop
  6c:	00000013          	nop
  70:	00000013          	nop
  74:	00000013          	nop
  78:	00000013          	nop
  jal x0, default_exc_handler
  7c:	4f70006f          	j	d72 <default_exc_handler>

  // reset vector
  .org 0x80
  jal x0, reset_handler
  80:	4f70006f          	j	d76 <reset_handler>

  // illegal instruction exception
  .org 0x84
  jal x0, default_exc_handler
  84:	4ef0006f          	j	d72 <default_exc_handler>

  // ecall handler
  .org 0x88
  jal x0, default_exc_handler
  88:	4eb0006f          	j	d72 <default_exc_handler>

Disassembly of section .text:

0000008c <instr_mod>:
////////////////CUSTOM INSTRUCTION SET///////////////


void instr_mod(unsigned int *a1, unsigned int mod) {

    asm volatile(
      8c:	0cb5750b          	0xcb5750b

    );
    return;


}
      90:	8082                	ret

00000092 <array_mod>:
    ////// bu kod arrayin uzunlugunu ücüncü instruction operand olarak gonderemedigimiz icin var. //////////
    ////// üc sayisi custom modülün dondürdügü eleman sayisindan geliyor. bizim ebob'umuz 3 oldugu icin 3 secildi./////
    ///// ebob(54(N+1),105(N+N-1)) = 3
int i = 0;

    for(i=0;i<(length/3);i++) {
      92:	478d                	li	a5,3
      94:	02f64633          	div	a2,a2,a5
    asm volatile(
      98:	46b1                	li	a3,12
    for(i=0;i<(length/3);i++) {
      9a:	4781                	li	a5,0
      9c:	00c7c363          	blt	a5,a2,a2 <array_mod+0x10>
        instr_mod((unsigned int*)&a1[3 * i], (unsigned int)mod);
    }

}
      a0:	8082                	ret
    asm volatile(
      a2:	02d78733          	mul	a4,a5,a3
      a6:	972a                	add	a4,a4,a0
      a8:	0cb7770b          	0xcb7770b
    for(i=0;i<(length/3);i++) {
      ac:	0785                	addi	a5,a5,1
      ae:	b7fd                	j	9c <array_mod+0xa>

000000b0 <polymult>:

/////////////////////////////////////////////////


int *polymult(int *a, int size_a, int *b, int size_b, int mod, int star_mult){
      b0:	715d                	addi	sp,sp,-80
      b2:	de4e                	sw	s3,60(sp)
      b4:	d462                	sw	s8,40(sp)
      b6:	00269993          	slli	s3,a3,0x2
      ba:	8c3a                	mv	s8,a4

    int line[size_b][size_a + size_b];
      bc:	00d58733          	add	a4,a1,a3
int *polymult(int *a, int size_a, int *b, int size_b, int mod, int star_mult){
      c0:	dc52                	sw	s4,56(sp)
      c2:	d65e                	sw	s7,44(sp)
    int line[size_b][size_a + size_b];
      c4:	fff70a13          	addi	s4,a4,-1
      c8:	00271b93          	slli	s7,a4,0x2
      cc:	03370733          	mul	a4,a4,s3
int *polymult(int *a, int size_a, int *b, int size_b, int mod, int star_mult){
      d0:	c4a2                	sw	s0,72(sp)
      d2:	c2a6                	sw	s1,68(sp)
      d4:	0880                	addi	s0,sp,80
      d6:	c0ca                	sw	s2,64(sp)
      d8:	da56                	sw	s5,52(sp)
      da:	d85a                	sw	s6,48(sp)
      dc:	d266                	sw	s9,36(sp)
      de:	d06a                	sw	s10,32(sp)
      e0:	ce6e                	sw	s11,28(sp)
    int line[size_b][size_a + size_b];
      e2:	073d                	addi	a4,a4,15
int *polymult(int *a, int size_a, int *b, int size_b, int mod, int star_mult){
      e4:	c686                	sw	ra,76(sp)
    int line[size_b][size_a + size_b];
      e6:	9b41                	andi	a4,a4,-16
      e8:	40e10133          	sub	sp,sp,a4
    int i,j,k;
    int *return_address1;
    int pola[size_a];
      ec:	00259713          	slli	a4,a1,0x2
      f0:	073d                	addi	a4,a4,15
int *polymult(int *a, int size_a, int *b, int size_b, int mod, int star_mult){
      f2:	8936                	mv	s2,a3
    int line[size_b][size_a + size_b];
      f4:	fff68d13          	addi	s10,a3,-1
    int pola[size_a];
      f8:	9b41                	andi	a4,a4,-16
    int polb[size_b];
      fa:	00f98693          	addi	a3,s3,15
    int line[size_b][size_a + size_b];
      fe:	8d8a                	mv	s11,sp
    int polb[size_b];
     100:	9ac1                	andi	a3,a3,-16
    int pola[size_a];
     102:	40e10133          	sub	sp,sp,a4
int *polymult(int *a, int size_a, int *b, int size_b, int mod, int star_mult){
     106:	faf42c23          	sw	a5,-72(s0)
    int pola[size_a];
     10a:	8c8a                	mv	s9,sp

    //make all line vectors zero
    for (i = 0; i < size_b; ++i){
        for(j = 0; j < size_a + size_b -1; ++j){
            line[i][j] = 0;
     10c:	002bd793          	srli	a5,s7,0x2
    int polb[size_b];
     110:	40d10133          	sub	sp,sp,a3
int *polymult(int *a, int size_a, int *b, int size_b, int mod, int star_mult){
     114:	8832                	mv	a6,a2
    int pola[size_a];
     116:	fff58b13          	addi	s6,a1,-1
    int polb[size_b];
     11a:	848a                	mv	s1,sp
            line[i][j] = 0;
     11c:	faf42e23          	sw	a5,-68(s0)
     120:	8aee                	mv	s5,s11
    for (i = 0; i < size_b; ++i){
     122:	88ee                	mv	a7,s11
     124:	4601                	li	a2,0
            product[j] = 0;
     126:	00001e97          	auipc	t4,0x1
     12a:	0eee8e93          	addi	t4,t4,238 # 1214 <_bss_start>
    for (i = 0; i < size_b; ++i){
     12e:	07264063          	blt	a2,s2,18e <polymult+0xde>
        }
    }

    // make mod calculations
    for (i = 0; i < size_a; ++i){
     132:	4681                	li	a3,0
     134:	06b6c063          	blt	a3,a1,194 <polymult+0xe4>
        pola[i] = a[i];
    }

	array_mod(pola,mod,size_a);
     138:	862e                	mv	a2,a1
     13a:	8566                	mv	a0,s9
     13c:	85e2                	mv	a1,s8
     13e:	fb042a23          	sw	a6,-76(s0)
     142:	3f81                	jal	92 <array_mod>

    for (i = 0; i < size_b; ++i){
     144:	fb442803          	lw	a6,-76(s0)
     148:	4681                	li	a3,0
     14a:	0526cf63          	blt	a3,s2,1a8 <polymult+0xf8>
        polb[i] = b[i];
    }

	array_mod(polb,mod,size_b);
     14e:	8526                	mv	a0,s1
     150:	864a                	mv	a2,s2
     152:	85e2                	mv	a1,s8
     154:	3f3d                	jal	92 <array_mod>

    // make calculations for partial products, if need add mod calculations
    if(star_mult == 1){
     156:	fb842783          	lw	a5,-72(s0)
     15a:	4685                	li	a3,1
     15c:	94ce                	add	s1,s1,s3
     15e:	04d78e63          	beq	a5,a3,1ba <polymult+0x10a>
     162:	19f1                	addi	s3,s3,-4
     164:	ffcb8593          	addi	a1,s7,-4
     168:	99ee                	add	s3,s3,s11
                line[size_b-1-j][k] = pola[k]*polb[j];
            }
        }
    }
    else{
        for (j = size_b -1; j >= 0; j = j-1){
     16a:	040d4b63          	bltz	s10,1c0 <polymult+0x110>
            for (k = size_a-1; k >= 0; k = k-1 ){
     16e:	86da                	mv	a3,s6
     170:	a8f1                	j	24c <polymult+0x19c>
            product[j] = 0;
     172:	00269e13          	slli	t3,a3,0x2
     176:	9e76                	add	t3,t3,t4
            line[i][j] = 0;
     178:	00032023          	sw	zero,0(t1)
            product[j] = 0;
     17c:	000e2023          	sw	zero,0(t3)
        for(j = 0; j < size_a + size_b -1; ++j){
     180:	0685                	addi	a3,a3,1
     182:	0311                	addi	t1,t1,4
     184:	ff46c7e3          	blt	a3,s4,172 <polymult+0xc2>
    for (i = 0; i < size_b; ++i){
     188:	0605                	addi	a2,a2,1
     18a:	98de                	add	a7,a7,s7
     18c:	b74d                	j	12e <polymult+0x7e>
     18e:	8346                	mv	t1,a7
        for(j = 0; j < size_a + size_b -1; ++j){
     190:	4681                	li	a3,0
     192:	bfcd                	j	184 <polymult+0xd4>
        pola[i] = a[i];
     194:	00269613          	slli	a2,a3,0x2
     198:	00cc88b3          	add	a7,s9,a2
     19c:	962a                	add	a2,a2,a0
     19e:	4210                	lw	a2,0(a2)
    for (i = 0; i < size_a; ++i){
     1a0:	0685                	addi	a3,a3,1
        pola[i] = a[i];
     1a2:	00c8a023          	sw	a2,0(a7)
    for (i = 0; i < size_a; ++i){
     1a6:	b779                	j	134 <polymult+0x84>
        polb[i] = b[i];
     1a8:	00269613          	slli	a2,a3,0x2
     1ac:	00c485b3          	add	a1,s1,a2
     1b0:	9642                	add	a2,a2,a6
     1b2:	4210                	lw	a2,0(a2)
    for (i = 0; i < size_b; ++i){
     1b4:	0685                	addi	a3,a3,1
        polb[i] = b[i];
     1b6:	c190                	sw	a2,0(a1)
    for (i = 0; i < size_b; ++i){
     1b8:	bf49                	j	14a <polymult+0x9a>
    if(star_mult == 1){
     1ba:	85ee                	mv	a1,s11
        for (j = size_b -1; j >= 0; j = j-1){
     1bc:	060d5a63          	bgez	s10,230 <polymult+0x180>
            for (k = size_a-1; k >= 0; k = k-1 ){
     1c0:	4481                	li	s1,0
            }
        }
    }

    //mod calculations
    for (i = 0; i < size_b; ++i){
     1c2:	0924cb63          	blt	s1,s2,258 <polymult+0x1a8>
     1c6:	00001697          	auipc	a3,0x1
     1ca:	04e68693          	addi	a3,a3,78 # 1214 <_bss_start>
        array_mod(line[i],mod,(size_a+size_b-1));
    }

    // construct product
    for(j = 0; j < size_a + size_b -1; ++j){
     1ce:	4701                	li	a4,0
     1d0:	0b474c63          	blt	a4,s4,288 <polymult+0x1d8>
            product[j] += line[i][j];
        }
    }

    //mod calculations
    array_mod(product,mod,size_a+size_b-1);
     1d4:	8652                	mv	a2,s4
     1d6:	85e2                	mv	a1,s8
     1d8:	00001517          	auipc	a0,0x1
     1dc:	03c50513          	addi	a0,a0,60 # 1214 <_bss_start>
     1e0:	3d4d                	jal	92 <array_mod>

    return_address1 = &product[0];

    return return_address1;
}
     1e2:	fb040113          	addi	sp,s0,-80
     1e6:	40b6                	lw	ra,76(sp)
     1e8:	4426                	lw	s0,72(sp)
     1ea:	4496                	lw	s1,68(sp)
     1ec:	4906                	lw	s2,64(sp)
     1ee:	59f2                	lw	s3,60(sp)
     1f0:	5a62                	lw	s4,56(sp)
     1f2:	5ad2                	lw	s5,52(sp)
     1f4:	5b42                	lw	s6,48(sp)
     1f6:	5bb2                	lw	s7,44(sp)
     1f8:	5c22                	lw	s8,40(sp)
     1fa:	5c92                	lw	s9,36(sp)
     1fc:	5d02                	lw	s10,32(sp)
     1fe:	4df2                	lw	s11,28(sp)
     200:	00001517          	auipc	a0,0x1
     204:	01450513          	addi	a0,a0,20 # 1214 <_bss_start>
     208:	6161                	addi	sp,sp,80
     20a:	8082                	ret
                line[size_b-1-j][k] = pola[k]*polb[j];
     20c:	00269613          	slli	a2,a3,0x2
     210:	00c58533          	add	a0,a1,a2
     214:	9666                	add	a2,a2,s9
     216:	4210                	lw	a2,0(a2)
     218:	ffc4a803          	lw	a6,-4(s1)
            for (k = size_a-1; k >= 0; k = k-1 ){
     21c:	16fd                	addi	a3,a3,-1
                line[size_b-1-j][k] = pola[k]*polb[j];
     21e:	03060633          	mul	a2,a2,a6
     222:	c110                	sw	a2,0(a0)
            for (k = size_a-1; k >= 0; k = k-1 ){
     224:	fe06d4e3          	bgez	a3,20c <polymult+0x15c>
        for (j = size_b -1; j >= 0; j = j-1){
     228:	1d7d                	addi	s10,s10,-1
     22a:	14f1                	addi	s1,s1,-4
     22c:	95de                	add	a1,a1,s7
     22e:	b779                	j	1bc <polymult+0x10c>
            for (k = size_a-1; k >= 0; k = k-1 ){
     230:	86da                	mv	a3,s6
     232:	bfcd                	j	224 <polymult+0x174>
                line[size_b-1-j][k + j] = pola[k]*polb[j];
     234:	00269613          	slli	a2,a3,0x2
     238:	00c98533          	add	a0,s3,a2
     23c:	9666                	add	a2,a2,s9
     23e:	4210                	lw	a2,0(a2)
     240:	ffc4a803          	lw	a6,-4(s1)
            for (k = size_a-1; k >= 0; k = k-1 ){
     244:	16fd                	addi	a3,a3,-1
                line[size_b-1-j][k + j] = pola[k]*polb[j];
     246:	03060633          	mul	a2,a2,a6
     24a:	c110                	sw	a2,0(a0)
            for (k = size_a-1; k >= 0; k = k-1 ){
     24c:	fe06d4e3          	bgez	a3,234 <polymult+0x184>
        for (j = size_b -1; j >= 0; j = j-1){
     250:	1d7d                	addi	s10,s10,-1
     252:	14f1                	addi	s1,s1,-4
     254:	99ae                	add	s3,s3,a1
     256:	bf11                	j	16a <polymult+0xba>
        array_mod(line[i],mod,(size_a+size_b-1));
     258:	8556                	mv	a0,s5
     25a:	8652                	mv	a2,s4
     25c:	85e2                	mv	a1,s8
     25e:	3d15                	jal	92 <array_mod>
    for (i = 0; i < size_b; ++i){
     260:	0485                	addi	s1,s1,1
     262:	9ade                	add	s5,s5,s7
     264:	bfb9                	j	1c2 <polymult+0x112>
            product[j] += line[i][j];
     266:	fbc42783          	lw	a5,-68(s0)
     26a:	428c                	lw	a1,0(a3)
     26c:	02f607b3          	mul	a5,a2,a5
        for(i = 0; i < size_b; ++i){
     270:	0605                	addi	a2,a2,1
            product[j] += line[i][j];
     272:	97ba                	add	a5,a5,a4
     274:	078a                	slli	a5,a5,0x2
     276:	97ee                	add	a5,a5,s11
     278:	439c                	lw	a5,0(a5)
     27a:	97ae                	add	a5,a5,a1
     27c:	c29c                	sw	a5,0(a3)
        for(i = 0; i < size_b; ++i){
     27e:	ff2644e3          	blt	a2,s2,266 <polymult+0x1b6>
    for(j = 0; j < size_a + size_b -1; ++j){
     282:	0705                	addi	a4,a4,1
     284:	0691                	addi	a3,a3,4
     286:	b7a9                	j	1d0 <polymult+0x120>
        for(i = 0; i < size_b; ++i){
     288:	4601                	li	a2,0
     28a:	bfd5                	j	27e <polymult+0x1ce>

0000028c <polymult2>:

int *polymult2(int *a, int size_a, int *b, int size_b, int star_mult){
   

    int line[size_b][size_a + size_b];
     28c:	00d587b3          	add	a5,a1,a3
     290:	00269813          	slli	a6,a3,0x2
     294:	00279313          	slli	t1,a5,0x2
     298:	fff78e93          	addi	t4,a5,-1
     29c:	030787b3          	mul	a5,a5,a6
int *polymult2(int *a, int size_a, int *b, int size_b, int star_mult){
     2a0:	1101                	addi	sp,sp,-32
     2a2:	ce22                	sw	s0,28(sp)
     2a4:	cc26                	sw	s1,24(sp)
     2a6:	ca4a                	sw	s2,20(sp)
     2a8:	c84e                	sw	s3,16(sp)
     2aa:	c25a                	sw	s6,4(sp)
     2ac:	c652                	sw	s4,12(sp)
     2ae:	c456                	sw	s5,8(sp)
     2b0:	1000                	addi	s0,sp,32
    int line[size_b][size_a + size_b];
     2b2:	07bd                	addi	a5,a5,15
     2b4:	9bc1                	andi	a5,a5,-16
     2b6:	40f10133          	sub	sp,sp,a5
    int i,j,k;
    int *return_address2;
    int pola[size_a];
     2ba:	00259793          	slli	a5,a1,0x2
     2be:	07bd                	addi	a5,a5,15
     2c0:	9bc1                	andi	a5,a5,-16
    int line[size_b][size_a + size_b];
     2c2:	8e0a                	mv	t3,sp
    int pola[size_a];
     2c4:	40f10133          	sub	sp,sp,a5
    int polb[size_b];
     2c8:	00f80793          	addi	a5,a6,15
     2cc:	9bc1                	andi	a5,a5,-16
    int pola[size_a];
     2ce:	828a                	mv	t0,sp
    int polb[size_b];
     2d0:	40f10133          	sub	sp,sp,a5
    int line[size_b][size_a + size_b];
     2d4:	fff68893          	addi	a7,a3,-1
    int pola[size_a];
     2d8:	fff58f93          	addi	t6,a1,-1
    int polb[size_b];
     2dc:	878a                	mv	a5,sp

    //make all line vectors zero
    for (i = 0; i < size_b; ++i){
        for(j = 0; j < size_a + size_b -1; ++j){
            line[i][j] = 0;
     2de:	00235f13          	srli	t5,t1,0x2
     2e2:	8972                	mv	s2,t3
    for (i = 0; i < size_b; ++i){
     2e4:	89f2                	mv	s3,t3
     2e6:	4481                	li	s1,0
            product2[j] = 0;
     2e8:	00001b17          	auipc	s6,0x1
     2ec:	184b0b13          	addi	s6,s6,388 # 146c <product2>
    for (i = 0; i < size_b; ++i){
     2f0:	04d4c163          	blt	s1,a3,332 <polymult2+0xa6>
        }
    }

    for(i = 0; i < size_a; ++i){
     2f4:	4381                	li	t2,0
     2f6:	04b3c163          	blt	t2,a1,338 <polymult2+0xac>
        pola[i] = a[i];
    }


    for(i = 0; i < size_b; ++i){
     2fa:	4581                	li	a1,0
     2fc:	04d5c863          	blt	a1,a3,34c <polymult2+0xc0>
        polb[i] = b[i];
    }


    // make calculations for partial products, if need add mod calculations
    if(star_mult == 1){
     300:	4605                	li	a2,1
     302:	97c2                	add	a5,a5,a6
     304:	06c70f63          	beq	a4,a2,382 <polymult2+0xf6>
     308:	1871                	addi	a6,a6,-4
     30a:	1371                	addi	t1,t1,-4
     30c:	9872                	add	a6,a6,t3
                line[size_b-1-j][k] = pola[k]*polb[j];
            }
        }
    }
    else{
        for (j = size_b -1; j >= 0; j = j-1){
     30e:	0608cc63          	bltz	a7,386 <polymult2+0xfa>
            for (k = size_a-1; k >= 0; k = k-1 ){
     312:	877e                	mv	a4,t6
     314:	a86d                	j	3ce <polymult2+0x142>
            product2[j] = 0;
     316:	00239a93          	slli	s5,t2,0x2
     31a:	9ada                	add	s5,s5,s6
            line[i][j] = 0;
     31c:	000a2023          	sw	zero,0(s4)
            product2[j] = 0;
     320:	000aa023          	sw	zero,0(s5)
        for(j = 0; j < size_a + size_b -1; ++j){
     324:	0385                	addi	t2,t2,1
     326:	0a11                	addi	s4,s4,4
     328:	ffd3c7e3          	blt	t2,t4,316 <polymult2+0x8a>
    for (i = 0; i < size_b; ++i){
     32c:	0485                	addi	s1,s1,1
     32e:	999a                	add	s3,s3,t1
     330:	b7c1                	j	2f0 <polymult2+0x64>
     332:	8a4e                	mv	s4,s3
        for(j = 0; j < size_a + size_b -1; ++j){
     334:	4381                	li	t2,0
     336:	bfcd                	j	328 <polymult2+0x9c>
        pola[i] = a[i];
     338:	00239493          	slli	s1,t2,0x2
     33c:	009289b3          	add	s3,t0,s1
     340:	94aa                	add	s1,s1,a0
     342:	4084                	lw	s1,0(s1)
    for(i = 0; i < size_a; ++i){
     344:	0385                	addi	t2,t2,1
        pola[i] = a[i];
     346:	0099a023          	sw	s1,0(s3)
    for(i = 0; i < size_a; ++i){
     34a:	b775                	j	2f6 <polymult2+0x6a>
        polb[i] = b[i];
     34c:	00259513          	slli	a0,a1,0x2
     350:	00a783b3          	add	t2,a5,a0
     354:	9532                	add	a0,a0,a2
     356:	4108                	lw	a0,0(a0)
    for(i = 0; i < size_b; ++i){
     358:	0585                	addi	a1,a1,1
        polb[i] = b[i];
     35a:	00a3a023          	sw	a0,0(t2)
    for(i = 0; i < size_b; ++i){
     35e:	bf79                	j	2fc <polymult2+0x70>
                line[size_b-1-j][k] = pola[k]*polb[j];
     360:	00271613          	slli	a2,a4,0x2
     364:	00c905b3          	add	a1,s2,a2
     368:	9616                	add	a2,a2,t0
     36a:	4210                	lw	a2,0(a2)
     36c:	ffc7a503          	lw	a0,-4(a5)
            for (k = size_a-1; k >= 0; k = k-1 ){
     370:	177d                	addi	a4,a4,-1
                line[size_b-1-j][k] = pola[k]*polb[j];
     372:	02a60633          	mul	a2,a2,a0
     376:	c190                	sw	a2,0(a1)
            for (k = size_a-1; k >= 0; k = k-1 ){
     378:	fe0754e3          	bgez	a4,360 <polymult2+0xd4>
        for (j = size_b -1; j >= 0; j = j-1){
     37c:	18fd                	addi	a7,a7,-1
     37e:	17f1                	addi	a5,a5,-4
     380:	991a                	add	s2,s2,t1
     382:	0208d863          	bgez	a7,3b2 <polymult2+0x126>
     386:	00001617          	auipc	a2,0x1
     38a:	0e660613          	addi	a2,a2,230 # 146c <product2>
        }
    }

    // construct product
    for(j = 0; j < size_a + size_b -1; ++j){
        for(i = 0; i < size_b; ++i){
     38e:	4701                	li	a4,0
    for(j = 0; j < size_a + size_b -1; ++j){
     390:	07d74463          	blt	a4,t4,3f8 <polymult2+0x16c>


    return_address2 = &product2[0];

    return return_address2;
}
     394:	fe040113          	addi	sp,s0,-32
     398:	4472                	lw	s0,28(sp)
     39a:	44e2                	lw	s1,24(sp)
     39c:	4952                	lw	s2,20(sp)
     39e:	49c2                	lw	s3,16(sp)
     3a0:	4a32                	lw	s4,12(sp)
     3a2:	4aa2                	lw	s5,8(sp)
     3a4:	4b12                	lw	s6,4(sp)
     3a6:	00001517          	auipc	a0,0x1
     3aa:	0c650513          	addi	a0,a0,198 # 146c <product2>
     3ae:	6105                	addi	sp,sp,32
     3b0:	8082                	ret
            for (k = size_a-1; k >= 0; k = k-1 ){
     3b2:	877e                	mv	a4,t6
     3b4:	b7d1                	j	378 <polymult2+0xec>
                line[size_b-1-j][k + j] = pola[k]*polb[j];
     3b6:	00271613          	slli	a2,a4,0x2
     3ba:	00c805b3          	add	a1,a6,a2
     3be:	9616                	add	a2,a2,t0
     3c0:	4210                	lw	a2,0(a2)
     3c2:	ffc7a503          	lw	a0,-4(a5)
            for (k = size_a-1; k >= 0; k = k-1 ){
     3c6:	177d                	addi	a4,a4,-1
                line[size_b-1-j][k + j] = pola[k]*polb[j];
     3c8:	02a60633          	mul	a2,a2,a0
     3cc:	c190                	sw	a2,0(a1)
            for (k = size_a-1; k >= 0; k = k-1 ){
     3ce:	fe0754e3          	bgez	a4,3b6 <polymult2+0x12a>
        for (j = size_b -1; j >= 0; j = j-1){
     3d2:	18fd                	addi	a7,a7,-1
     3d4:	17f1                	addi	a5,a5,-4
     3d6:	981a                	add	a6,a6,t1
     3d8:	bf1d                	j	30e <polymult2+0x82>
            product2[j] += line[i][j];
     3da:	03e587b3          	mul	a5,a1,t5
     3de:	4208                	lw	a0,0(a2)
        for(i = 0; i < size_b; ++i){
     3e0:	0585                	addi	a1,a1,1
            product2[j] += line[i][j];
     3e2:	97ba                	add	a5,a5,a4
     3e4:	078a                	slli	a5,a5,0x2
     3e6:	97f2                	add	a5,a5,t3
     3e8:	439c                	lw	a5,0(a5)
     3ea:	97aa                	add	a5,a5,a0
     3ec:	c21c                	sw	a5,0(a2)
        for(i = 0; i < size_b; ++i){
     3ee:	fed5c6e3          	blt	a1,a3,3da <polymult2+0x14e>
    for(j = 0; j < size_a + size_b -1; ++j){
     3f2:	0705                	addi	a4,a4,1
     3f4:	0611                	addi	a2,a2,4
     3f6:	bf69                	j	390 <polymult2+0x104>
        for(i = 0; i < size_b; ++i){
     3f8:	4581                	li	a1,0
     3fa:	bfd5                	j	3ee <polymult2+0x162>

000003fc <polydiv>:
 

    int u,d,d2,i,b_N,r_d;
    int *return_address3;

    int v[size_N];
     3fc:	00259793          	slli	a5,a1,0x2
int *polydiv(int *num, int size_N, int*denum, int size_D, int mod){
     400:	715d                	addi	sp,sp,-80
    int v[size_N];
     402:	07bd                	addi	a5,a5,15
     404:	9bc1                	andi	a5,a5,-16
int *polydiv(int *num, int size_N, int*denum, int size_D, int mod){
     406:	c4a2                	sw	s0,72(sp)
     408:	c2a6                	sw	s1,68(sp)
     40a:	c0ca                	sw	s2,64(sp)
     40c:	de4e                	sw	s3,60(sp)
     40e:	dc52                	sw	s4,56(sp)
     410:	da56                	sw	s5,52(sp)
     412:	d85a                	sw	s6,48(sp)
     414:	d65e                	sw	s7,44(sp)
     416:	d462                	sw	s8,40(sp)
     418:	d266                	sw	s9,36(sp)
     41a:	ce6e                	sw	s11,28(sp)
     41c:	c686                	sw	ra,76(sp)
     41e:	d06a                	sw	s10,32(sp)
     420:	0880                	addi	s0,sp,80
    int v[size_N];
     422:	40f10133          	sub	sp,sp,a5
     426:	8a0a                	mv	s4,sp
    int q[size_N];
     428:	40f10133          	sub	sp,sp,a5
     42c:	8a8a                	mv	s5,sp
    int *product;
    int num_temp[size_N];
     42e:	40f10133          	sub	sp,sp,a5
    int denum_temp[size_D];
     432:	00269793          	slli	a5,a3,0x2
     436:	07bd                	addi	a5,a5,15
     438:	9bc1                	andi	a5,a5,-16
    int num_temp[size_N];
     43a:	898a                	mv	s3,sp
    int denum_temp[size_D];
     43c:	40f10133          	sub	sp,sp,a5
int *polydiv(int *num, int size_N, int*denum, int size_D, int mod){
     440:	892e                	mv	s2,a1
     442:	8c32                	mv	s8,a2
     444:	8b36                	mv	s6,a3
     446:	84ba                	mv	s1,a4
    int v[size_N];
     448:	fff58d93          	addi	s11,a1,-1
    int denum_temp[size_D];
     44c:	fff68b93          	addi	s7,a3,-1
     450:	8c8a                	mv	s9,sp


    // make mod calculation for coefficents
    for (i = 0; i < size_N; ++i){
     452:	4781                	li	a5,0
     454:	0527ca63          	blt	a5,s2,4a8 <polydiv+0xac>
        num_temp[i] = num[i];
    }
    
    if(size_N == 106) {
     458:	06a00793          	li	a5,106
     45c:	06f91363          	bne	s2,a5,4c2 <polydiv+0xc6>
        array_mod(num_temp, mod, size_N - 1);
     460:	06900613          	li	a2,105
     464:	85a6                	mv	a1,s1
     466:	854e                	mv	a0,s3
     468:	312d                	jal	92 <array_mod>
        while(num_temp[size_N - 1] < 0){
     46a:	1a49a783          	lw	a5,420(s3)
     46e:	0407c663          	bltz	a5,4ba <polydiv+0xbe>
            num_temp[size_N - 1] = num_temp[size_N - 1]+mod;
        }
        num_temp[size_N - 1] = num_temp[size_N - 1] % mod;
     472:	0297e7b3          	rem	a5,a5,s1
     476:	1af9a223          	sw	a5,420(s3)
    for (i = 0; i < size_N; ++i){
     47a:	4781                	li	a5,0
        array_mod(num_temp, mod, size_N);
    }


    // make mod calculation for coefficents
    for (i = 0; i < size_D; ++i) {
     47c:	0567c863          	blt	a5,s6,4cc <polydiv+0xd0>
        denum_temp[i] = denum[i];
    }

	array_mod(denum_temp,mod,size_D);
     480:	865a                	mv	a2,s6
     482:	85a6                	mv	a1,s1
     484:	8566                	mv	a0,s9
     486:	3131                	jal	92 <array_mod>

    for (i = 0; i < size_N; ++i){
     488:	4781                	li	a5,0
     48a:	0527ca63          	blt	a5,s2,4de <polydiv+0xe2>
        q[i] = 0;
        v[i] = 0;
    }

    //find b_N (denum) and degree denum
    for (i = size_D-1; i >= 0; i = i-1){
     48e:	002b9793          	slli	a5,s7,0x2
     492:	97e6                	add	a5,a5,s9
     494:	4398                	lw	a4,0(a5)
     496:	040bdf63          	bgez	s7,4f4 <polydiv+0xf8>
    for (i = 0; i < size_N; ++i){
     49a:	4781                	li	a5,0
     49c:	4c01                	li	s8,0
    d2 = i; //f'in derecesi
    b_N = denum_temp[i];

    // Set u := (b_N)^–1 mod p (denum) //
    for (u = 0; u < mod; ++u){
        if ( (b_N*u)%mod == 1 )
     49e:	4685                	li	a3,1
    for (u = 0; u < mod; ++u){
     4a0:	049c4d63          	blt	s8,s1,4fa <polydiv+0xfe>
     4a4:	87ee                	mv	a5,s11
     4a6:	a09d                	j	50c <polydiv+0x110>
        num_temp[i] = num[i];
     4a8:	00279713          	slli	a4,a5,0x2
     4ac:	00e986b3          	add	a3,s3,a4
     4b0:	972a                	add	a4,a4,a0
     4b2:	4318                	lw	a4,0(a4)
    for (i = 0; i < size_N; ++i){
     4b4:	0785                	addi	a5,a5,1
        num_temp[i] = num[i];
     4b6:	c298                	sw	a4,0(a3)
    for (i = 0; i < size_N; ++i){
     4b8:	bf71                	j	454 <polydiv+0x58>
            num_temp[size_N - 1] = num_temp[size_N - 1]+mod;
     4ba:	97a6                	add	a5,a5,s1
     4bc:	1af9a223          	sw	a5,420(s3)
     4c0:	b76d                	j	46a <polydiv+0x6e>
        array_mod(num_temp, mod, size_N);
     4c2:	864a                	mv	a2,s2
     4c4:	85a6                	mv	a1,s1
     4c6:	854e                	mv	a0,s3
     4c8:	36e9                	jal	92 <array_mod>
     4ca:	bf45                	j	47a <polydiv+0x7e>
        denum_temp[i] = denum[i];
     4cc:	00279713          	slli	a4,a5,0x2
     4d0:	00ec86b3          	add	a3,s9,a4
     4d4:	9762                	add	a4,a4,s8
     4d6:	4318                	lw	a4,0(a4)
    for (i = 0; i < size_D; ++i) {
     4d8:	0785                	addi	a5,a5,1
        denum_temp[i] = denum[i];
     4da:	c298                	sw	a4,0(a3)
    for (i = 0; i < size_D; ++i) {
     4dc:	b745                	j	47c <polydiv+0x80>
        q[i] = 0;
     4de:	00279713          	slli	a4,a5,0x2
     4e2:	00ea86b3          	add	a3,s5,a4
        v[i] = 0;
     4e6:	9752                	add	a4,a4,s4
        q[i] = 0;
     4e8:	0006a023          	sw	zero,0(a3)
        v[i] = 0;
     4ec:	00072023          	sw	zero,0(a4)
    for (i = 0; i < size_N; ++i){
     4f0:	0785                	addi	a5,a5,1
     4f2:	bf61                	j	48a <polydiv+0x8e>
        if( denum_temp[i] != 0 )
     4f4:	f35d                	bnez	a4,49a <polydiv+0x9e>
    for (i = size_D-1; i >= 0; i = i-1){
     4f6:	1bfd                	addi	s7,s7,-1
     4f8:	bf59                	j	48e <polydiv+0x92>
        if ( (b_N*u)%mod == 1 )
     4fa:	0297e633          	rem	a2,a5,s1
     4fe:	97ba                	add	a5,a5,a4
     500:	fad602e3          	beq	a2,a3,4a4 <polydiv+0xa8>
    for (u = 0; u < mod; ++u){
     504:	0c05                	addi	s8,s8,1
     506:	bf69                	j	4a0 <polydiv+0xa4>
            break;
    }

    // find degree num and r_d
    for (i = size_N-1; i >= 0; i = i-1){
        if( num_temp[i] != 0 )
     508:	eb01                	bnez	a4,518 <polydiv+0x11c>
    for (i = size_N-1; i >= 0; i = i-1){
     50a:	17fd                	addi	a5,a5,-1
     50c:	00279713          	slli	a4,a5,0x2
     510:	974e                	add	a4,a4,s3
     512:	4318                	lw	a4,0(a4)
     514:	fe07dae3          	bgez	a5,508 <polydiv+0x10c>
    while (d >= d2){

        // Set v := u × r_d × X^(d–N)
        v[(d-d2)] = u*r_d;

         if(size_N == 106) {
     518:	06a00d13          	li	s10,106
     51c:	a2a9                	j	666 <polydiv+0x26a>
        v[(d-d2)] = u*r_d;
     51e:	03870733          	mul	a4,a4,s8
     522:	417787b3          	sub	a5,a5,s7
     526:	078a                	slli	a5,a5,0x2
     528:	97d2                	add	a5,a5,s4
     52a:	c398                	sw	a4,0(a5)
         if(size_N == 106) {
     52c:	0ba91b63          	bne	s2,s10,5e2 <polydiv+0x1e6>
            array_mod(v, mod, size_N - 1);
     530:	06900613          	li	a2,105
     534:	85a6                	mv	a1,s1
     536:	8552                	mv	a0,s4
     538:	3ea9                	jal	92 <array_mod>
            while(v[size_N - 1] < 0){
     53a:	1a4a2783          	lw	a5,420(s4)
     53e:	0807ce63          	bltz	a5,5da <polydiv+0x1de>
                v[size_N - 1] = v[size_N - 1]+mod;
            }
            v[size_N - 1] = v[size_N - 1] % mod;
     542:	0297e7b3          	rem	a5,a5,s1
     546:	1afa2223          	sw	a5,420(s4)
        else{
            array_mod(v, mod, size_N);
        }

        // v*b
        product = polymult(denum_temp,size_D,v,size_D,mod,0);
     54a:	4781                	li	a5,0
     54c:	8726                	mv	a4,s1
     54e:	86da                	mv	a3,s6
     550:	8652                	mv	a2,s4
     552:	85da                	mv	a1,s6
     554:	8566                	mv	a0,s9
     556:	3ea9                	jal	b0 <polymult>

        // make mod calculation for coefficents
     
        if(size_N == 106) {
     558:	faa42e23          	sw	a0,-68(s0)
     55c:	09a91c63          	bne	s2,s10,5f4 <polydiv+0x1f8>
            array_mod(product, mod, size_N - 1);
     560:	06900613          	li	a2,105
     564:	85a6                	mv	a1,s1
     566:	3635                	jal	92 <array_mod>
            while(product[size_N - 1] < 0){
     568:	fbc42703          	lw	a4,-68(s0)
     56c:	1a472783          	lw	a5,420(a4)
     570:	0607ce63          	bltz	a5,5ec <polydiv+0x1f0>
                product[size_N - 1] = product[size_N - 1]+mod;
            }
            product[size_N - 1] = product[size_N - 1] % mod;
     574:	0297e7b3          	rem	a5,a5,s1
     578:	1af72223          	sw	a5,420(a4)
     57c:	86ce                	mv	a3,s3
     57e:	4781                	li	a5,0
        else{
            array_mod(product, mod, size_N);
        }
        
        //r = r- v*b
        for (i = 0; i < size_N; ++i){
     580:	0927c063          	blt	a5,s2,600 <polydiv+0x204>
            num_temp[i] = num_temp[i] - product[i];
        }

        // make mod calculation for coefficents
 	if(size_N == 106) {
     584:	09a91d63          	bne	s2,s10,61e <polydiv+0x222>
            array_mod(num_temp, mod, size_N - 1);
     588:	06900613          	li	a2,105
     58c:	85a6                	mv	a1,s1
     58e:	854e                	mv	a0,s3
     590:	3609                	jal	92 <array_mod>
            while(num_temp[size_N - 1] < 0){
     592:	1a49a783          	lw	a5,420(s3)
     596:	0807c063          	bltz	a5,616 <polydiv+0x21a>
                num_temp[size_N - 1] = num_temp[size_N - 1]+mod;
            }
            num_temp[size_N - 1] = num_temp[size_N - 1] % mod;
     59a:	0297e7b3          	rem	a5,a5,s1
     59e:	1af9a223          	sw	a5,420(s3)
     5a2:	8756                	mv	a4,s5
     5a4:	4781                	li	a5,0
        }
        else{
            array_mod(num_temp, mod, size_N);
	}
        // q = q + v;
        for(i = 0; i < size_N; ++i){
     5a6:	0927c163          	blt	a5,s2,628 <polydiv+0x22c>
            q[i] = q[i] + v[i];
        }

 	if(size_N == 106) {
     5aa:	09a91e63          	bne	s2,s10,646 <polydiv+0x24a>
            array_mod(q, mod, size_N - 1);
     5ae:	06900613          	li	a2,105
     5b2:	85a6                	mv	a1,s1
     5b4:	8556                	mv	a0,s5
     5b6:	3cf1                	jal	92 <array_mod>
            while(q[size_N - 1] < 0){
     5b8:	1a4aa783          	lw	a5,420(s5)
     5bc:	0807c163          	bltz	a5,63e <polydiv+0x242>
                q[size_N - 1] = q[size_N - 1]+mod;
            }
            q[size_N - 1] = q[size_N - 1] % mod;
     5c0:	0297e7b3          	rem	a5,a5,s1
     5c4:	1afaa223          	sw	a5,420(s5)
    int v[size_N];
     5c8:	87ee                	mv	a5,s11
        else{
            array_mod(q, mod, size_N);
        }

        // Set d := deg r(X) (num)
        for (i = size_N-1; i >= 0; i = i-1){
     5ca:	00279713          	slli	a4,a5,0x2
     5ce:	974e                	add	a4,a4,s3
     5d0:	4318                	lw	a4,0(a4)
     5d2:	0607df63          	bgez	a5,650 <polydiv+0x254>
     5d6:	4681                	li	a3,0
     5d8:	a069                	j	662 <polydiv+0x266>
                v[size_N - 1] = v[size_N - 1]+mod;
     5da:	97a6                	add	a5,a5,s1
     5dc:	1afa2223          	sw	a5,420(s4)
     5e0:	bfa9                	j	53a <polydiv+0x13e>
            array_mod(v, mod, size_N);
     5e2:	864a                	mv	a2,s2
     5e4:	85a6                	mv	a1,s1
     5e6:	8552                	mv	a0,s4
     5e8:	346d                	jal	92 <array_mod>
     5ea:	b785                	j	54a <polydiv+0x14e>
                product[size_N - 1] = product[size_N - 1]+mod;
     5ec:	97a6                	add	a5,a5,s1
     5ee:	1af72223          	sw	a5,420(a4)
     5f2:	bfad                	j	56c <polydiv+0x170>
            array_mod(product, mod, size_N);
     5f4:	864a                	mv	a2,s2
     5f6:	85a6                	mv	a1,s1
     5f8:	3c69                	jal	92 <array_mod>
     5fa:	fbc42703          	lw	a4,-68(s0)
     5fe:	bfbd                	j	57c <polydiv+0x180>
            num_temp[i] = num_temp[i] - product[i];
     600:	00279593          	slli	a1,a5,0x2
     604:	95ba                	add	a1,a1,a4
     606:	4290                	lw	a2,0(a3)
     608:	418c                	lw	a1,0(a1)
        for (i = 0; i < size_N; ++i){
     60a:	0785                	addi	a5,a5,1
     60c:	0691                	addi	a3,a3,4
            num_temp[i] = num_temp[i] - product[i];
     60e:	8e0d                	sub	a2,a2,a1
     610:	fec6ae23          	sw	a2,-4(a3)
        for (i = 0; i < size_N; ++i){
     614:	b7b5                	j	580 <polydiv+0x184>
                num_temp[size_N - 1] = num_temp[size_N - 1]+mod;
     616:	97a6                	add	a5,a5,s1
     618:	1af9a223          	sw	a5,420(s3)
     61c:	bf9d                	j	592 <polydiv+0x196>
            array_mod(num_temp, mod, size_N);
     61e:	864a                	mv	a2,s2
     620:	85a6                	mv	a1,s1
     622:	854e                	mv	a0,s3
     624:	34bd                	jal	92 <array_mod>
     626:	bfb5                	j	5a2 <polydiv+0x1a6>
            q[i] = q[i] + v[i];
     628:	00279613          	slli	a2,a5,0x2
     62c:	9652                	add	a2,a2,s4
     62e:	4314                	lw	a3,0(a4)
     630:	4210                	lw	a2,0(a2)
        for(i = 0; i < size_N; ++i){
     632:	0785                	addi	a5,a5,1
     634:	0711                	addi	a4,a4,4
            q[i] = q[i] + v[i];
     636:	96b2                	add	a3,a3,a2
     638:	fed72e23          	sw	a3,-4(a4)
        for(i = 0; i < size_N; ++i){
     63c:	b7ad                	j	5a6 <polydiv+0x1aa>
                q[size_N - 1] = q[size_N - 1]+mod;
     63e:	97a6                	add	a5,a5,s1
     640:	1afaa223          	sw	a5,420(s5)
     644:	bf95                	j	5b8 <polydiv+0x1bc>
            array_mod(q, mod, size_N);
     646:	864a                	mv	a2,s2
     648:	85a6                	mv	a1,s1
     64a:	8556                	mv	a0,s5
     64c:	3499                	jal	92 <array_mod>
     64e:	bfad                	j	5c8 <polydiv+0x1cc>
            if( num_temp[i] != 0 )
     650:	f359                	bnez	a4,5d6 <polydiv+0x1da>
        for (i = size_N-1; i >= 0; i = i-1){
     652:	17fd                	addi	a5,a5,-1
     654:	bf9d                	j	5ca <polydiv+0x1ce>
        d = i;
        r_d = num_temp[d];

        // make zero for next calculations
        for (i = 0; i < size_N; ++i){
            v[i] = 0;
     656:	00269613          	slli	a2,a3,0x2
     65a:	9652                	add	a2,a2,s4
     65c:	00062023          	sw	zero,0(a2)
        for (i = 0; i < size_N; ++i){
     660:	0685                	addi	a3,a3,1
     662:	ff26cae3          	blt	a3,s2,656 <polydiv+0x25a>
    while (d >= d2){
     666:	eb77dce3          	bge	a5,s7,51e <polydiv+0x122>
        }


    } //End While-1

    for(i = 0; i < size_N; ++i){
     66a:	4781                	li	a5,0
        result[i] = q[i];
     66c:	00001697          	auipc	a3,0x1
     670:	05868693          	addi	a3,a3,88 # 16c4 <result>
    for(i = 0; i < size_N; ++i){
     674:	0327cf63          	blt	a5,s2,6b2 <polydiv+0x2b6>
    }
    for(i = size_N; i < (2*size_N); ++i){
     678:	00191713          	slli	a4,s2,0x1
        result[i] = num_temp[i-size_N];
     67c:	00001697          	auipc	a3,0x1
     680:	04868693          	addi	a3,a3,72 # 16c4 <result>
    for(i = size_N; i < (2*size_N); ++i){
     684:	04e94063          	blt	s2,a4,6c4 <polydiv+0x2c8>
    }

    return_address3 = &result[0];

    return return_address3;
}
     688:	fb040113          	addi	sp,s0,-80
     68c:	40b6                	lw	ra,76(sp)
     68e:	4426                	lw	s0,72(sp)
     690:	4496                	lw	s1,68(sp)
     692:	4906                	lw	s2,64(sp)
     694:	59f2                	lw	s3,60(sp)
     696:	5a62                	lw	s4,56(sp)
     698:	5ad2                	lw	s5,52(sp)
     69a:	5b42                	lw	s6,48(sp)
     69c:	5bb2                	lw	s7,44(sp)
     69e:	5c22                	lw	s8,40(sp)
     6a0:	5c92                	lw	s9,36(sp)
     6a2:	5d02                	lw	s10,32(sp)
     6a4:	4df2                	lw	s11,28(sp)
     6a6:	00001517          	auipc	a0,0x1
     6aa:	01e50513          	addi	a0,a0,30 # 16c4 <result>
     6ae:	6161                	addi	sp,sp,80
     6b0:	8082                	ret
        result[i] = q[i];
     6b2:	00279713          	slli	a4,a5,0x2
     6b6:	00e68633          	add	a2,a3,a4
     6ba:	9756                	add	a4,a4,s5
     6bc:	4318                	lw	a4,0(a4)
    for(i = 0; i < size_N; ++i){
     6be:	0785                	addi	a5,a5,1
        result[i] = q[i];
     6c0:	c218                	sw	a4,0(a2)
    for(i = 0; i < size_N; ++i){
     6c2:	bf4d                	j	674 <polydiv+0x278>
        result[i] = num_temp[i-size_N];
     6c4:	0009a603          	lw	a2,0(s3)
     6c8:	00291793          	slli	a5,s2,0x2
     6cc:	97b6                	add	a5,a5,a3
     6ce:	c390                	sw	a2,0(a5)
    for(i = size_N; i < (2*size_N); ++i){
     6d0:	0905                	addi	s2,s2,1
     6d2:	0991                	addi	s3,s3,4
     6d4:	bf45                	j	684 <polydiv+0x288>

000006d6 <ext_euclid>:
int* ext_euclid(int* polyR, int* polyf, int size, int mod) {
   

    int *return_address4;
    int N, i, j;
    int ri_2[size]; // MX-ring poly, a
     6d6:	00261793          	slli	a5,a2,0x2
int* ext_euclid(int* polyR, int* polyf, int size, int mod) {
     6da:	715d                	addi	sp,sp,-80
    int ri_2[size]; // MX-ring poly, a
     6dc:	07bd                	addi	a5,a5,15
     6de:	9bc1                	andi	a5,a5,-16
int* ext_euclid(int* polyR, int* polyf, int size, int mod) {
     6e0:	c4a2                	sw	s0,72(sp)
     6e2:	c2a6                	sw	s1,68(sp)
     6e4:	c0ca                	sw	s2,64(sp)
     6e6:	de4e                	sw	s3,60(sp)
     6e8:	dc52                	sw	s4,56(sp)
     6ea:	da56                	sw	s5,52(sp)
     6ec:	d85a                	sw	s6,48(sp)
     6ee:	d65e                	sw	s7,44(sp)
     6f0:	d462                	sw	s8,40(sp)
     6f2:	d266                	sw	s9,36(sp)
     6f4:	ce6e                	sw	s11,28(sp)
     6f6:	c686                	sw	ra,76(sp)
     6f8:	d06a                	sw	s10,32(sp)
     6fa:	0880                	addi	s0,sp,80
    int ri_2[size]; // MX-ring poly, a
     6fc:	40f10133          	sub	sp,sp,a5
     700:	898a                	mv	s3,sp
    int ri_1[size]; // f-random poly, f[N] = 0, b
     702:	40f10133          	sub	sp,sp,a5
     706:	8a8a                	mv	s5,sp
    int ri[size];
     708:	40f10133          	sub	sp,sp,a5
     70c:	8c0a                	mv	s8,sp

    int ti_1[size]; // ti_1[0] = 1
     70e:	40f10133          	sub	sp,sp,a5
     712:	8b0a                	mv	s6,sp
    int ti[size];
     714:	40f10133          	sub	sp,sp,a5
     718:	8c8a                	mv	s9,sp
    int qi_1[size];
     71a:	40f10133          	sub	sp,sp,a5
     71e:	8b8a                	mv	s7,sp
    int temp[size];
     720:	40f10133          	sub	sp,sp,a5
int* ext_euclid(int* polyR, int* polyf, int size, int mod) {
     724:	84b6                	mv	s1,a3
     726:	8db2                	mv	s11,a2
    int ri_2[size]; // MX-ring poly, a
     728:	fff60913          	addi	s2,a2,-1
    int temp[size];
     72c:	8a0a                	mv	s4,sp
    int *res1;
    int *res2;
    int controlR = 1;

    N = size - 1;
    for (i = 0; i < size; ++i) {
     72e:	4781                	li	a5,0
     730:	4701                	li	a4,0
        ri_2[i] = polyR[i];
        ri_1[i] = polyf[i];
        ti_2[i] = 0;
     732:	00001697          	auipc	a3,0x1
     736:	1ea68693          	addi	a3,a3,490 # 191c <ti_2>
    for (i = 0; i < size; ++i) {
     73a:	0fb74163          	blt	a4,s11,81c <ext_euclid+0x146>
    }
///// ri_2 = polyR      ///////
///// ri_1 = f         //////////
///// ti_2 = ti_1 = 0 /////////

    ti_1[0] = 1;
     73e:	4785                	li	a5,1
     740:	00fb2023          	sw	a5,0(s6)
        // make mod for ri_1
	array_mod(ri_1,mod,N+1);


        res = polydiv(ri_2, N + 1, ri_1, N + 1, mod);
        for (i = N + 1; i < (2 * N + 2); ++i) {
     744:	001d9793          	slli	a5,s11,0x1
     748:	faf42e23          	sw	a5,-68(s0)
	
	array_mod(temp,mod,size);


        for (i = 0; i < N + 1; ++i) {
            ti[i] = ti_2[i] - temp[i];
     74c:	00001d17          	auipc	s10,0x1
     750:	1d0d0d13          	addi	s10,s10,464 # 191c <ti_2>
	array_mod(ri_2,mod,N+1);
     754:	866e                	mv	a2,s11
     756:	85a6                	mv	a1,s1
     758:	854e                	mv	a0,s3
     75a:	3a25                	jal	92 <array_mod>
	array_mod(ri_1,mod,N+1);
     75c:	866e                	mv	a2,s11
     75e:	85a6                	mv	a1,s1
     760:	8556                	mv	a0,s5
     762:	3a05                	jal	92 <array_mod>
        res = polydiv(ri_2, N + 1, ri_1, N + 1, mod);
     764:	8726                	mv	a4,s1
     766:	86ee                	mv	a3,s11
     768:	8656                	mv	a2,s5
     76a:	85ee                	mv	a1,s11
     76c:	854e                	mv	a0,s3
     76e:	3179                	jal	3fc <polydiv>
        for (i = N + 1; i < (2 * N + 2); ++i) {
     770:	8762                	mv	a4,s8
     772:	87ee                	mv	a5,s11
     774:	fbc42683          	lw	a3,-68(s0)
     778:	0cd7cd63          	blt	a5,a3,852 <ext_euclid+0x17c>
     77c:	4781                	li	a5,0
        for (i = 0; i < N + 1; ++i) {
     77e:	4701                	li	a4,0
     780:	0ee95263          	bge	s2,a4,864 <ext_euclid+0x18e>
        array_mod(temp,mod,N+1);
     784:	866e                	mv	a2,s11
     786:	85a6                	mv	a1,s1
     788:	8552                	mv	a0,s4
     78a:	3221                	jal	92 <array_mod>
        res1 = polydiv(temp, N + 1, ri_1, N + 1, mod);
     78c:	8726                	mv	a4,s1
     78e:	86ee                	mv	a3,s11
     790:	8656                	mv	a2,s5
     792:	85ee                	mv	a1,s11
     794:	8552                	mv	a0,s4
     796:	319d                	jal	3fc <polydiv>
        for (i = 0; i < N + 1; ++i) {
     798:	4781                	li	a5,0
     79a:	0ef95263          	bge	s2,a5,87e <ext_euclid+0x1a8>
	array_mod(qi_1,mod,size);
     79e:	866e                	mv	a2,s11
     7a0:	85a6                	mv	a1,s1
     7a2:	855e                	mv	a0,s7
     7a4:	30fd                	jal	92 <array_mod>
        res2 = polymult(qi_1, N + 1, ti_1, N + 1, mod, 0);
     7a6:	4781                	li	a5,0
     7a8:	8726                	mv	a4,s1
     7aa:	86ee                	mv	a3,s11
     7ac:	865a                	mv	a2,s6
     7ae:	85ee                	mv	a1,s11
     7b0:	855e                	mv	a0,s7
     7b2:	38fd                	jal	b0 <polymult>
        for (i = 0; i < N + 1; ++i) {
     7b4:	4781                	li	a5,0
     7b6:	0cf95d63          	bge	s2,a5,890 <ext_euclid+0x1ba>
	array_mod(temp,mod,size);
     7ba:	866e                	mv	a2,s11
     7bc:	85a6                	mv	a1,s1
     7be:	8552                	mv	a0,s4
     7c0:	38c9                	jal	92 <array_mod>
        for (i = 0; i < N + 1; ++i) {
     7c2:	4781                	li	a5,0
     7c4:	4701                	li	a4,0
     7c6:	0ce95e63          	bge	s2,a4,8a2 <ext_euclid+0x1cc>
        }

        array_mod(ti,mod,N+1);
     7ca:	866e                	mv	a2,s11
     7cc:	85a6                	mv	a1,s1
     7ce:	8566                	mv	a0,s9
     7d0:	30c9                	jal	92 <array_mod>

/// ri_2 = ri_1; ri_1 = ri; ti_2 = ti_1; ti_1 = ti; ///

        for (i = 0; i < N + 1; ++i) {
     7d2:	4781                	li	a5,0
        controlR = 0;
     7d4:	4701                	li	a4,0
        for (i = 0; i < N + 1; ++i) {
     7d6:	4681                	li	a3,0
     7d8:	0ed95263          	bge	s2,a3,8bc <ext_euclid+0x1e6>
    while (controlR != 0) {
     7dc:	ff25                	bnez	a4,754 <ext_euclid+0x7e>
            controlR += ri[i];
        }
    }


        for (j = 0; j < mod; ++j) {
     7de:	4781                	li	a5,0
            if (((ri_2[0] * j) % mod) == 1)
     7e0:	4605                	li	a2,1
        for (j = 0; j < mod; ++j) {
     7e2:	1097cb63          	blt	a5,s1,8f8 <ext_euclid+0x222>
     7e6:	00001617          	auipc	a2,0x1
     7ea:	13660613          	addi	a2,a2,310 # 191c <ti_2>
            if (ri_2[i] != 0)
                //	printf("** GCD of SECRET POL and POLYR is not 1 !! OPERATION INVALID!! PICK ANOTHER RANDOM VALUE !! ***\n");
                break;
        }

        for (i = 0; i < N + 1; ++i) {
     7ee:	10e95f63          	bge	s2,a4,90c <ext_euclid+0x236>
        }


        return_address4 = &ti_2[0];
        return return_address4;
    }
     7f2:	fb040113          	addi	sp,s0,-80
     7f6:	40b6                	lw	ra,76(sp)
     7f8:	4426                	lw	s0,72(sp)
     7fa:	4496                	lw	s1,68(sp)
     7fc:	4906                	lw	s2,64(sp)
     7fe:	59f2                	lw	s3,60(sp)
     800:	5a62                	lw	s4,56(sp)
     802:	5ad2                	lw	s5,52(sp)
     804:	5b42                	lw	s6,48(sp)
     806:	5bb2                	lw	s7,44(sp)
     808:	5c22                	lw	s8,40(sp)
     80a:	5c92                	lw	s9,36(sp)
     80c:	5d02                	lw	s10,32(sp)
     80e:	4df2                	lw	s11,28(sp)
     810:	00001517          	auipc	a0,0x1
     814:	10c50513          	addi	a0,a0,268 # 191c <ti_2>
     818:	6161                	addi	sp,sp,80
     81a:	8082                	ret
        ri_2[i] = polyR[i];
     81c:	00f508b3          	add	a7,a0,a5
     820:	0008a883          	lw	a7,0(a7)
     824:	00f98633          	add	a2,s3,a5
    for (i = 0; i < size; ++i) {
     828:	0705                	addi	a4,a4,1
        ri_2[i] = polyR[i];
     82a:	01162023          	sw	a7,0(a2)
        ri_1[i] = polyf[i];
     82e:	00f588b3          	add	a7,a1,a5
     832:	0008a883          	lw	a7,0(a7)
     836:	00fa8633          	add	a2,s5,a5
     83a:	01162023          	sw	a7,0(a2)
        ti_2[i] = 0;
     83e:	00f68633          	add	a2,a3,a5
     842:	00062023          	sw	zero,0(a2)
        ti_1[i] = 0;
     846:	00fb0633          	add	a2,s6,a5
     84a:	00062023          	sw	zero,0(a2)
    for (i = 0; i < size; ++i) {
     84e:	0791                	addi	a5,a5,4
     850:	b5ed                	j	73a <ext_euclid+0x64>
            ri[i - (N + 1)] = res[i];
     852:	00279693          	slli	a3,a5,0x2
     856:	96aa                	add	a3,a3,a0
     858:	4294                	lw	a3,0(a3)
        for (i = N + 1; i < (2 * N + 2); ++i) {
     85a:	0785                	addi	a5,a5,1
     85c:	0711                	addi	a4,a4,4
            ri[i - (N + 1)] = res[i];
     85e:	fed72e23          	sw	a3,-4(a4)
        for (i = N + 1; i < (2 * N + 2); ++i) {
     862:	bf09                	j	774 <ext_euclid+0x9e>
            temp[i] = ri_2[i] - ri[i];
     864:	00f986b3          	add	a3,s3,a5
     868:	00fc05b3          	add	a1,s8,a5
     86c:	4294                	lw	a3,0(a3)
     86e:	418c                	lw	a1,0(a1)
     870:	00fa0633          	add	a2,s4,a5
        for (i = 0; i < N + 1; ++i) {
     874:	0705                	addi	a4,a4,1
            temp[i] = ri_2[i] - ri[i];
     876:	8e8d                	sub	a3,a3,a1
     878:	c214                	sw	a3,0(a2)
        for (i = 0; i < N + 1; ++i) {
     87a:	0791                	addi	a5,a5,4
     87c:	b711                	j	780 <ext_euclid+0xaa>
            qi_1[i] = res1[i];
     87e:	00279713          	slli	a4,a5,0x2
     882:	00e506b3          	add	a3,a0,a4
     886:	4294                	lw	a3,0(a3)
     888:	975e                	add	a4,a4,s7
        for (i = 0; i < N + 1; ++i) {
     88a:	0785                	addi	a5,a5,1
            qi_1[i] = res1[i];
     88c:	c314                	sw	a3,0(a4)
        for (i = 0; i < N + 1; ++i) {
     88e:	b731                	j	79a <ext_euclid+0xc4>
            temp[i] = res2[i];
     890:	00279713          	slli	a4,a5,0x2
     894:	00e506b3          	add	a3,a0,a4
     898:	4294                	lw	a3,0(a3)
     89a:	9752                	add	a4,a4,s4
        for (i = 0; i < N + 1; ++i) {
     89c:	0785                	addi	a5,a5,1
            temp[i] = res2[i];
     89e:	c314                	sw	a3,0(a4)
        for (i = 0; i < N + 1; ++i) {
     8a0:	bf19                	j	7b6 <ext_euclid+0xe0>
            ti[i] = ti_2[i] - temp[i];
     8a2:	00fd06b3          	add	a3,s10,a5
     8a6:	00fa05b3          	add	a1,s4,a5
     8aa:	4294                	lw	a3,0(a3)
     8ac:	418c                	lw	a1,0(a1)
     8ae:	00fc8633          	add	a2,s9,a5
        for (i = 0; i < N + 1; ++i) {
     8b2:	0705                	addi	a4,a4,1
            ti[i] = ti_2[i] - temp[i];
     8b4:	8e8d                	sub	a3,a3,a1
     8b6:	c214                	sw	a3,0(a2)
        for (i = 0; i < N + 1; ++i) {
     8b8:	0791                	addi	a5,a5,4
     8ba:	b731                	j	7c6 <ext_euclid+0xf0>
            ri_2[i] = ri_1[i];
     8bc:	00fa85b3          	add	a1,s5,a5
     8c0:	4188                	lw	a0,0(a1)
     8c2:	00f98633          	add	a2,s3,a5
        for (i = 0; i < N + 1; ++i) {
     8c6:	0685                	addi	a3,a3,1
            ri_2[i] = ri_1[i];
     8c8:	c208                	sw	a0,0(a2)
            ri_1[i] = ri[i];
     8ca:	00fc0633          	add	a2,s8,a5
     8ce:	4210                	lw	a2,0(a2)
            ti_2[i] = ti_1[i];
     8d0:	00fd0533          	add	a0,s10,a5
            ri_1[i] = ri[i];
     8d4:	c190                	sw	a2,0(a1)
            ti_2[i] = ti_1[i];
     8d6:	00fb05b3          	add	a1,s6,a5
     8da:	0005a883          	lw	a7,0(a1)
            controlR += ri[i];
     8de:	9732                	add	a4,a4,a2
            ti_2[i] = ti_1[i];
     8e0:	01152023          	sw	a7,0(a0)
            ti_1[i] = ti[i];
     8e4:	00fc8533          	add	a0,s9,a5
     8e8:	4108                	lw	a0,0(a0)
     8ea:	c188                	sw	a0,0(a1)
            qi_1[i] = 0;
     8ec:	00fb85b3          	add	a1,s7,a5
     8f0:	0005a023          	sw	zero,0(a1)
        for (i = 0; i < N + 1; ++i) {
     8f4:	0791                	addi	a5,a5,4
     8f6:	b5cd                	j	7d8 <ext_euclid+0x102>
            if (((ri_2[0] * j) % mod) == 1)
     8f8:	0009a683          	lw	a3,0(s3)
     8fc:	02d786b3          	mul	a3,a5,a3
     900:	0296e6b3          	rem	a3,a3,s1
     904:	eec681e3          	beq	a3,a2,7e6 <ext_euclid+0x110>
        for (j = 0; j < mod; ++j) {
     908:	0785                	addi	a5,a5,1
     90a:	bde1                	j	7e2 <ext_euclid+0x10c>
            ti_2[i] = (ti_2[i] * j) % mod;        // ti_2[i]*j vardı..
     90c:	4214                	lw	a3,0(a2)
        for (i = 0; i < N + 1; ++i) {
     90e:	0705                	addi	a4,a4,1
     910:	0611                	addi	a2,a2,4
            ti_2[i] = (ti_2[i] * j) % mod;        // ti_2[i]*j vardı..
     912:	02d786b3          	mul	a3,a5,a3
     916:	0296e6b3          	rem	a3,a3,s1
     91a:	fed62e23          	sw	a3,-4(a2)
        for (i = 0; i < N + 1; ++i) {
     91e:	bdc1                	j	7ee <ext_euclid+0x118>

00000920 <generate_keys>:




int* generate_keys(int N, int p, int q){
     920:	7141                	addi	sp,sp,-496
     922:	1e112623          	sw	ra,492(sp)
     926:	1e812423          	sw	s0,488(sp)
     92a:	1e912223          	sw	s1,484(sp)
     92e:	1b80                	addi	s0,sp,496
     930:	1f212023          	sw	s2,480(sp)
     934:	1d312e23          	sw	s3,476(sp)
     938:	1d412c23          	sw	s4,472(sp)
     93c:	1d512a23          	sw	s5,468(sp)
     940:	1d612823          	sw	s6,464(sp)
     944:	1d712623          	sw	s7,460(sp)
     948:	1da12023          	sw	s10,448(sp)
     94c:	1d812423          	sw	s8,456(sp)
     950:	1d912223          	sw	s9,452(sp)
     954:	892a                	mv	s2,a0
     956:	8bae                	mv	s7,a1
     958:	8b32                	mv	s6,a2
  

    int f[55] = {-1, 1, 1, 0, -1, 0, 1, 0, 0, 1, -1, -1, 0, 1, 0, -1, 0, 1, 1, 0, 0,  -1, 0, 1, 0, 0, 1, 1, 1,  -1, 0, 1, 0, 0, 1, 1, 1,    -1, 0, 1, 0, 0, 1, 1, 1};
     95a:	4581                	li	a1,0
     95c:	0d000613          	li	a2,208
     960:	e2440513          	addi	a0,s0,-476
     964:	238d                	jal	ec6 <memset>
     966:	4485                	li	s1,1
     968:	59fd                	li	s3,-1
    int g[55] = {-1, 0, 1, 1, 0, 1, 0, 0, -1, 0, -1, -1, 0, 1, 0, -1, 0, 1, 0, 0, 1, -1, 0, 1, 0, 0, 1, -1, 0, 1, 0, 0, 1, -1, 0, 1, 0, 1,   1, 0, 0, 1, -1, 0, 1, 0, 1};
     96a:	0d800613          	li	a2,216
     96e:	4581                	li	a1,0
     970:	ef840513          	addi	a0,s0,-264
    int f[55] = {-1, 1, 1, 0, -1, 0, 1, 0, 0, 1, -1, -1, 0, 1, 0, -1, 0, 1, 1, 0, 0,  -1, 0, 1, 0, 0, 1, 1, 1,  -1, 0, 1, 0, 0, 1, 1, 1,    -1, 0, 1, 0, 0, 1, 1, 1};
     974:	e1342c23          	sw	s3,-488(s0)
     978:	e0942e23          	sw	s1,-484(s0)
     97c:	e2942023          	sw	s1,-480(s0)
     980:	e3342423          	sw	s3,-472(s0)
     984:	e2942823          	sw	s1,-464(s0)
     988:	e2942e23          	sw	s1,-452(s0)
     98c:	e5342023          	sw	s3,-448(s0)
     990:	e5342223          	sw	s3,-444(s0)
     994:	e4942623          	sw	s1,-436(s0)
     998:	e5342a23          	sw	s3,-428(s0)
     99c:	e4942e23          	sw	s1,-420(s0)
     9a0:	e6942023          	sw	s1,-416(s0)
     9a4:	e7342623          	sw	s3,-404(s0)
     9a8:	e6942a23          	sw	s1,-396(s0)
     9ac:	e8942023          	sw	s1,-384(s0)
     9b0:	e8942223          	sw	s1,-380(s0)
     9b4:	e8942423          	sw	s1,-376(s0)
     9b8:	e9342623          	sw	s3,-372(s0)
     9bc:	e8942a23          	sw	s1,-364(s0)
     9c0:	ea942023          	sw	s1,-352(s0)
     9c4:	ea942223          	sw	s1,-348(s0)
     9c8:	ea942423          	sw	s1,-344(s0)
     9cc:	eb342623          	sw	s3,-340(s0)
     9d0:	ea942a23          	sw	s1,-332(s0)
     9d4:	ec942023          	sw	s1,-320(s0)
     9d8:	ec942223          	sw	s1,-316(s0)
     9dc:	ec942423          	sw	s1,-312(s0)

    int *fp;
    int *fq;
    int *fg;
    int *pk;
    int polyR[N+1];
     9e0:	00190a93          	addi	s5,s2,1
    int g[55] = {-1, 0, 1, 1, 0, 1, 0, 0, -1, 0, -1, -1, 0, 1, 0, -1, 0, 1, 0, 0, 1, -1, 0, 1, 0, 0, 1, -1, 0, 1, 0, 0, 1, -1, 0, 1, 0, 1,   1, 0, 0, 1, -1, 0, 1, 0, 1};
     9e4:	21cd                	jal	ec6 <memset>
    int polyR[N+1];
     9e6:	002a9793          	slli	a5,s5,0x2
     9ea:	07bd                	addi	a5,a5,15
     9ec:	9bc1                	andi	a5,a5,-16
     9ee:	40f10133          	sub	sp,sp,a5
     9f2:	8a0a                	mv	s4,sp
    int i;
    int* return_address5;


    polyR[N] = 1;
     9f4:	00291d13          	slli	s10,s2,0x2
     9f8:	01aa07b3          	add	a5,s4,s10
     9fc:	c384                	sw	s1,0(a5)
    int g[55] = {-1, 0, 1, 1, 0, 1, 0, 0, -1, 0, -1, -1, 0, 1, 0, -1, 0, 1, 0, 0, 1, -1, 0, 1, 0, 0, 1, -1, 0, 1, 0, 0, 1, -1, 0, 1, 0, 1,   1, 0, 0, 1, -1, 0, 1, 0, 1};
     9fe:	ef342a23          	sw	s3,-268(s0)
     a02:	ee942e23          	sw	s1,-260(s0)
     a06:	f0942023          	sw	s1,-256(s0)
     a0a:	f0942423          	sw	s1,-248(s0)
     a0e:	f1342a23          	sw	s3,-236(s0)
     a12:	f1342e23          	sw	s3,-228(s0)
     a16:	f3342023          	sw	s3,-224(s0)
     a1a:	f2942423          	sw	s1,-216(s0)
     a1e:	f3342823          	sw	s3,-208(s0)
     a22:	f2942c23          	sw	s1,-200(s0)
     a26:	f4942223          	sw	s1,-188(s0)
     a2a:	f5342423          	sw	s3,-184(s0)
     a2e:	f4942823          	sw	s1,-176(s0)
     a32:	f4942e23          	sw	s1,-164(s0)
     a36:	f7342023          	sw	s3,-160(s0)
     a3a:	f6942423          	sw	s1,-152(s0)
     a3e:	f6942a23          	sw	s1,-140(s0)
     a42:	f7342c23          	sw	s3,-136(s0)
     a46:	f8942023          	sw	s1,-128(s0)
     a4a:	f8942423          	sw	s1,-120(s0)
     a4e:	f8942623          	sw	s1,-116(s0)
     a52:	f8942c23          	sw	s1,-104(s0)
     a56:	f9342e23          	sw	s3,-100(s0)
     a5a:	fa942223          	sw	s1,-92(s0)
     a5e:	fa942623          	sw	s1,-84(s0)
    polyR[0] = -1;
     a62:	013a2023          	sw	s3,0(s4)

    for(i = 1; i < N; ++i){
     a66:	4785                	li	a5,1
     a68:	1127c263          	blt	a5,s2,b6c <generate_keys+0x24c>
     a6c:	87ca                	mv	a5,s2
        polyR[i] = 0;
    }



    for (i = N; i < 55; ++i ){
     a6e:	03600693          	li	a3,54
     a72:	10f6d463          	bge	a3,a5,b7a <generate_keys+0x25a>
        g[i] = 0;
    }
///// F VE G ARRAYLERİNİN SONLARI SIFIRLANDI //////


    for(i = 0; i < N; ++i){
     a76:	4781                	li	a5,0
        random_keys[i] = f[i];
     a78:	00001697          	auipc	a3,0x1
     a7c:	03468693          	addi	a3,a3,52 # 1aac <random_keys>
    for(i = 0; i < N; ++i){
     a80:	1127cb63          	blt	a5,s2,b96 <generate_keys+0x276>
     a84:	ef440713          	addi	a4,s0,-268
    }
    ////RANDOM_KEYS 0-52 ARASI F////

    for(i = N; i < (2*N); ++i){
     a88:	00191993          	slli	s3,s2,0x1
     a8c:	87ca                	mv	a5,s2
     a8e:	8cba                	mv	s9,a4
        random_keys[i] = g[i-N];
     a90:	00001617          	auipc	a2,0x1
     a94:	01c60613          	addi	a2,a2,28 # 1aac <random_keys>
    for(i = N; i < (2*N); ++i){
     a98:	1137ca63          	blt	a5,s3,bac <generate_keys+0x28c>
    ////RANDOM_KEYS 53-105 ARASI G////

    fp = ext_euclid(polyR, f, (N+1), p);
    ////FP HESAPLANDI////

    for(i = (2*N); i < (3*N); ++i){
     a9c:	448d                	li	s1,3
     a9e:	029904b3          	mul	s1,s2,s1
    fp = ext_euclid(polyR, f, (N+1), p);
     aa2:	86de                	mv	a3,s7
     aa4:	8656                	mv	a2,s5
     aa6:	e1840593          	addi	a1,s0,-488
     aaa:	8552                	mv	a0,s4
     aac:	312d                	jal	6d6 <ext_euclid>
    for(i = (2*N); i < (3*N); ++i){
     aae:	87ce                	mv	a5,s3
        random_keys[i] = fp[i-(2*N)];
     ab0:	00001697          	auipc	a3,0x1
     ab4:	ffc68693          	addi	a3,a3,-4 # 1aac <random_keys>
    for(i = (2*N); i < (3*N); ++i){
     ab8:	1097c263          	blt	a5,s1,bbc <generate_keys+0x29c>
    }
    ////RANDOM_KEYS 106-158 ARASI FP////


    fq = ext_euclid(polyR, f, (N+1), q);
     abc:	8656                	mv	a2,s5
     abe:	86da                	mv	a3,s6
     ac0:	e1840593          	addi	a1,s0,-488
     ac4:	8552                	mv	a0,s4
     ac6:	3901                	jal	6d6 <ext_euclid>
    ////FQ HESAPLANDI ////


    for(i = (3*N); i < (4*N); ++i){
     ac8:	5751                	li	a4,-12
     aca:	02e90733          	mul	a4,s2,a4
     ace:	8c6a                	mv	s8,s10
        random_keys[i] = fq[i-(3*N)];
     ad0:	00001617          	auipc	a2,0x1
     ad4:	fdc60613          	addi	a2,a2,-36 # 1aac <random_keys>
    for(i = (3*N); i < (4*N); ++i){
     ad8:	0fa4ca63          	blt	s1,s10,bcc <generate_keys+0x2ac>
    }
    ////RANDOM KEYS 159-211 ARASI FQ ////

    fg = polymult2(fq, N, g, N, 0);
     adc:	4701                	li	a4,0
     ade:	85ca                	mv	a1,s2
     ae0:	86ca                	mv	a3,s2
     ae2:	8666                	mv	a2,s9
     ae4:	fa8ff0ef          	jal	ra,28c <polymult2>
    //// FG HESAPLANDI ////

    for(i = 0; i < (2*N-1); ++i){
     ae8:	87aa                	mv	a5,a0
     aea:	4701                	li	a4,0
     aec:	fff98593          	addi	a1,s3,-1
     af0:	0eb74863          	blt	a4,a1,be0 <generate_keys+0x2c0>
        fg[i] = fg[i]*p;
    }

    //// FG = 3FG ////

    pk = polydiv(fg, (2*N-1), polyR, (N+1), q);
     af4:	86d6                	mv	a3,s5
     af6:	875a                	mv	a4,s6
     af8:	8652                	mv	a2,s4
     afa:	3209                	jal	3fc <polydiv>

    ////PK HESAPLANDI////

    for(i = (4*N); i < (5*N); ++i){
     afc:	4795                	li	a5,5
     afe:	02f907b3          	mul	a5,s2,a5
     b02:	098a                	slli	s3,s3,0x2
     b04:	99aa                	add	s3,s3,a0
        random_keys[i] = pk[i-(4*N)+(2*N-1)];
     b06:	00001697          	auipc	a3,0x1
     b0a:	fa668693          	addi	a3,a3,-90 # 1aac <random_keys>
    for(i = (4*N); i < (5*N); ++i){
     b0e:	0991                	addi	s3,s3,4
     b10:	0efc4063          	blt	s8,a5,bf0 <generate_keys+0x2d0>
    }
    //////// RANDOM KEYS SONU PK  ////////

    for(i = (5*N); i < (6*N+1); ++i){
     b14:	4699                	li	a3,6
     b16:	5531                	li	a0,-20
        random_keys[i] = polyR[i-(5*N)];
     b18:	00001617          	auipc	a2,0x1
     b1c:	f9460613          	addi	a2,a2,-108 # 1aac <random_keys>
    for(i = (5*N); i < (6*N+1); ++i){
     b20:	02d906b3          	mul	a3,s2,a3
     b24:	02a90933          	mul	s2,s2,a0
     b28:	0cf6dc63          	bge	a3,a5,c00 <generate_keys+0x2e0>


    return_address5 = &random_keys[0];

    return return_address5;
}
     b2c:	e1040113          	addi	sp,s0,-496
     b30:	1ec12083          	lw	ra,492(sp)
     b34:	1e812403          	lw	s0,488(sp)
     b38:	1e412483          	lw	s1,484(sp)
     b3c:	1e012903          	lw	s2,480(sp)
     b40:	1dc12983          	lw	s3,476(sp)
     b44:	1d812a03          	lw	s4,472(sp)
     b48:	1d412a83          	lw	s5,468(sp)
     b4c:	1d012b03          	lw	s6,464(sp)
     b50:	1cc12b83          	lw	s7,460(sp)
     b54:	1c812c03          	lw	s8,456(sp)
     b58:	1c412c83          	lw	s9,452(sp)
     b5c:	1c012d03          	lw	s10,448(sp)
     b60:	00001517          	auipc	a0,0x1
     b64:	f4c50513          	addi	a0,a0,-180 # 1aac <random_keys>
     b68:	617d                	addi	sp,sp,496
     b6a:	8082                	ret
        polyR[i] = 0;
     b6c:	00279713          	slli	a4,a5,0x2
     b70:	9752                	add	a4,a4,s4
     b72:	00072023          	sw	zero,0(a4)
    for(i = 1; i < N; ++i){
     b76:	0785                	addi	a5,a5,1
     b78:	bdc5                	j	a68 <generate_keys+0x148>
        f[i] = 0;
     b7a:	00279713          	slli	a4,a5,0x2
     b7e:	e1840613          	addi	a2,s0,-488
     b82:	963a                	add	a2,a2,a4
     b84:	00062023          	sw	zero,0(a2)
        g[i] = 0;
     b88:	ef440613          	addi	a2,s0,-268
     b8c:	9732                	add	a4,a4,a2
     b8e:	00072023          	sw	zero,0(a4)
    for (i = N; i < 55; ++i ){
     b92:	0785                	addi	a5,a5,1
     b94:	bdf9                	j	a72 <generate_keys+0x152>
        random_keys[i] = f[i];
     b96:	00279713          	slli	a4,a5,0x2
     b9a:	e1840593          	addi	a1,s0,-488
     b9e:	00e68633          	add	a2,a3,a4
     ba2:	972e                	add	a4,a4,a1
     ba4:	4318                	lw	a4,0(a4)
    for(i = 0; i < N; ++i){
     ba6:	0785                	addi	a5,a5,1
        random_keys[i] = f[i];
     ba8:	c218                	sw	a4,0(a2)
    for(i = 0; i < N; ++i){
     baa:	bdd9                	j	a80 <generate_keys+0x160>
        random_keys[i] = g[i-N];
     bac:	430c                	lw	a1,0(a4)
     bae:	00279693          	slli	a3,a5,0x2
     bb2:	96b2                	add	a3,a3,a2
     bb4:	c28c                	sw	a1,0(a3)
    for(i = N; i < (2*N); ++i){
     bb6:	0785                	addi	a5,a5,1
     bb8:	0711                	addi	a4,a4,4
     bba:	bdf9                	j	a98 <generate_keys+0x178>
        random_keys[i] = fp[i-(2*N)];
     bbc:	4110                	lw	a2,0(a0)
     bbe:	00279713          	slli	a4,a5,0x2
     bc2:	9736                	add	a4,a4,a3
     bc4:	c310                	sw	a2,0(a4)
    for(i = (2*N); i < (3*N); ++i){
     bc6:	0785                	addi	a5,a5,1
     bc8:	0511                	addi	a0,a0,4
     bca:	b5fd                	j	ab8 <generate_keys+0x198>
        random_keys[i] = fq[i-(3*N)];
     bcc:	00249793          	slli	a5,s1,0x2
     bd0:	00f706b3          	add	a3,a4,a5
     bd4:	96aa                	add	a3,a3,a0
     bd6:	4294                	lw	a3,0(a3)
     bd8:	97b2                	add	a5,a5,a2
    for(i = (3*N); i < (4*N); ++i){
     bda:	0485                	addi	s1,s1,1
        random_keys[i] = fq[i-(3*N)];
     bdc:	c394                	sw	a3,0(a5)
    for(i = (3*N); i < (4*N); ++i){
     bde:	bded                	j	ad8 <generate_keys+0x1b8>
        fg[i] = fg[i]*p;
     be0:	4394                	lw	a3,0(a5)
    for(i = 0; i < (2*N-1); ++i){
     be2:	0705                	addi	a4,a4,1
     be4:	0791                	addi	a5,a5,4
        fg[i] = fg[i]*p;
     be6:	037686b3          	mul	a3,a3,s7
     bea:	fed7ae23          	sw	a3,-4(a5)
    for(i = 0; i < (2*N-1); ++i){
     bee:	b709                	j	af0 <generate_keys+0x1d0>
        random_keys[i] = pk[i-(4*N)+(2*N-1)];
     bf0:	ff89a603          	lw	a2,-8(s3)
     bf4:	002c1713          	slli	a4,s8,0x2
     bf8:	9736                	add	a4,a4,a3
     bfa:	c310                	sw	a2,0(a4)
    for(i = (4*N); i < (5*N); ++i){
     bfc:	0c05                	addi	s8,s8,1
     bfe:	bf01                	j	b0e <generate_keys+0x1ee>
        random_keys[i] = polyR[i-(5*N)];
     c00:	00279713          	slli	a4,a5,0x2
     c04:	00e605b3          	add	a1,a2,a4
     c08:	974a                	add	a4,a4,s2
     c0a:	9752                	add	a4,a4,s4
     c0c:	4318                	lw	a4,0(a4)
    for(i = (5*N); i < (6*N+1); ++i){
     c0e:	0785                	addi	a5,a5,1
        random_keys[i] = polyR[i-(5*N)];
     c10:	c198                	sw	a4,0(a1)
    for(i = (5*N); i < (6*N+1); ++i){
     c12:	bf19                	j	b28 <generate_keys+0x208>

00000c14 <ntru_encyrpt>:


int* ntru_encyrpt(int N, int q, int* message, int* public_key, int* polyR){
     c14:	7115                	addi	sp,sp,-224
     c16:	cda2                	sw	s0,216(sp)
     c18:	cba6                	sw	s1,212(sp)
     c1a:	c9ca                	sw	s2,208(sp)
     c1c:	842a                	mv	s0,a0
     c1e:	892e                	mv	s2,a1
     c20:	84b2                	mv	s1,a2

    int *return_address6;
    int *CT;

    int random_val[48] = { 1, -1, 0, 1, -1, 1, -1, 0,1, 1, 0, -1, 1, -1, 1, 0,1, 1, 0, -1, 1, -1, 1, 0,1, 1, 0, 1, -1, 1, -1, 0, 1, -1, 0, 1, -1, 1, -1, 0,1, 1, 0, -1, 1, -1, 1, 0};
     c22:	00000597          	auipc	a1,0x0
     c26:	46e58593          	addi	a1,a1,1134 # 1090 <_endtext>
     c2a:	0c000613          	li	a2,192
     c2e:	850a                	mv	a0,sp
int* ntru_encyrpt(int N, int q, int* message, int* public_key, int* polyR){
     c30:	cf86                	sw	ra,220(sp)
     c32:	c7ce                	sw	s3,204(sp)
     c34:	c5d2                	sw	s4,200(sp)
     c36:	89ba                	mv	s3,a4
     c38:	8a36                	mv	s4,a3
    int random_val[48] = { 1, -1, 0, 1, -1, 1, -1, 0,1, 1, 0, -1, 1, -1, 1, 0,1, 1, 0, -1, 1, -1, 1, 0,1, 1, 0, 1, -1, 1, -1, 0, 1, -1, 0, 1, -1, 1, -1, 0,1, 1, 0, -1, 1, -1, 1, 0};
     c3a:	227d                	jal	de8 <memcpy>
    int *temp;
    int i;


    temp = polymult(public_key,N,random_val,48,q,0);
     c3c:	4781                	li	a5,0
     c3e:	860a                	mv	a2,sp
     c40:	874a                	mv	a4,s2
     c42:	03000693          	li	a3,48
     c46:	85a2                	mv	a1,s0
     c48:	8552                	mv	a0,s4
     c4a:	c66ff0ef          	jal	ra,b0 <polymult>
     c4e:	4781                	li	a5,0

    /////// PUBLIC_KEY*RANDOM_VALUE ///////

    for(i = 0; i < 48; ++i){
     c50:	0c000613          	li	a2,192
        temp[i] = temp[i] + message[i];
     c54:	00f506b3          	add	a3,a0,a5
     c58:	00f485b3          	add	a1,s1,a5
     c5c:	4298                	lw	a4,0(a3)
     c5e:	418c                	lw	a1,0(a1)
     c60:	0791                	addi	a5,a5,4
     c62:	972e                	add	a4,a4,a1
     c64:	c298                	sw	a4,0(a3)
    for(i = 0; i < 48; ++i){
     c66:	fec797e3          	bne	a5,a2,c54 <ntru_encyrpt+0x40>
    }

    ////// PUBLIC_KEY*RANDOM_VALUE + MESSAGE ///////

    CT = polydiv(temp,(2*N),polyR,(N+1),q);
     c6a:	00141493          	slli	s1,s0,0x1
     c6e:	00140693          	addi	a3,s0,1
     c72:	874a                	mv	a4,s2
     c74:	864e                	mv	a2,s3
     c76:	85a6                	mv	a1,s1
     c78:	f84ff0ef          	jal	ra,3fc <polydiv>

    for(i = (2*N); i < (3*N); ++i){
     c7c:	478d                	li	a5,3
     c7e:	02f40433          	mul	s0,s0,a5
     c82:	87aa                	mv	a5,a0
     c84:	0084ca63          	blt	s1,s0,c98 <ntru_encyrpt+0x84>
    ///// YUKARIDAKI IKI ISLEM MODULO OPERASYONU YAPIYOR /////


    return_address6 = &CT[0];
    return return_address6;
}
     c88:	40fe                	lw	ra,220(sp)
     c8a:	446e                	lw	s0,216(sp)
     c8c:	44de                	lw	s1,212(sp)
     c8e:	494e                	lw	s2,208(sp)
     c90:	49be                	lw	s3,204(sp)
     c92:	4a2e                	lw	s4,200(sp)
     c94:	612d                	addi	sp,sp,224
     c96:	8082                	ret
        CT[i-(2*N)] = CT[i];
     c98:	00249713          	slli	a4,s1,0x2
     c9c:	972a                	add	a4,a4,a0
     c9e:	4318                	lw	a4,0(a4)
    for(i = (2*N); i < (3*N); ++i){
     ca0:	0485                	addi	s1,s1,1
     ca2:	0791                	addi	a5,a5,4
        CT[i-(2*N)] = CT[i];
     ca4:	fee7ae23          	sw	a4,-4(a5)
    for(i = (2*N); i < (3*N); ++i){
     ca8:	bff1                	j	c84 <ntru_encyrpt+0x70>

00000caa <ntru_deceypt>:


int* ntru_deceypt(int N, int p, int q, int* secret_key_f, int* secret_key_fp, int* Enc_Message, int* polyR){
     caa:	7179                	addi	sp,sp,-48
     cac:	d422                	sw	s0,40(sp)
     cae:	ce4e                	sw	s3,28(sp)
     cb0:	842a                	mv	s0,a0


    a2 = polydiv(a,(2*N),polyR,(N+1),q);
/////////// Vector a2 (f.e modq) /////////

    for(i = (2*N); i < ((2*N)+N); ++i){
     cb2:	498d                	li	s3,3
     cb4:	033409b3          	mul	s3,s0,s3
int* ntru_deceypt(int N, int p, int q, int* secret_key_f, int* secret_key_fp, int* Enc_Message, int* polyR){
     cb8:	d04a                	sw	s2,32(sp)
     cba:	ca56                	sw	s5,20(sp)
     cbc:	c65e                	sw	s7,12(sp)
     cbe:	8932                	mv	s2,a2
     cc0:	8536                	mv	a0,a3
    a = polymult2(secret_key_f,N,Enc_Message,N,0);
     cc2:	863e                	mv	a2,a5
     cc4:	86a2                	mv	a3,s0
int* ntru_deceypt(int N, int p, int q, int* secret_key_f, int* secret_key_fp, int* Enc_Message, int* polyR){
     cc6:	8aae                	mv	s5,a1
     cc8:	8bba                	mv	s7,a4
    a = polymult2(secret_key_f,N,Enc_Message,N,0);
     cca:	85a2                	mv	a1,s0
     ccc:	4701                	li	a4,0
int* ntru_deceypt(int N, int p, int q, int* secret_key_f, int* secret_key_fp, int* Enc_Message, int* polyR){
     cce:	d606                	sw	ra,44(sp)
     cd0:	d226                	sw	s1,36(sp)
     cd2:	cc52                	sw	s4,24(sp)
     cd4:	c85a                	sw	s6,16(sp)
     cd6:	8a42                	mv	s4,a6
    a2 = polydiv(a,(2*N),polyR,(N+1),q);
     cd8:	00141493          	slli	s1,s0,0x1
    a = polymult2(secret_key_f,N,Enc_Message,N,0);
     cdc:	db0ff0ef          	jal	ra,28c <polymult2>
    a2 = polydiv(a,(2*N),polyR,(N+1),q);
     ce0:	00140b13          	addi	s6,s0,1
     ce4:	874a                	mv	a4,s2
     ce6:	86da                	mv	a3,s6
     ce8:	8652                	mv	a2,s4
     cea:	85a6                	mv	a1,s1
     cec:	f10ff0ef          	jal	ra,3fc <polydiv>
     cf0:	862a                	mv	a2,a0
    for(i = (2*N); i < ((2*N)+N); ++i){
     cf2:	87aa                	mv	a5,a0
     cf4:	872a                	mv	a4,a0
     cf6:	86a6                	mv	a3,s1
     cf8:	0536c263          	blt	a3,s3,d3c <ntru_deceypt+0x92>
        a2[i-(2*N)] = a2[i];
    }

    //centerlifting a2
    for (i = 0; i < N; ++i){
        if(a2[i] <= q/2)
     cfc:	4589                	li	a1,2
     cfe:	02b945b3          	div	a1,s2,a1
    for (i = 0; i < N; ++i){
     d02:	4701                	li	a4,0
     d04:	04874563          	blt	a4,s0,d4e <ntru_deceypt+0xa4>
        else
            a2[i] = (-1)*(q-a2[i]);
    }


    c = polymult2(secret_key_fp,N,a2,N,0);
     d08:	4701                	li	a4,0
     d0a:	86a2                	mv	a3,s0
     d0c:	85a2                	mv	a1,s0
     d0e:	855e                	mv	a0,s7
     d10:	d7cff0ef          	jal	ra,28c <polymult2>
/////////"Vector c(fp*a2)//////////


    c2 = polydiv(c,(2*N),polyR,(N+1),p);
     d14:	8756                	mv	a4,s5
     d16:	86da                	mv	a3,s6
     d18:	8652                	mv	a2,s4
     d1a:	85a6                	mv	a1,s1
     d1c:	ee0ff0ef          	jal	ra,3fc <polydiv>
    for(i = (2*N); i < ((2*N)+N); ++i){
     d20:	87aa                	mv	a5,a0
     d22:	0334cf63          	blt	s1,s3,d60 <ntru_deceypt+0xb6>
    }
    ////////"Vector c2 (decrypted message)/////////

    return_address7 = &c2[0];
    return return_address7;
}
     d26:	50b2                	lw	ra,44(sp)
     d28:	5422                	lw	s0,40(sp)
     d2a:	5492                	lw	s1,36(sp)
     d2c:	5902                	lw	s2,32(sp)
     d2e:	49f2                	lw	s3,28(sp)
     d30:	4a62                	lw	s4,24(sp)
     d32:	4ad2                	lw	s5,20(sp)
     d34:	4b42                	lw	s6,16(sp)
     d36:	4bb2                	lw	s7,12(sp)
     d38:	6145                	addi	sp,sp,48
     d3a:	8082                	ret
        a2[i-(2*N)] = a2[i];
     d3c:	00269593          	slli	a1,a3,0x2
     d40:	95b2                	add	a1,a1,a2
     d42:	418c                	lw	a1,0(a1)
    for(i = (2*N); i < ((2*N)+N); ++i){
     d44:	0685                	addi	a3,a3,1
     d46:	0711                	addi	a4,a4,4
        a2[i-(2*N)] = a2[i];
     d48:	feb72e23          	sw	a1,-4(a4)
    for(i = (2*N); i < ((2*N)+N); ++i){
     d4c:	b775                	j	cf8 <ntru_deceypt+0x4e>
        if(a2[i] <= q/2)
     d4e:	4394                	lw	a3,0(a5)
     d50:	00d5d563          	bge	a1,a3,d5a <ntru_deceypt+0xb0>
            a2[i] = (-1)*(q-a2[i]);
     d54:	412686b3          	sub	a3,a3,s2
     d58:	c394                	sw	a3,0(a5)
    for (i = 0; i < N; ++i){
     d5a:	0705                	addi	a4,a4,1
     d5c:	0791                	addi	a5,a5,4
     d5e:	b75d                	j	d04 <ntru_deceypt+0x5a>
        c2[i-(2*N)] = c2[i];
     d60:	00249713          	slli	a4,s1,0x2
     d64:	972a                	add	a4,a4,a0
     d66:	4318                	lw	a4,0(a4)
    for(i = (2*N); i < ((2*N)+N); ++i){
     d68:	0485                	addi	s1,s1,1
     d6a:	0791                	addi	a5,a5,4
        c2[i-(2*N)] = c2[i];
     d6c:	fee7ae23          	sw	a4,-4(a5)
    for(i = (2*N); i < ((2*N)+N); ++i){
     d70:	bf4d                	j	d22 <ntru_deceypt+0x78>

00000d72 <default_exc_handler>:
  jal x0, default_exc_handler
     d72:	0000006f          	j	d72 <default_exc_handler>

00000d76 <reset_handler>:
  mv  x1, x0
     d76:	00000093          	li	ra,0
  mv  x2, x1
     d7a:	8106                	mv	sp,ra
  mv  x3, x1
     d7c:	8186                	mv	gp,ra
  mv  x4, x1
     d7e:	8206                	mv	tp,ra
  mv  x5, x1
     d80:	8286                	mv	t0,ra
  mv  x6, x1
     d82:	8306                	mv	t1,ra
  mv  x7, x1
     d84:	8386                	mv	t2,ra
  mv  x8, x1
     d86:	8406                	mv	s0,ra
  mv  x9, x1
     d88:	8486                	mv	s1,ra
  mv x10, x1
     d8a:	8506                	mv	a0,ra
  mv x11, x1
     d8c:	8586                	mv	a1,ra
  mv x12, x1
     d8e:	8606                	mv	a2,ra
  mv x13, x1
     d90:	8686                	mv	a3,ra
  mv x14, x1
     d92:	8706                	mv	a4,ra
  mv x15, x1
     d94:	8786                	mv	a5,ra
  mv x16, x1
     d96:	8806                	mv	a6,ra
  mv x17, x1
     d98:	8886                	mv	a7,ra
  mv x18, x1
     d9a:	8906                	mv	s2,ra
  mv x19, x1
     d9c:	8986                	mv	s3,ra
  mv x20, x1
     d9e:	8a06                	mv	s4,ra
  mv x21, x1
     da0:	8a86                	mv	s5,ra
  mv x22, x1
     da2:	8b06                	mv	s6,ra
  mv x23, x1
     da4:	8b86                	mv	s7,ra
  mv x24, x1
     da6:	8c06                	mv	s8,ra
  mv x25, x1
     da8:	8c86                	mv	s9,ra
  mv x26, x1
     daa:	8d06                	mv	s10,ra
  mv x27, x1
     dac:	8d86                	mv	s11,ra
  mv x28, x1
     dae:	8e06                	mv	t3,ra
  mv x29, x1
     db0:	8e86                	mv	t4,ra
  mv x30, x1
     db2:	8f06                	mv	t5,ra
  mv x31, x1
     db4:	8f86                	mv	t6,ra
  la   x2, _stack_start
     db6:	0000f117          	auipc	sp,0xf
     dba:	24a10113          	addi	sp,sp,586 # 10000 <_stack_start>

00000dbe <_start>:
  la x26, _bss_start
     dbe:	00000d17          	auipc	s10,0x0
     dc2:	456d0d13          	addi	s10,s10,1110 # 1214 <_bss_start>
  la x27, _bss_end
     dc6:	00001d97          	auipc	s11,0x1
     dca:	1e2d8d93          	addi	s11,s11,482 # 1fa8 <_bss_end>
  bge x26, x27, zero_loop_end
     dce:	01bd5763          	bge	s10,s11,ddc <main_entry>

00000dd2 <zero_loop>:
  sw x0, 0(x26)
     dd2:	000d2023          	sw	zero,0(s10)
  addi x26, x26, 4
     dd6:	0d11                	addi	s10,s10,4
  ble x26, x27, zero_loop
     dd8:	ffaddde3          	bge	s11,s10,dd2 <zero_loop>

00000ddc <main_entry>:
  addi x10, x0, 0
     ddc:	00000513          	li	a0,0
  addi x11, x0, 0
     de0:	00000593          	li	a1,0
  jal x1, main
     de4:	18a000ef          	jal	ra,f6e <main>

00000de8 <memcpy>:
     de8:	00a5c7b3          	xor	a5,a1,a0
     dec:	8b8d                	andi	a5,a5,3
     dee:	00c508b3          	add	a7,a0,a2
     df2:	e7a1                	bnez	a5,e3a <memcpy+0x52>
     df4:	478d                	li	a5,3
     df6:	04c7f263          	bgeu	a5,a2,e3a <memcpy+0x52>
     dfa:	00357793          	andi	a5,a0,3
     dfe:	872a                	mv	a4,a0
     e00:	eba9                	bnez	a5,e52 <memcpy+0x6a>
     e02:	ffc8f613          	andi	a2,a7,-4
     e06:	fe060793          	addi	a5,a2,-32
     e0a:	06f76763          	bltu	a4,a5,e78 <memcpy+0x90>
     e0e:	02c77363          	bgeu	a4,a2,e34 <memcpy+0x4c>
     e12:	86ae                	mv	a3,a1
     e14:	87ba                	mv	a5,a4
     e16:	0006a803          	lw	a6,0(a3)
     e1a:	0791                	addi	a5,a5,4
     e1c:	0691                	addi	a3,a3,4
     e1e:	ff07ae23          	sw	a6,-4(a5)
     e22:	fec7eae3          	bltu	a5,a2,e16 <memcpy+0x2e>
     e26:	fff60793          	addi	a5,a2,-1
     e2a:	8f99                	sub	a5,a5,a4
     e2c:	9bf1                	andi	a5,a5,-4
     e2e:	0791                	addi	a5,a5,4
     e30:	973e                	add	a4,a4,a5
     e32:	95be                	add	a1,a1,a5
     e34:	01176663          	bltu	a4,a7,e40 <memcpy+0x58>
     e38:	8082                	ret
     e3a:	872a                	mv	a4,a0
     e3c:	ff157ee3          	bgeu	a0,a7,e38 <memcpy+0x50>
     e40:	0005c783          	lbu	a5,0(a1)
     e44:	0705                	addi	a4,a4,1
     e46:	0585                	addi	a1,a1,1
     e48:	fef70fa3          	sb	a5,-1(a4)
     e4c:	ff176ae3          	bltu	a4,a7,e40 <memcpy+0x58>
     e50:	8082                	ret
     e52:	0005c683          	lbu	a3,0(a1)
     e56:	0705                	addi	a4,a4,1
     e58:	00377793          	andi	a5,a4,3
     e5c:	fed70fa3          	sb	a3,-1(a4)
     e60:	0585                	addi	a1,a1,1
     e62:	d3c5                	beqz	a5,e02 <memcpy+0x1a>
     e64:	0005c683          	lbu	a3,0(a1)
     e68:	0705                	addi	a4,a4,1
     e6a:	00377793          	andi	a5,a4,3
     e6e:	fed70fa3          	sb	a3,-1(a4)
     e72:	0585                	addi	a1,a1,1
     e74:	fff9                	bnez	a5,e52 <memcpy+0x6a>
     e76:	b771                	j	e02 <memcpy+0x1a>
     e78:	41d4                	lw	a3,4(a1)
     e7a:	0005a283          	lw	t0,0(a1)
     e7e:	0085af83          	lw	t6,8(a1)
     e82:	00c5af03          	lw	t5,12(a1)
     e86:	0105ae83          	lw	t4,16(a1)
     e8a:	0145ae03          	lw	t3,20(a1)
     e8e:	0185a303          	lw	t1,24(a1)
     e92:	01c5a803          	lw	a6,28(a1)
     e96:	c354                	sw	a3,4(a4)
     e98:	5194                	lw	a3,32(a1)
     e9a:	00572023          	sw	t0,0(a4)
     e9e:	01f72423          	sw	t6,8(a4)
     ea2:	01e72623          	sw	t5,12(a4)
     ea6:	01d72823          	sw	t4,16(a4)
     eaa:	01c72a23          	sw	t3,20(a4)
     eae:	00672c23          	sw	t1,24(a4)
     eb2:	01072e23          	sw	a6,28(a4)
     eb6:	d314                	sw	a3,32(a4)
     eb8:	02470713          	addi	a4,a4,36
     ebc:	02458593          	addi	a1,a1,36
     ec0:	faf76ce3          	bltu	a4,a5,e78 <memcpy+0x90>
     ec4:	b7a9                	j	e0e <memcpy+0x26>

00000ec6 <memset>:
     ec6:	433d                	li	t1,15
     ec8:	872a                	mv	a4,a0
     eca:	02c37363          	bgeu	t1,a2,ef0 <memset+0x2a>
     ece:	00f77793          	andi	a5,a4,15
     ed2:	efbd                	bnez	a5,f50 <memset+0x8a>
     ed4:	e5ad                	bnez	a1,f3e <memset+0x78>
     ed6:	ff067693          	andi	a3,a2,-16
     eda:	8a3d                	andi	a2,a2,15
     edc:	96ba                	add	a3,a3,a4
     ede:	c30c                	sw	a1,0(a4)
     ee0:	c34c                	sw	a1,4(a4)
     ee2:	c70c                	sw	a1,8(a4)
     ee4:	c74c                	sw	a1,12(a4)
     ee6:	0741                	addi	a4,a4,16
     ee8:	fed76be3          	bltu	a4,a3,ede <memset+0x18>
     eec:	e211                	bnez	a2,ef0 <memset+0x2a>
     eee:	8082                	ret
     ef0:	40c306b3          	sub	a3,t1,a2
     ef4:	068a                	slli	a3,a3,0x2
     ef6:	00000297          	auipc	t0,0x0
     efa:	9696                	add	a3,a3,t0
     efc:	00a68067          	jr	10(a3)
     f00:	00b70723          	sb	a1,14(a4)
     f04:	00b706a3          	sb	a1,13(a4)
     f08:	00b70623          	sb	a1,12(a4)
     f0c:	00b705a3          	sb	a1,11(a4)
     f10:	00b70523          	sb	a1,10(a4)
     f14:	00b704a3          	sb	a1,9(a4)
     f18:	00b70423          	sb	a1,8(a4)
     f1c:	00b703a3          	sb	a1,7(a4)
     f20:	00b70323          	sb	a1,6(a4)
     f24:	00b702a3          	sb	a1,5(a4)
     f28:	00b70223          	sb	a1,4(a4)
     f2c:	00b701a3          	sb	a1,3(a4)
     f30:	00b70123          	sb	a1,2(a4)
     f34:	00b700a3          	sb	a1,1(a4)
     f38:	00b70023          	sb	a1,0(a4)
     f3c:	8082                	ret
     f3e:	0ff5f593          	andi	a1,a1,255
     f42:	00859693          	slli	a3,a1,0x8
     f46:	8dd5                	or	a1,a1,a3
     f48:	01059693          	slli	a3,a1,0x10
     f4c:	8dd5                	or	a1,a1,a3
     f4e:	b761                	j	ed6 <memset+0x10>
     f50:	00279693          	slli	a3,a5,0x2
     f54:	00000297          	auipc	t0,0x0
     f58:	9696                	add	a3,a3,t0
     f5a:	8286                	mv	t0,ra
     f5c:	fa8680e7          	jalr	-88(a3)
     f60:	8096                	mv	ra,t0
     f62:	17c1                	addi	a5,a5,-16
     f64:	8f1d                	sub	a4,a4,a5
     f66:	963e                	add	a2,a2,a5
     f68:	f8c374e3          	bgeu	t1,a2,ef0 <memset+0x2a>
     f6c:	b7a5                	j	ed4 <memset+0xe>

00000f6e <main>:

int main(){
     f6e:	bd010113          	addi	sp,sp,-1072
    int* keys;
    int N = 53;
    int p = 3;
    int q = 101;

    int message[48] = {1, 1, 2, 1, 1, 1, 1, 2,1, 1, 0, 1, 1, 2, 1, 0,1, 2, 0, 1, 1, 1, 1, 0,1, 1, 0, 2, 1, 2, 1, 0, 1, 1, 2, 1, 1, 1, 1, 2, 1, 1, 2, 1, 1, 1, 1, 2};
     f72:	0c000613          	li	a2,192
     f76:	00000597          	auipc	a1,0x0
     f7a:	1da58593          	addi	a1,a1,474 # 1150 <_endtext+0xc0>
     f7e:	0068                	addi	a0,sp,12
int main(){
     f80:	42112623          	sw	ra,1068(sp)
     f84:	42812423          	sw	s0,1064(sp)
    int message[48] = {1, 1, 2, 1, 1, 1, 1, 2,1, 1, 0, 1, 1, 2, 1, 0,1, 2, 0, 1, 1, 1, 1, 0,1, 1, 0, 2, 1, 2, 1, 0, 1, 1, 2, 1, 1, 1, 1, 2, 1, 1, 2, 1, 1, 1, 1, 2};
     f88:	3585                	jal	de8 <memcpy>

    // Alice generates public key from her randomly created secret keys.
  //  printf("\nKEY GENERATION STARTED \n");

 //   start = clock();
    keys = generate_keys(N, p, q);
     f8a:	06500613          	li	a2,101
     f8e:	458d                	li	a1,3
     f90:	03500513          	li	a0,53
     f94:	3271                	jal	920 <generate_keys>
     f96:	4781                	li	a5,0


   // printf("Secret Key f = ");
    for(i = 0; i < N; ++i){
     f98:	0d400713          	li	a4,212
  //      printf(" %d ", keys[i]);
        secret_key_f[i] = keys[i];
     f9c:	00f506b3          	add	a3,a0,a5
     fa0:	4290                	lw	a2,0(a3)
     fa2:	1314                	addi	a3,sp,416
     fa4:	96be                	add	a3,a3,a5
     fa6:	c290                	sw	a2,0(a3)
    for(i = 0; i < N; ++i){
     fa8:	0791                	addi	a5,a5,4
     faa:	fee799e3          	bne	a5,a4,f9c <main+0x2e>
    }
  //  printf("\n");

 //   printf("Secret Key g = ");
    for(i = N; i < (2*N); ++i){
     fae:	1cd8                	addi	a4,sp,628
     fb0:	1a850793          	addi	a5,a0,424
     fb4:	27c50693          	addi	a3,a0,636
     fb8:	843a                	mv	s0,a4
  //  printf("\n");

  //  printf("Secret Key fp = ");
    for(i = (2*N); i < (3*N); ++i){
  //      printf(" %d ", keys[i]);
        secret_key_fp[i-(2*N)] = keys[i];
     fba:	4390                	lw	a2,0(a5)
     fbc:	0791                	addi	a5,a5,4
     fbe:	0711                	addi	a4,a4,4
     fc0:	fec72e23          	sw	a2,-4(a4)
    for(i = (2*N); i < (3*N); ++i){
     fc4:	fed79be3          	bne	a5,a3,fba <main+0x4c>
    }
  //  printf("\n");

 //   printf("Secret Key fq = ");
    for(i = (3*N); i < (4*N); ++i){
     fc8:	01f8                	addi	a4,sp,204
     fca:	35050793          	addi	a5,a0,848
     fce:	42450613          	addi	a2,a0,1060
     fd2:	86ba                	mv	a3,a4
 //   printf("\n");

//    printf("Public Key h = ");
    for(i = (4*N); i < (5*N); ++i){
//        printf(" %d ", keys[i]);
        public_key[i-(4*N)] = keys[i];
     fd4:	438c                	lw	a1,0(a5)
     fd6:	0791                	addi	a5,a5,4
     fd8:	0711                	addi	a4,a4,4
     fda:	feb72e23          	sw	a1,-4(a4)
    for(i = (4*N); i < (5*N); ++i){
     fde:	fec79be3          	bne	a5,a2,fd4 <main+0x66>
     fe2:	06b0                	addi	a2,sp,840
     fe4:	4fc50513          	addi	a0,a0,1276
     fe8:	8832                	mv	a6,a2
 //   printf("\n");

 //   printf("Ring Poly = ");
    for(i = (5*N); i < (6*N+1); ++i){
  //      printf(" %d ", keys[i]);
        ring_poly[i-(5*N)] = keys[i];
     fea:	4398                	lw	a4,0(a5)
     fec:	0791                	addi	a5,a5,4
     fee:	0611                	addi	a2,a2,4
     ff0:	fee62e23          	sw	a4,-4(a2)
    for(i = (5*N); i < (6*N+1); ++i){
     ff4:	fea79be3          	bne	a5,a0,fea <main+0x7c>
    }
 //   printf("\nKEY GENERATION FINISHED \n");

    // Bob encrypts message using Alice's public key and sends it to Alice.
  //  printf("\nENCRYPTION STARTED\n");
    Enc_Message = ntru_encyrpt(N, q, message, public_key, ring_poly);
     ff8:	8742                	mv	a4,a6
     ffa:	0070                	addi	a2,sp,12
     ffc:	06500593          	li	a1,101
    1000:	03500513          	li	a0,53
    1004:	3901                	jal	c14 <ntru_encyrpt>
    1006:	87aa                	mv	a5,a0
 //   }
//    printf("\nENCRYPTION FINISHED\n");

    // Alice decrypts the message using her secret keys.
 //   printf("\nDECRYPTION STARTED\n");
    Dec_Message = ntru_deceypt(N, p, q, secret_key_f, secret_key_fp, Enc_Message, ring_poly);
    1008:	34810813          	addi	a6,sp,840
    100c:	8722                	mv	a4,s0
    100e:	06500613          	li	a2,101
    1012:	1314                	addi	a3,sp,416
    1014:	458d                	li	a1,3
    1016:	03500513          	li	a0,53
    101a:	3941                	jal	caa <ntru_deceypt>
            resultkon[0] = 0xBABABABA;
 	    *var = resultkon[0];
            break;	}
        else{
  //          printf("*OPERATION SUCCCESSFUL*\n");
            resultkon[0] = 0xDEDEDEDE;
    101c:	dedee637          	lui	a2,0xdedee
    Dec_Message = ntru_deceypt(N, p, q, secret_key_f, secret_key_fp, Enc_Message, ring_poly);
    1020:	4781                	li	a5,0
    1022:	00001717          	auipc	a4,0x1
    1026:	f8270713          	addi	a4,a4,-126 # 1fa4 <resultkon>
            resultkon[0] = 0xDEDEDEDE;
    102a:	ede60613          	addi	a2,a2,-290 # dededede <_stack_start+0xdedddede>
	    *var = resultkon[0];
    102e:	68c1                	lui	a7,0x10
    for(i = 0; i < 32; ++i){
    1030:	08000813          	li	a6,128
        if(!(message[i] == Dec_Message[i])){
    1034:	006c                	addi	a1,sp,12
    1036:	00f506b3          	add	a3,a0,a5
    103a:	95be                	add	a1,a1,a5
    103c:	418c                	lw	a1,0(a1)
    103e:	4294                	lw	a3,0(a3)
    1040:	02d58563          	beq	a1,a3,106a <main+0xfc>
            resultkon[0] = 0xBABABABA;
    1044:	babac7b7          	lui	a5,0xbabac
    1048:	aba78793          	addi	a5,a5,-1350 # babababa <_stack_start+0xbab9baba>
    104c:	c31c                	sw	a5,0(a4)
 	    *var = resultkon[0];
    104e:	431c                	lw	a5,0(a4)
    1050:	6741                	lui	a4,0x10
    1052:	0ff7f793          	andi	a5,a5,255
    1056:	fef70fa3          	sb	a5,-1(a4) # ffff <_stack+0x1fff>
    //printf("RESULT = %d\n",resultkon[0]);
   // printf("Time Result = %f clocks\n",cpu_time_used);


    return 0;
}
    105a:	42c12083          	lw	ra,1068(sp)
    105e:	42812403          	lw	s0,1064(sp)
    1062:	4501                	li	a0,0
    1064:	43010113          	addi	sp,sp,1072
    1068:	8082                	ret
            resultkon[0] = 0xDEDEDEDE;
    106a:	c310                	sw	a2,0(a4)
	    *var = resultkon[0];
    106c:	4314                	lw	a3,0(a4)
    106e:	0791                	addi	a5,a5,4
    1070:	0ff6f693          	andi	a3,a3,255
    1074:	fed88fa3          	sb	a3,-1(a7) # ffff <_stack+0x1fff>
    for(i = 0; i < 32; ++i){
    1078:	fb079ee3          	bne	a5,a6,1034 <main+0xc6>
    107c:	bff9                	j	105a <main+0xec>

0000107e <__CTOR_LIST__>:
	...

00001086 <__CTOR_END__>:
	...

0000108e <__DTOR_END__>:
	...
