
array.elf:     file format elf32-littleriscv


Disassembly of section .vectors:

00000000 <_stack_start-0x10000>:
  // external interrupts are handled by the same callback
  // until compiler supports IRQ routines
  .org 0x00
  .rept 31
  nop
  .endr
   0:	00000013          	nop
   4:	00000013          	nop
   8:	00000013          	nop
   c:	00000013          	nop
  10:	00000013          	nop
  14:	00000013          	nop
  18:	00000013          	nop
  1c:	00000013          	nop
  20:	00000013          	nop
  24:	00000013          	nop
  28:	00000013          	nop
  2c:	00000013          	nop
  30:	00000013          	nop
  34:	00000013          	nop
  38:	00000013          	nop
  3c:	00000013          	nop
  40:	00000013          	nop
  44:	00000013          	nop
  48:	00000013          	nop
  4c:	00000013          	nop
  50:	00000013          	nop
  54:	00000013          	nop
  58:	00000013          	nop
  5c:	00000013          	nop
  60:	00000013          	nop
  64:	00000013          	nop
  68:	00000013          	nop
  6c:	00000013          	nop
  70:	00000013          	nop
  74:	00000013          	nop
  78:	00000013          	nop
  jal x0, default_exc_handler
  7c:	0100006f          	j	8c <_stext>

  // reset vector
  .org 0x80
  jal x0, reset_handler
  80:	0100006f          	j	90 <reset_handler>

  // illegal instruction exception
  .org 0x84
  jal x0, default_exc_handler
  84:	0080006f          	j	8c <_stext>

  // ecall handler
  .org 0x88
  jal x0, default_exc_handler
  88:	0040006f          	j	8c <_stext>

Disassembly of section .text:

0000008c <_stext>:
  jal x0, default_exc_handler
  8c:	0000006f          	j	8c <_stext>

00000090 <reset_handler>:
  mv  x1, x0
  90:	00000093          	li	ra,0
  mv  x2, x1
  94:	8106                	mv	sp,ra
  mv  x3, x1
  96:	8186                	mv	gp,ra
  mv  x4, x1
  98:	8206                	mv	tp,ra
  mv  x5, x1
  9a:	8286                	mv	t0,ra
  mv  x6, x1
  9c:	8306                	mv	t1,ra
  mv  x7, x1
  9e:	8386                	mv	t2,ra
  mv  x8, x1
  a0:	8406                	mv	s0,ra
  mv  x9, x1
  a2:	8486                	mv	s1,ra
  mv x10, x1
  a4:	8506                	mv	a0,ra
  mv x11, x1
  a6:	8586                	mv	a1,ra
  mv x12, x1
  a8:	8606                	mv	a2,ra
  mv x13, x1
  aa:	8686                	mv	a3,ra
  mv x14, x1
  ac:	8706                	mv	a4,ra
  mv x15, x1
  ae:	8786                	mv	a5,ra
  mv x16, x1
  b0:	8806                	mv	a6,ra
  mv x17, x1
  b2:	8886                	mv	a7,ra
  mv x18, x1
  b4:	8906                	mv	s2,ra
  mv x19, x1
  b6:	8986                	mv	s3,ra
  mv x20, x1
  b8:	8a06                	mv	s4,ra
  mv x21, x1
  ba:	8a86                	mv	s5,ra
  mv x22, x1
  bc:	8b06                	mv	s6,ra
  mv x23, x1
  be:	8b86                	mv	s7,ra
  mv x24, x1
  c0:	8c06                	mv	s8,ra
  mv x25, x1
  c2:	8c86                	mv	s9,ra
  mv x26, x1
  c4:	8d06                	mv	s10,ra
  mv x27, x1
  c6:	8d86                	mv	s11,ra
  mv x28, x1
  c8:	8e06                	mv	t3,ra
  mv x29, x1
  ca:	8e86                	mv	t4,ra
  mv x30, x1
  cc:	8f06                	mv	t5,ra
  mv x31, x1
  ce:	8f86                	mv	t6,ra
  la   x2, _stack_start
  d0:	00010117          	auipc	sp,0x10
  d4:	f3010113          	addi	sp,sp,-208 # 10000 <_stack_start>

000000d8 <_start>:
  la x26, _bss_start
  d8:	15c00d13          	li	s10,348
  la x27, _bss_end
  dc:	17000d93          	li	s11,368
  bge x26, x27, zero_loop_end
  e0:	01bd5763          	bge	s10,s11,ee <main_entry>

000000e4 <zero_loop>:
  sw x0, 0(x26)
  e4:	000d2023          	sw	zero,0(s10)
  addi x26, x26, 4
  e8:	0d11                	addi	s10,s10,4
  ble x26, x27, zero_loop
  ea:	ffaddde3          	bge	s11,s10,e4 <zero_loop>

000000ee <main_entry>:
  addi x10, x0, 0
  ee:	00000513          	li	a0,0
  addi x11, x0, 0
  f2:	00000593          	li	a1,0
  jal x1, main
  f6:	004000ef          	jal	ra,fa <main>

000000fa <main>:
unsigned int array1[5] = {1,2,3,4,5};
unsigned int array2[5] = {2,4,6,8,10};
unsigned int array3[5];


int main() {
  fa:	4781                	li	a5,0
// ama arraylerin hepsini register'larda tutmak istemiyorum aslında çünkü çok yer tutuyorlar!
// ideal olan şey iki array'in başlangıç adresini gönderip sonuç arrayinin başlangıç adresini de sonuç olarak göndermek olurdu!

for(int i=0;i<5;i++){

*var = array1[i]+array2[i];
  fc:	13400813          	li	a6,308
 100:	14800513          	li	a0,328
 104:	6631                	lui	a2,0xc
for(int i=0;i<5;i++){
 106:	46d1                	li	a3,20
*var = array1[i]+array2[i];
 108:	00f80733          	add	a4,a6,a5
 10c:	00f505b3          	add	a1,a0,a5
 110:	4318                	lw	a4,0(a4)
 112:	418c                	lw	a1,0(a1)
 114:	0791                	addi	a5,a5,4
 116:	972e                	add	a4,a4,a1
 118:	ca18                	sw	a4,16(a2)
for(int i=0;i<5;i++){
 11a:	fed797e3          	bne	a5,a3,108 <main+0xe>

}

return 0;
}
 11e:	4501                	li	a0,0
 120:	8082                	ret

00000122 <__CTOR_LIST__>:
	...

0000012a <__CTOR_END__>:
	...

00000132 <__DTOR_END__>:
	...
