
NTRU_48_bitM.elf:     file format elf32-littleriscv


Disassembly of section .vectors:

00000000 <_stack_start-0x10000>:
  // external interrupts are handled by the same callback
  // until compiler supports IRQ routines
  .org 0x00
  .rept 31
  nop
  .endr
   0:	00000013          	nop
   4:	00000013          	nop
   8:	00000013          	nop
   c:	00000013          	nop
  10:	00000013          	nop
  14:	00000013          	nop
  18:	00000013          	nop
  1c:	00000013          	nop
  20:	00000013          	nop
  24:	00000013          	nop
  28:	00000013          	nop
  2c:	00000013          	nop
  30:	00000013          	nop
  34:	00000013          	nop
  38:	00000013          	nop
  3c:	00000013          	nop
  40:	00000013          	nop
  44:	00000013          	nop
  48:	00000013          	nop
  4c:	00000013          	nop
  50:	00000013          	nop
  54:	00000013          	nop
  58:	00000013          	nop
  5c:	00000013          	nop
  60:	00000013          	nop
  64:	00000013          	nop
  68:	00000013          	nop
  6c:	00000013          	nop
  70:	00000013          	nop
  74:	00000013          	nop
  78:	00000013          	nop
  jal x0, default_exc_handler
  7c:	4af0006f          	j	d2a <default_exc_handler>

  // reset vector
  .org 0x80
  jal x0, reset_handler
  80:	4af0006f          	j	d2e <reset_handler>

  // illegal instruction exception
  .org 0x84
  jal x0, default_exc_handler
  84:	4a70006f          	j	d2a <default_exc_handler>

  // ecall handler
  .org 0x88
  jal x0, default_exc_handler
  88:	4a30006f          	j	d2a <default_exc_handler>

Disassembly of section .text:

0000008c <instr_equ>:

//static unsigned int *a0;

//not: bu instructionda işleme girecek arraylerin boyutlarının eşit ve önceden bilindiği varsayılmaktadır...

    asm volatile(
      8c:	0ab5750b          	0xab5750b
    : "r"(&a1[0]), "r"(&a2[0])			// a1 ve a2 variable'ları compiler tarafından uygun register'lara atılacak

    );
    return;

}
      90:	8082                	ret

00000092 <array_equ>:
void array_equ(int *a1,int *a2,int length) {
int i = 0;
    switch(length%3) {
      92:	470d                	li	a4,3
      94:	02e667b3          	rem	a5,a2,a4
      98:	4685                	li	a3,1
      9a:	02d78d63          	beq	a5,a3,d4 <array_equ+0x42>
      9e:	4689                	li	a3,2
      a0:	00d78963          	beq	a5,a3,b2 <array_equ+0x20>
      a4:	e7b1                	bnez	a5,f0 <array_equ+0x5e>

        case 0:
            for (i = 0; i < (length / 3); i++) {
      a6:	02e64633          	div	a2,a2,a4
      aa:	4831                	li	a6,12
      ac:	04c7c363          	blt	a5,a2,f2 <array_equ+0x60>
      b0:	8082                	ret
                instr_equ((unsigned int*)&a1[3 * i],(unsigned int*) &a2[3*i]);
            }
            a1[length-1] = a2[length-1];
	    break;
        case 2:
            for (i = 0; i < ((length-2) / 3); i++) {
      b2:	ffe60693          	addi	a3,a2,-2
      b6:	02e6c6b3          	div	a3,a3,a4
      ba:	4781                	li	a5,0
      bc:	48b1                	li	a7,12
      be:	04d7cc63          	blt	a5,a3,116 <array_equ+0x84>
                instr_equ((unsigned int*)&a1[3 * i],(unsigned int*) &a2[3*i]);
            }
            a1[length-1] = a2[length-1];
      c2:	060a                	slli	a2,a2,0x2
      c4:	1671                	addi	a2,a2,-4
      c6:	00c587b3          	add	a5,a1,a2
      ca:	4398                	lw	a4,0(a5)
      cc:	00c507b3          	add	a5,a0,a2
      d0:	c398                	sw	a4,0(a5)
      d2:	a811                	j	e6 <array_equ+0x54>
            for (i = 0; i < ((length-1) / 3); i++) {
      d4:	fff60693          	addi	a3,a2,-1
      d8:	02e6c6b3          	div	a3,a3,a4
      dc:	4781                	li	a5,0
      de:	48b1                	li	a7,12
      e0:	02d7c263          	blt	a5,a3,104 <array_equ+0x72>
            a1[length-1] = a2[length-1];
      e4:	060a                	slli	a2,a2,0x2
            a1[length-2] = a2[length-2];
      e6:	1671                	addi	a2,a2,-4
      e8:	95b2                	add	a1,a1,a2
      ea:	419c                	lw	a5,0(a1)
      ec:	962a                	add	a2,a2,a0
      ee:	c21c                	sw	a5,0(a2)
	    break;
    } //end of switch case
} //end of function
      f0:	8082                	ret
                instr_equ((unsigned int*)&a1[3 * i],(unsigned int*) &a2[3*i]);
      f2:	03078733          	mul	a4,a5,a6
    asm volatile(
      f6:	00e506b3          	add	a3,a0,a4
      fa:	972e                	add	a4,a4,a1
      fc:	0ae6f70b          	0xae6f70b
            for (i = 0; i < (length / 3); i++) {
     100:	0785                	addi	a5,a5,1
     102:	b76d                	j	ac <array_equ+0x1a>
                instr_equ((unsigned int*)&a1[3 * i],(unsigned int*) &a2[3*i]);
     104:	03178733          	mul	a4,a5,a7
    asm volatile(
     108:	00e50833          	add	a6,a0,a4
     10c:	972e                	add	a4,a4,a1
     10e:	0ae8770b          	0xae8770b
            for (i = 0; i < ((length-1) / 3); i++) {
     112:	0785                	addi	a5,a5,1
     114:	b7f1                	j	e0 <array_equ+0x4e>
                instr_equ((unsigned int*)&a1[3 * i],(unsigned int*) &a2[3*i]);
     116:	03178733          	mul	a4,a5,a7
    asm volatile(
     11a:	00e50833          	add	a6,a0,a4
     11e:	972e                	add	a4,a4,a1
     120:	0ae8770b          	0xae8770b
            for (i = 0; i < ((length-2) / 3); i++) {
     124:	0785                	addi	a5,a5,1
     126:	bf61                	j	be <array_equ+0x2c>

00000128 <instr_mod>:

void instr_mod(unsigned int *a1, unsigned int mod) {

    asm volatile(
     128:	0cb5750b          	0xcb5750b
    : "=r"(&a1[0])				 // designation register => a0 variable'ına atılacak
    : "r"(&a1[0]), "r"(mod)			// a1 ve a2 variable'ları compiler tarafından uygun register'lara atılacak

    );
    return;
}
     12c:	8082                	ret

0000012e <array_mod>:
    ////// bu kod arrayin uzunlugunu ücüncü instruction operand olarak gonderemedigimiz icin var. //////////
    ////// üc sayisi custom modülün dondürdügü eleman sayisindan geliyor. bizim ebob'umuz 3 oldugu icin 3 secildi./////
    ///// ebob(54(N+1),105(N+N-1)) = 3
int i = 0;

    switch(length%3) {
     12e:	470d                	li	a4,3
     130:	02e667b3          	rem	a5,a2,a4
     134:	4685                	li	a3,1
     136:	02d78d63          	beq	a5,a3,170 <array_mod+0x42>
     13a:	4689                	li	a3,2
     13c:	00d78963          	beq	a5,a3,14e <array_mod+0x20>
     140:	e7b9                	bnez	a5,18e <array_mod+0x60>

        case 0:
            for (i = 0; i < (length / 3); i++) {
     142:	02e64633          	div	a2,a2,a4
    asm volatile(
     146:	46b1                	li	a3,12
            for (i = 0; i < (length / 3); i++) {
     148:	04c7c463          	blt	a5,a2,190 <array_mod+0x62>
     14c:	8082                	ret
                instr_mod((unsigned int *) &a1[3 * i], (unsigned int) mod);
            }
            a1[length-1] = a1[length-1] % mod;
	    break;
        case 2:
            for (i = 0; i < ((length-2) / 3); i++) {
     14e:	ffe60693          	addi	a3,a2,-2
     152:	02e6c6b3          	div	a3,a3,a4
     156:	4781                	li	a5,0
    asm volatile(
     158:	4831                	li	a6,12
            for (i = 0; i < ((length-2) / 3); i++) {
     15a:	04d7c963          	blt	a5,a3,1ac <array_mod+0x7e>
                instr_mod((unsigned int *) &a1[3 * i], (unsigned int) mod);
            }
            a1[length-1] = a1[length-1] % mod;
     15e:	060a                	slli	a2,a2,0x2
     160:	1671                	addi	a2,a2,-4
     162:	00c50733          	add	a4,a0,a2
     166:	431c                	lw	a5,0(a4)
     168:	02b7e7b3          	rem	a5,a5,a1
     16c:	c31c                	sw	a5,0(a4)
     16e:	a811                	j	182 <array_mod+0x54>
            for (i = 0; i < ((length-1) / 3); i++) {
     170:	fff60693          	addi	a3,a2,-1
     174:	02e6c6b3          	div	a3,a3,a4
     178:	4781                	li	a5,0
    asm volatile(
     17a:	4831                	li	a6,12
            for (i = 0; i < ((length-1) / 3); i++) {
     17c:	02d7c163          	blt	a5,a3,19e <array_mod+0x70>
            a1[length-1] = a1[length-1] % mod;
     180:	060a                	slli	a2,a2,0x2
            a1[length-2] = a1[length-2] % mod;
     182:	1671                	addi	a2,a2,-4
     184:	962a                	add	a2,a2,a0
     186:	421c                	lw	a5,0(a2)
     188:	02b7e5b3          	rem	a1,a5,a1
     18c:	c20c                	sw	a1,0(a2)
	    break;
    } //end of switch case
} //end of function
     18e:	8082                	ret
    asm volatile(
     190:	02d78733          	mul	a4,a5,a3
     194:	972a                	add	a4,a4,a0
     196:	0cb7770b          	0xcb7770b
            for (i = 0; i < (length / 3); i++) {
     19a:	0785                	addi	a5,a5,1
     19c:	b775                	j	148 <array_mod+0x1a>
    asm volatile(
     19e:	03078733          	mul	a4,a5,a6
     1a2:	972a                	add	a4,a4,a0
     1a4:	0cb7770b          	0xcb7770b
            for (i = 0; i < ((length-1) / 3); i++) {
     1a8:	0785                	addi	a5,a5,1
     1aa:	bfc9                	j	17c <array_mod+0x4e>
    asm volatile(
     1ac:	03078733          	mul	a4,a5,a6
     1b0:	972a                	add	a4,a4,a0
     1b2:	0cb7770b          	0xcb7770b
            for (i = 0; i < ((length-2) / 3); i++) {
     1b6:	0785                	addi	a5,a5,1
     1b8:	b74d                	j	15a <array_mod+0x2c>

000001ba <polymult>:


/////////////////////////////////////////////////


int *polymult(int *a, int size_a, int *b, int size_b, int mod, int star_mult){
     1ba:	715d                	addi	sp,sp,-80
     1bc:	c0ca                	sw	s2,64(sp)
     1be:	8936                	mv	s2,a3
     1c0:	de4e                	sw	s3,60(sp)


    int line[size_b][size_a + size_b];
     1c2:	96ae                	add	a3,a3,a1
     1c4:	00291993          	slli	s3,s2,0x2
int *polymult(int *a, int size_a, int *b, int size_b, int mod, int star_mult){
     1c8:	d462                	sw	s8,40(sp)
     1ca:	d266                	sw	s9,36(sp)
    int line[size_b][size_a + size_b];
     1cc:	00269c13          	slli	s8,a3,0x2
     1d0:	fff68c93          	addi	s9,a3,-1
     1d4:	033686b3          	mul	a3,a3,s3
int *polymult(int *a, int size_a, int *b, int size_b, int mod, int star_mult){
     1d8:	dc52                	sw	s4,56(sp)
     1da:	8a3a                	mv	s4,a4
    int i,j,k;
    int *return_address1;
    int pola[size_a];
     1dc:	00259713          	slli	a4,a1,0x2
int *polymult(int *a, int size_a, int *b, int size_b, int mod, int star_mult){
     1e0:	c4a2                	sw	s0,72(sp)
     1e2:	c2a6                	sw	s1,68(sp)
     1e4:	da56                	sw	s5,52(sp)
     1e6:	d85a                	sw	s6,48(sp)
     1e8:	d65e                	sw	s7,44(sp)
     1ea:	d06a                	sw	s10,32(sp)
    int line[size_b][size_a + size_b];
     1ec:	06bd                	addi	a3,a3,15
int *polymult(int *a, int size_a, int *b, int size_b, int mod, int star_mult){
     1ee:	ce6e                	sw	s11,28(sp)
     1f0:	c686                	sw	ra,76(sp)
     1f2:	0880                	addi	s0,sp,80
    int line[size_b][size_a + size_b];
     1f4:	9ac1                	andi	a3,a3,-16
    int pola[size_a];
     1f6:	073d                	addi	a4,a4,15
     1f8:	9b41                	andi	a4,a4,-16
    int line[size_b][size_a + size_b];
     1fa:	40d10133          	sub	sp,sp,a3
     1fe:	8b8a                	mv	s7,sp
    int pola[size_a];
     200:	40e10133          	sub	sp,sp,a4
    int polb[size_b];
     204:	00f98713          	addi	a4,s3,15
     208:	9b41                	andi	a4,a4,-16
    int pola[size_a];
     20a:	8d8a                	mv	s11,sp
    int polb[size_b];
     20c:	40e10133          	sub	sp,sp,a4
int *polymult(int *a, int size_a, int *b, int size_b, int mod, int star_mult){
     210:	8aae                	mv	s5,a1
    int pola[size_a];
     212:	fff58693          	addi	a3,a1,-1
int *polymult(int *a, int size_a, int *b, int size_b, int mod, int star_mult){
     216:	8832                	mv	a6,a2
    int line[size_b][size_a + size_b];
     218:	fff90b13          	addi	s6,s2,-1
    int polb[size_b];
     21c:	848a                	mv	s1,sp

    //make all line vectors zero
    for (i = 0; i < size_b; ++i){
        for(j = 0; j < size_a + size_b -1; ++j){
            line[i][j] = 0;
     21e:	002c5d13          	srli	s10,s8,0x2
     222:	875e                	mv	a4,s7
    for (i = 0; i < size_b; ++i){
     224:	88de                	mv	a7,s7
     226:	4581                	li	a1,0
            product[j] = 0;
     228:	00001e97          	auipc	t4,0x1
     22c:	fcce8e93          	addi	t4,t4,-52 # 11f4 <_bss_start>
    for (i = 0; i < size_b; ++i){
     230:	0725cc63          	blt	a1,s2,2a8 <polymult+0xee>
//        while (pola[i] < 0){
//            pola[i] = pola[i] + mod;
//        }
//        pola[i] = pola[i] % mod;
//    }
    array_equ(pola,a,size_a);
     234:	85aa                	mv	a1,a0
     236:	8656                	mv	a2,s5
     238:	856e                	mv	a0,s11
     23a:	faf42823          	sw	a5,-80(s0)
     23e:	fae42c23          	sw	a4,-72(s0)
     242:	fad42e23          	sw	a3,-68(s0)
     246:	fb042a23          	sw	a6,-76(s0)
     24a:	35a1                	jal	92 <array_equ>
    array_mod(pola,mod,size_a);
     24c:	8656                	mv	a2,s5
     24e:	85d2                	mv	a1,s4
     250:	856e                	mv	a0,s11
     252:	3df1                	jal	12e <array_mod>
//        while (polb[i] < 0){
//            polb[i] = polb[i] + mod;
//        }
//        polb[i] = polb[i] % mod;
//    }
    array_equ(polb,b,size_b);
     254:	fb442803          	lw	a6,-76(s0)
     258:	8526                	mv	a0,s1
     25a:	864a                	mv	a2,s2
     25c:	85c2                	mv	a1,a6
     25e:	3d15                	jal	92 <array_equ>
    array_mod(polb,mod,size_b);
     260:	864a                	mv	a2,s2
     262:	8526                	mv	a0,s1
     264:	85d2                	mv	a1,s4
     266:	35e1                	jal	12e <array_mod>


    // make calculations for partial products, if need add mod calculations
    if(star_mult == 1){
     268:	fb042783          	lw	a5,-80(s0)
     26c:	4605                	li	a2,1
     26e:	fbc42683          	lw	a3,-68(s0)
     272:	fb842703          	lw	a4,-72(s0)
     276:	94ce                	add	s1,s1,s3
     278:	02c78b63          	beq	a5,a2,2ae <polymult+0xf4>
     27c:	19f1                	addi	s3,s3,-4
     27e:	ffcc0593          	addi	a1,s8,-4
     282:	99de                	add	s3,s3,s7
                line[size_b-1-j][k] = pola[k]*polb[j];
            }
        }
    }
    else{
        for (j = size_b -1; j >= 0; j = j-1){
     284:	020b4863          	bltz	s6,2b4 <polymult+0xfa>
            for (k = size_a-1; k >= 0; k = k-1 ){
     288:	87b6                	mv	a5,a3
     28a:	a85d                	j	340 <polymult+0x186>
            product[j] = 0;
     28c:	00261e13          	slli	t3,a2,0x2
     290:	9e76                	add	t3,t3,t4
            line[i][j] = 0;
     292:	00032023          	sw	zero,0(t1)
            product[j] = 0;
     296:	000e2023          	sw	zero,0(t3)
        for(j = 0; j < size_a + size_b -1; ++j){
     29a:	0605                	addi	a2,a2,1
     29c:	0311                	addi	t1,t1,4
     29e:	ff9647e3          	blt	a2,s9,28c <polymult+0xd2>
    for (i = 0; i < size_b; ++i){
     2a2:	0585                	addi	a1,a1,1
     2a4:	98e2                	add	a7,a7,s8
     2a6:	b769                	j	230 <polymult+0x76>
     2a8:	8346                	mv	t1,a7
        for(j = 0; j < size_a + size_b -1; ++j){
     2aa:	4601                	li	a2,0
     2ac:	bfcd                	j	29e <polymult+0xe4>
    if(star_mult == 1){
     2ae:	85de                	mv	a1,s7
        for (j = size_b -1; j >= 0; j = j-1){
     2b0:	060b5a63          	bgez	s6,324 <polymult+0x16a>
        }
    }

    //mod calculations
    for (i = 0; i < size_b; ++i){
        for(j = 0; j < size_a + size_b -1; ++j){
     2b4:	4681                	li	a3,0
    for (i = 0; i < size_b; ++i){
     2b6:	0b26c763          	blt	a3,s2,364 <polymult+0x1aa>
     2ba:	00001697          	auipc	a3,0x1
     2be:	f3a68693          	addi	a3,a3,-198 # 11f4 <_bss_start>
            line[i][j] = line[i][j] % mod;
        }
    }

    // construct product
    for(j = 0; j < size_a + size_b -1; ++j){
     2c2:	4701                	li	a4,0
     2c4:	0d974263          	blt	a4,s9,388 <polymult+0x1ce>
//    //mod calculations
//    for(j = 0; j < size_a + size_b -1; ++j){
//        product[j] = product[j] % mod;
//    }

    array_mod(product,mod,(size_a+size_b-1));
     2c8:	8666                	mv	a2,s9
     2ca:	85d2                	mv	a1,s4
     2cc:	00001517          	auipc	a0,0x1
     2d0:	f2850513          	addi	a0,a0,-216 # 11f4 <_bss_start>
     2d4:	3da9                	jal	12e <array_mod>

    return_address1 = &product[0];

    return return_address1;
}
     2d6:	fb040113          	addi	sp,s0,-80
     2da:	40b6                	lw	ra,76(sp)
     2dc:	4426                	lw	s0,72(sp)
     2de:	4496                	lw	s1,68(sp)
     2e0:	4906                	lw	s2,64(sp)
     2e2:	59f2                	lw	s3,60(sp)
     2e4:	5a62                	lw	s4,56(sp)
     2e6:	5ad2                	lw	s5,52(sp)
     2e8:	5b42                	lw	s6,48(sp)
     2ea:	5bb2                	lw	s7,44(sp)
     2ec:	5c22                	lw	s8,40(sp)
     2ee:	5c92                	lw	s9,36(sp)
     2f0:	5d02                	lw	s10,32(sp)
     2f2:	4df2                	lw	s11,28(sp)
     2f4:	00001517          	auipc	a0,0x1
     2f8:	f0050513          	addi	a0,a0,-256 # 11f4 <_bss_start>
     2fc:	6161                	addi	sp,sp,80
     2fe:	8082                	ret
                line[size_b-1-j][k] = pola[k]*polb[j];
     300:	00279613          	slli	a2,a5,0x2
     304:	00c58533          	add	a0,a1,a2
     308:	966e                	add	a2,a2,s11
     30a:	4210                	lw	a2,0(a2)
     30c:	ffc4a803          	lw	a6,-4(s1)
            for (k = size_a-1; k >= 0; k = k-1 ){
     310:	17fd                	addi	a5,a5,-1
                line[size_b-1-j][k] = pola[k]*polb[j];
     312:	03060633          	mul	a2,a2,a6
     316:	c110                	sw	a2,0(a0)
            for (k = size_a-1; k >= 0; k = k-1 ){
     318:	fe07d4e3          	bgez	a5,300 <polymult+0x146>
        for (j = size_b -1; j >= 0; j = j-1){
     31c:	1b7d                	addi	s6,s6,-1
     31e:	14f1                	addi	s1,s1,-4
     320:	95e2                	add	a1,a1,s8
     322:	b779                	j	2b0 <polymult+0xf6>
            for (k = size_a-1; k >= 0; k = k-1 ){
     324:	87b6                	mv	a5,a3
     326:	bfcd                	j	318 <polymult+0x15e>
                line[size_b-1-j][k + j] = pola[k]*polb[j];
     328:	00279613          	slli	a2,a5,0x2
     32c:	00c98533          	add	a0,s3,a2
     330:	966e                	add	a2,a2,s11
     332:	4210                	lw	a2,0(a2)
     334:	ffc4a803          	lw	a6,-4(s1)
            for (k = size_a-1; k >= 0; k = k-1 ){
     338:	17fd                	addi	a5,a5,-1
                line[size_b-1-j][k + j] = pola[k]*polb[j];
     33a:	03060633          	mul	a2,a2,a6
     33e:	c110                	sw	a2,0(a0)
            for (k = size_a-1; k >= 0; k = k-1 ){
     340:	fe07d4e3          	bgez	a5,328 <polymult+0x16e>
        for (j = size_b -1; j >= 0; j = j-1){
     344:	1b7d                	addi	s6,s6,-1
     346:	14f1                	addi	s1,s1,-4
     348:	99ae                	add	s3,s3,a1
     34a:	bf2d                	j	284 <polymult+0xca>
            line[i][j] = line[i][j] % mod;
     34c:	438c                	lw	a1,0(a5)
        for(j = 0; j < size_a + size_b -1; ++j){
     34e:	0605                	addi	a2,a2,1
     350:	0791                	addi	a5,a5,4
            line[i][j] = line[i][j] % mod;
     352:	0345e5b3          	rem	a1,a1,s4
     356:	feb7ae23          	sw	a1,-4(a5)
        for(j = 0; j < size_a + size_b -1; ++j){
     35a:	ff9649e3          	blt	a2,s9,34c <polymult+0x192>
    for (i = 0; i < size_b; ++i){
     35e:	0685                	addi	a3,a3,1
     360:	9762                	add	a4,a4,s8
     362:	bf91                	j	2b6 <polymult+0xfc>
     364:	87ba                	mv	a5,a4
        for(j = 0; j < size_a + size_b -1; ++j){
     366:	4601                	li	a2,0
     368:	bfcd                	j	35a <polymult+0x1a0>
            product[j] += line[i][j];
     36a:	03a607b3          	mul	a5,a2,s10
     36e:	428c                	lw	a1,0(a3)
        for(i = 0; i < size_b; ++i){
     370:	0605                	addi	a2,a2,1
            product[j] += line[i][j];
     372:	97ba                	add	a5,a5,a4
     374:	078a                	slli	a5,a5,0x2
     376:	97de                	add	a5,a5,s7
     378:	439c                	lw	a5,0(a5)
     37a:	97ae                	add	a5,a5,a1
     37c:	c29c                	sw	a5,0(a3)
        for(i = 0; i < size_b; ++i){
     37e:	ff2646e3          	blt	a2,s2,36a <polymult+0x1b0>
    for(j = 0; j < size_a + size_b -1; ++j){
     382:	0705                	addi	a4,a4,1
     384:	0691                	addi	a3,a3,4
     386:	bf3d                	j	2c4 <polymult+0x10a>
        for(i = 0; i < size_b; ++i){
     388:	4601                	li	a2,0
     38a:	bfd5                	j	37e <polymult+0x1c4>

0000038c <polymult2>:

int *polymult2(int *a, int size_a, int *b, int size_b, int star_mult){
     38c:	715d                	addi	sp,sp,-80

    int line[size_b][size_a + size_b];
     38e:	00d587b3          	add	a5,a1,a3
int *polymult2(int *a, int size_a, int *b, int size_b, int star_mult){
     392:	da56                	sw	s5,52(sp)
     394:	00269a93          	slli	s5,a3,0x2
     398:	d85a                	sw	s6,48(sp)
     39a:	d65e                	sw	s7,44(sp)
    int line[size_b][size_a + size_b];
     39c:	00279b13          	slli	s6,a5,0x2
     3a0:	fff78b93          	addi	s7,a5,-1
     3a4:	035787b3          	mul	a5,a5,s5
int *polymult2(int *a, int size_a, int *b, int size_b, int star_mult){
     3a8:	c4a2                	sw	s0,72(sp)
     3aa:	c2a6                	sw	s1,68(sp)
     3ac:	c0ca                	sw	s2,64(sp)
     3ae:	de4e                	sw	s3,60(sp)
     3b0:	dc52                	sw	s4,56(sp)
     3b2:	d462                	sw	s8,40(sp)
     3b4:	d266                	sw	s9,36(sp)
     3b6:	d06a                	sw	s10,32(sp)
     3b8:	ce6e                	sw	s11,28(sp)
    int line[size_b][size_a + size_b];
     3ba:	07bd                	addi	a5,a5,15
int *polymult2(int *a, int size_a, int *b, int size_b, int star_mult){
     3bc:	c686                	sw	ra,76(sp)
     3be:	0880                	addi	s0,sp,80
    int line[size_b][size_a + size_b];
     3c0:	9bc1                	andi	a5,a5,-16
     3c2:	40f10133          	sub	sp,sp,a5
    int i,j,k;
    int *return_address2;
    int pola[size_a];
     3c6:	00259793          	slli	a5,a1,0x2
     3ca:	07bd                	addi	a5,a5,15
     3cc:	9bc1                	andi	a5,a5,-16
    int line[size_b][size_a + size_b];
     3ce:	890a                	mv	s2,sp
    int pola[size_a];
     3d0:	40f10133          	sub	sp,sp,a5
    int polb[size_b];
     3d4:	00fa8793          	addi	a5,s5,15
     3d8:	9bc1                	andi	a5,a5,-16
    int pola[size_a];
     3da:	8d0a                	mv	s10,sp
    int polb[size_b];
     3dc:	40f10133          	sub	sp,sp,a5
int *polymult2(int *a, int size_a, int *b, int size_b, int star_mult){
     3e0:	89b6                	mv	s3,a3
     3e2:	8dba                	mv	s11,a4
    int line[size_b][size_a + size_b];
     3e4:	fff68a13          	addi	s4,a3,-1
int *polymult2(int *a, int size_a, int *b, int size_b, int star_mult){
     3e8:	8832                	mv	a6,a2
    int pola[size_a];
     3ea:	fff58c13          	addi	s8,a1,-1
    int polb[size_b];
     3ee:	848a                	mv	s1,sp

    //make all line vectors zero
    for (i = 0; i < size_b; ++i){
     3f0:	8cca                	mv	s9,s2
     3f2:	86ca                	mv	a3,s2
     3f4:	4701                	li	a4,0
        for(j = 0; j < size_a + size_b -1; ++j){
            line[i][j] = 0;
            product2[j] = 0;
     3f6:	00001317          	auipc	t1,0x1
     3fa:	05630313          	addi	t1,t1,86 # 144c <product2>
    for (i = 0; i < size_b; ++i){
     3fe:	05374963          	blt	a4,s3,450 <polymult2+0xc4>

//    for(i = 0; i < size_a; ++i){
//        pola[i] = a[i];
//    }

    array_equ(pola,a,size_a);
     402:	862e                	mv	a2,a1
     404:	85aa                	mv	a1,a0
     406:	856a                	mv	a0,s10
     408:	fb042e23          	sw	a6,-68(s0)
     40c:	3159                	jal	92 <array_equ>

//    for(i = 0; i < size_b; ++i){
//        polb[i] = b[i];
//    }

    array_equ(polb,b,size_b);
     40e:	fbc42803          	lw	a6,-68(s0)
     412:	8526                	mv	a0,s1
     414:	864e                	mv	a2,s3
     416:	85c2                	mv	a1,a6
     418:	39ad                	jal	92 <array_equ>

    // make calculations for partial products, if need add mod calculations
    if(star_mult == 1){
     41a:	4785                	li	a5,1
     41c:	01548533          	add	a0,s1,s5
     420:	04fd8c63          	beq	s11,a5,478 <polymult2+0xec>
     424:	1af1                	addi	s5,s5,-4
     426:	ffcb0693          	addi	a3,s6,-4
     42a:	9956                	add	s2,s2,s5
                line[size_b-1-j][k] = pola[k]*polb[j];
            }
        }
    }
    else{
        for (j = size_b -1; j >= 0; j = j-1){
     42c:	040a4863          	bltz	s4,47c <polymult2+0xf0>
            for (k = size_a-1; k >= 0; k = k-1 ){
     430:	87e2                	mv	a5,s8
     432:	a8ad                	j	4ac <polymult2+0x120>
            product2[j] = 0;
     434:	00279893          	slli	a7,a5,0x2
     438:	989a                	add	a7,a7,t1
            line[i][j] = 0;
     43a:	00062023          	sw	zero,0(a2)
            product2[j] = 0;
     43e:	0008a023          	sw	zero,0(a7)
        for(j = 0; j < size_a + size_b -1; ++j){
     442:	0785                	addi	a5,a5,1
     444:	0611                	addi	a2,a2,4
     446:	ff77c7e3          	blt	a5,s7,434 <polymult2+0xa8>
    for (i = 0; i < size_b; ++i){
     44a:	0705                	addi	a4,a4,1
     44c:	96da                	add	a3,a3,s6
     44e:	bf45                	j	3fe <polymult2+0x72>
     450:	8636                	mv	a2,a3
        for(j = 0; j < size_a + size_b -1; ++j){
     452:	4781                	li	a5,0
     454:	bfcd                	j	446 <polymult2+0xba>
                line[size_b-1-j][k] = pola[k]*polb[j];
     456:	00279713          	slli	a4,a5,0x2
     45a:	00e906b3          	add	a3,s2,a4
     45e:	976a                	add	a4,a4,s10
     460:	4318                	lw	a4,0(a4)
     462:	ffc52603          	lw	a2,-4(a0)
            for (k = size_a-1; k >= 0; k = k-1 ){
     466:	17fd                	addi	a5,a5,-1
                line[size_b-1-j][k] = pola[k]*polb[j];
     468:	02c70733          	mul	a4,a4,a2
     46c:	c298                	sw	a4,0(a3)
            for (k = size_a-1; k >= 0; k = k-1 ){
     46e:	fe07d4e3          	bgez	a5,456 <polymult2+0xca>
        for (j = size_b -1; j >= 0; j = j-1){
     472:	1a7d                	addi	s4,s4,-1
     474:	1571                	addi	a0,a0,-4
     476:	995a                	add	s2,s2,s6
     478:	000a5c63          	bgez	s4,490 <polymult2+0x104>
        }
    }

    // construct product
    for(i=0;i<size_b;++i){
        for(j=0;j<size_a+size_b-1;++j){
     47c:	4601                	li	a2,0
    for(i=0;i<size_b;++i){
     47e:	05365a63          	bge	a2,s3,4d2 <polymult2+0x146>
     482:	00001797          	auipc	a5,0x1
     486:	fca78793          	addi	a5,a5,-54 # 144c <product2>
     48a:	86e6                	mv	a3,s9
        for(j=0;j<size_a+size_b-1;++j){
     48c:	4701                	li	a4,0
     48e:	a82d                	j	4c8 <polymult2+0x13c>
            for (k = size_a-1; k >= 0; k = k-1 ){
     490:	87e2                	mv	a5,s8
     492:	bff1                	j	46e <polymult2+0xe2>
                line[size_b-1-j][k + j] = pola[k]*polb[j];
     494:	00279713          	slli	a4,a5,0x2
     498:	00e90633          	add	a2,s2,a4
     49c:	976a                	add	a4,a4,s10
     49e:	4318                	lw	a4,0(a4)
     4a0:	ffc52583          	lw	a1,-4(a0)
            for (k = size_a-1; k >= 0; k = k-1 ){
     4a4:	17fd                	addi	a5,a5,-1
                line[size_b-1-j][k + j] = pola[k]*polb[j];
     4a6:	02b70733          	mul	a4,a4,a1
     4aa:	c218                	sw	a4,0(a2)
            for (k = size_a-1; k >= 0; k = k-1 ){
     4ac:	fe07d4e3          	bgez	a5,494 <polymult2+0x108>
        for (j = size_b -1; j >= 0; j = j-1){
     4b0:	1a7d                	addi	s4,s4,-1
     4b2:	1571                	addi	a0,a0,-4
     4b4:	9936                	add	s2,s2,a3
     4b6:	bf9d                	j	42c <polymult2+0xa0>
            product2[j] += line[i][j];
     4b8:	438c                	lw	a1,0(a5)
     4ba:	4288                	lw	a0,0(a3)
        for(j=0;j<size_a+size_b-1;++j){
     4bc:	0705                	addi	a4,a4,1
     4be:	0791                	addi	a5,a5,4
            product2[j] += line[i][j];
     4c0:	95aa                	add	a1,a1,a0
     4c2:	feb7ae23          	sw	a1,-4(a5)
        for(j=0;j<size_a+size_b-1;++j){
     4c6:	0691                	addi	a3,a3,4
     4c8:	ff7748e3          	blt	a4,s7,4b8 <polymult2+0x12c>
    for(i=0;i<size_b;++i){
     4cc:	0605                	addi	a2,a2,1
     4ce:	9cda                	add	s9,s9,s6
     4d0:	b77d                	j	47e <polymult2+0xf2>
    }

    return_address2 = &product2[0];

    return return_address2;
}
     4d2:	fb040113          	addi	sp,s0,-80
     4d6:	40b6                	lw	ra,76(sp)
     4d8:	4426                	lw	s0,72(sp)
     4da:	4496                	lw	s1,68(sp)
     4dc:	4906                	lw	s2,64(sp)
     4de:	59f2                	lw	s3,60(sp)
     4e0:	5a62                	lw	s4,56(sp)
     4e2:	5ad2                	lw	s5,52(sp)
     4e4:	5b42                	lw	s6,48(sp)
     4e6:	5bb2                	lw	s7,44(sp)
     4e8:	5c22                	lw	s8,40(sp)
     4ea:	5c92                	lw	s9,36(sp)
     4ec:	5d02                	lw	s10,32(sp)
     4ee:	4df2                	lw	s11,28(sp)
     4f0:	00001517          	auipc	a0,0x1
     4f4:	f5c50513          	addi	a0,a0,-164 # 144c <product2>
     4f8:	6161                	addi	sp,sp,80
     4fa:	8082                	ret

000004fc <polydiv>:
int *polydiv(int *num, int size_N, int*denum, int size_D, int mod){

    int u,d,d2,i,b_N,r_d;
    int *return_address3;

    int v[size_N];
     4fc:	00259793          	slli	a5,a1,0x2
int *polydiv(int *num, int size_N, int*denum, int size_D, int mod){
     500:	7139                	addi	sp,sp,-64
    int v[size_N];
     502:	07bd                	addi	a5,a5,15
int *polydiv(int *num, int size_N, int*denum, int size_D, int mod){
     504:	de06                	sw	ra,60(sp)
     506:	dc22                	sw	s0,56(sp)
     508:	da26                	sw	s1,52(sp)
     50a:	0080                	addi	s0,sp,64
     50c:	d84a                	sw	s2,48(sp)
     50e:	d64e                	sw	s3,44(sp)
     510:	d452                	sw	s4,40(sp)
     512:	d256                	sw	s5,36(sp)
     514:	d05a                	sw	s6,32(sp)
     516:	ce5e                	sw	s7,28(sp)
     518:	cc62                	sw	s8,24(sp)
     51a:	ca66                	sw	s9,20(sp)
     51c:	c86a                	sw	s10,16(sp)
    int v[size_N];
     51e:	9bc1                	andi	a5,a5,-16
int *polydiv(int *num, int size_N, int*denum, int size_D, int mod){
     520:	c66e                	sw	s11,12(sp)
    int v[size_N];
     522:	40f10133          	sub	sp,sp,a5
     526:	8b0a                	mv	s6,sp
    int q[size_N];
     528:	40f10133          	sub	sp,sp,a5
     52c:	8b8a                	mv	s7,sp
    int *product;
    int num_temp[size_N];
     52e:	40f10133          	sub	sp,sp,a5
    int denum_temp[size_D];
     532:	00269793          	slli	a5,a3,0x2
     536:	07bd                	addi	a5,a5,15
     538:	9bc1                	andi	a5,a5,-16
    int num_temp[size_N];
     53a:	890a                	mv	s2,sp
int *polydiv(int *num, int size_N, int*denum, int size_D, int mod){
     53c:	84ae                	mv	s1,a1
    int denum_temp[size_D];
     53e:	40f10133          	sub	sp,sp,a5
int *polydiv(int *num, int size_N, int*denum, int size_D, int mod){
     542:	8c32                	mv	s8,a2
    int v[size_N];
     544:	fff58d13          	addi	s10,a1,-1
//            num_temp[i] = num_temp[i] + mod;
//        }
//        num_temp[i] = num_temp[i] % mod;
//    }

       array_equ(num_temp,num,size_N);
     548:	862e                	mv	a2,a1
     54a:	85aa                	mv	a1,a0
     54c:	854a                	mv	a0,s2
int *polydiv(int *num, int size_N, int*denum, int size_D, int mod){
     54e:	8a36                	mv	s4,a3
     550:	89ba                	mv	s3,a4
    int denum_temp[size_D];
     552:	fff68a93          	addi	s5,a3,-1
       array_equ(num_temp,num,size_N);
     556:	3e35                	jal	92 <array_equ>

       array_mod(num_temp, mod, size_N);
     558:	8626                	mv	a2,s1
     55a:	85ce                	mv	a1,s3
     55c:	854a                	mv	a0,s2
     55e:	3ec1                	jal	12e <array_mod>
    int denum_temp[size_D];
     560:	8c8a                	mv	s9,sp
//        }
//        denum_temp[i] = denum_temp[i] % mod;
//    }

    
    array_equ(denum_temp,denum,size_D);
     562:	8652                	mv	a2,s4
     564:	85e2                	mv	a1,s8
     566:	8566                	mv	a0,s9
     568:	362d                	jal	92 <array_equ>
    
    array_mod(denum_temp,mod,size_D);
     56a:	8652                	mv	a2,s4
     56c:	85ce                	mv	a1,s3
     56e:	8566                	mv	a0,s9
     570:	3e7d                	jal	12e <array_mod>

    for (i = 0; i < size_N; ++i){
     572:	4781                	li	a5,0
     574:	0097cf63          	blt	a5,s1,592 <polydiv+0x96>
        q[i] = 0;
        v[i] = 0;
    }

    //find b_N (denum) and degree denum
    for (i = size_D-1; i >= 0; i = i-1){
     578:	002a9793          	slli	a5,s5,0x2
     57c:	97e6                	add	a5,a5,s9
     57e:	4398                	lw	a4,0(a5)
     580:	020ad463          	bgez	s5,5a8 <polydiv+0xac>
    for (i = 0; i < size_N; ++i){
     584:	4781                	li	a5,0
     586:	4c01                	li	s8,0
    d2 = i; //f'in derecesi
    b_N = denum_temp[i];

    // Set u := (b_N)^–1 mod p (denum) //
    for (u = 0; u < mod; ++u){
        if ( (b_N*u)%mod == 1 )
     588:	4685                	li	a3,1
    for (u = 0; u < mod; ++u){
     58a:	033c4263          	blt	s8,s3,5ae <polydiv+0xb2>
     58e:	87ea                	mv	a5,s10
     590:	a805                	j	5c0 <polydiv+0xc4>
        q[i] = 0;
     592:	00279713          	slli	a4,a5,0x2
     596:	00eb86b3          	add	a3,s7,a4
        v[i] = 0;
     59a:	975a                	add	a4,a4,s6
        q[i] = 0;
     59c:	0006a023          	sw	zero,0(a3)
        v[i] = 0;
     5a0:	00072023          	sw	zero,0(a4)
    for (i = 0; i < size_N; ++i){
     5a4:	0785                	addi	a5,a5,1
     5a6:	b7f9                	j	574 <polydiv+0x78>
        if( denum_temp[i] != 0 )
     5a8:	ff71                	bnez	a4,584 <polydiv+0x88>
    for (i = size_D-1; i >= 0; i = i-1){
     5aa:	1afd                	addi	s5,s5,-1
     5ac:	b7f1                	j	578 <polydiv+0x7c>
        if ( (b_N*u)%mod == 1 )
     5ae:	0337e633          	rem	a2,a5,s3
     5b2:	97ba                	add	a5,a5,a4
     5b4:	fcd60de3          	beq	a2,a3,58e <polydiv+0x92>
    for (u = 0; u < mod; ++u){
     5b8:	0c05                	addi	s8,s8,1
     5ba:	bfc1                	j	58a <polydiv+0x8e>
            break;
    }

    // find degree num and r_d
    for (i = size_N-1; i >= 0; i = i-1){
        if( num_temp[i] != 0 )
     5bc:	eb01                	bnez	a4,5cc <polydiv+0xd0>
    for (i = size_N-1; i >= 0; i = i-1){
     5be:	17fd                	addi	a5,a5,-1
     5c0:	00279713          	slli	a4,a5,0x2
     5c4:	974a                	add	a4,a4,s2
     5c6:	4318                	lw	a4,0(a4)
     5c8:	fe07dae3          	bgez	a5,5bc <polydiv+0xc0>

    //printf("\nSİL-3\n");
    //printf("\nd2 = %d, d = %d\n",d2,d);

    // While-1 deg num >= deg denum do
    while (d >= d2){
     5cc:	0557d663          	bge	a5,s5,618 <polydiv+0x11c>

//    for(i = 0; i < size_N; ++i){
//        result[i] = q[i];
//    }
    
    array_equ(result,q,size_N);
     5d0:	8626                	mv	a2,s1
     5d2:	85de                	mv	a1,s7
     5d4:	00001517          	auipc	a0,0x1
     5d8:	0d050513          	addi	a0,a0,208 # 16a4 <result>
     5dc:	3c5d                	jal	92 <array_equ>
    


    for(i = size_N; i < (2*size_N); ++i){
     5de:	00149713          	slli	a4,s1,0x1
        result[i] = num_temp[i-size_N];
     5e2:	00001697          	auipc	a3,0x1
     5e6:	0c268693          	addi	a3,a3,194 # 16a4 <result>
    for(i = size_N; i < (2*size_N); ++i){
     5ea:	0ce4c863          	blt	s1,a4,6ba <polydiv+0x1be>
    }

    return_address3 = &result[0];

    return return_address3;
}
     5ee:	fc040113          	addi	sp,s0,-64
     5f2:	50f2                	lw	ra,60(sp)
     5f4:	5462                	lw	s0,56(sp)
     5f6:	54d2                	lw	s1,52(sp)
     5f8:	5942                	lw	s2,48(sp)
     5fa:	59b2                	lw	s3,44(sp)
     5fc:	5a22                	lw	s4,40(sp)
     5fe:	5a92                	lw	s5,36(sp)
     600:	5b02                	lw	s6,32(sp)
     602:	4bf2                	lw	s7,28(sp)
     604:	4c62                	lw	s8,24(sp)
     606:	4cd2                	lw	s9,20(sp)
     608:	4d42                	lw	s10,16(sp)
     60a:	4db2                	lw	s11,12(sp)
     60c:	00001517          	auipc	a0,0x1
     610:	09850513          	addi	a0,a0,152 # 16a4 <result>
     614:	6121                	addi	sp,sp,64
     616:	8082                	ret
        v[(d-d2)] = u*r_d;
     618:	03870733          	mul	a4,a4,s8
     61c:	415787b3          	sub	a5,a5,s5
     620:	078a                	slli	a5,a5,0x2
     622:	97da                	add	a5,a5,s6
        array_mod(v, mod, size_N);
     624:	8626                	mv	a2,s1
     626:	85ce                	mv	a1,s3
     628:	855a                	mv	a0,s6
        v[(d-d2)] = u*r_d;
     62a:	c398                	sw	a4,0(a5)
        array_mod(v, mod, size_N);
     62c:	3609                	jal	12e <array_mod>
        product = polymult(denum_temp,size_D,v,size_D,mod,0);
     62e:	4781                	li	a5,0
     630:	874e                	mv	a4,s3
     632:	86d2                	mv	a3,s4
     634:	865a                	mv	a2,s6
     636:	85d2                	mv	a1,s4
     638:	8566                	mv	a0,s9
     63a:	3641                	jal	1ba <polymult>
        array_mod(product, mod, size_N);
     63c:	8626                	mv	a2,s1
     63e:	85ce                	mv	a1,s3
        product = polymult(denum_temp,size_D,v,size_D,mod,0);
     640:	8daa                	mv	s11,a0
        array_mod(product, mod, size_N);
     642:	34f5                	jal	12e <array_mod>
        for (i = 0; i < size_N; ++i){
     644:	874a                	mv	a4,s2
     646:	4781                	li	a5,0
     648:	0297c763          	blt	a5,s1,676 <polydiv+0x17a>
	array_mod(num_temp, mod, size_N);
     64c:	8626                	mv	a2,s1
     64e:	85ce                	mv	a1,s3
     650:	854a                	mv	a0,s2
     652:	3cf1                	jal	12e <array_mod>
        for(i = 0; i < size_N; ++i){
     654:	875e                	mv	a4,s7
     656:	4781                	li	a5,0
     658:	0297ca63          	blt	a5,s1,68c <polydiv+0x190>
        array_mod(q, mod, size_N);
     65c:	8626                	mv	a2,s1
     65e:	85ce                	mv	a1,s3
     660:	855e                	mv	a0,s7
     662:	34f1                	jal	12e <array_mod>
        for (i = size_N-1; i >= 0; i = i-1){
     664:	87ea                	mv	a5,s10
     666:	00279713          	slli	a4,a5,0x2
     66a:	974a                	add	a4,a4,s2
     66c:	4318                	lw	a4,0(a4)
     66e:	0207da63          	bgez	a5,6a2 <polydiv+0x1a6>
     672:	4681                	li	a3,0
     674:	a081                	j	6b4 <polydiv+0x1b8>
            num_temp[i] = num_temp[i] - product[i];
     676:	00279613          	slli	a2,a5,0x2
     67a:	966e                	add	a2,a2,s11
     67c:	4314                	lw	a3,0(a4)
     67e:	4210                	lw	a2,0(a2)
        for (i = 0; i < size_N; ++i){
     680:	0785                	addi	a5,a5,1
     682:	0711                	addi	a4,a4,4
            num_temp[i] = num_temp[i] - product[i];
     684:	8e91                	sub	a3,a3,a2
     686:	fed72e23          	sw	a3,-4(a4)
        for (i = 0; i < size_N; ++i){
     68a:	bf7d                	j	648 <polydiv+0x14c>
            q[i] = q[i] + v[i];
     68c:	00279613          	slli	a2,a5,0x2
     690:	965a                	add	a2,a2,s6
     692:	4314                	lw	a3,0(a4)
     694:	4210                	lw	a2,0(a2)
        for(i = 0; i < size_N; ++i){
     696:	0785                	addi	a5,a5,1
     698:	0711                	addi	a4,a4,4
            q[i] = q[i] + v[i];
     69a:	96b2                	add	a3,a3,a2
     69c:	fed72e23          	sw	a3,-4(a4)
        for(i = 0; i < size_N; ++i){
     6a0:	bf65                	j	658 <polydiv+0x15c>
            if( num_temp[i] != 0 )
     6a2:	fb61                	bnez	a4,672 <polydiv+0x176>
        for (i = size_N-1; i >= 0; i = i-1){
     6a4:	17fd                	addi	a5,a5,-1
     6a6:	b7c1                	j	666 <polydiv+0x16a>
            v[i] = 0;
     6a8:	00269613          	slli	a2,a3,0x2
     6ac:	965a                	add	a2,a2,s6
     6ae:	00062023          	sw	zero,0(a2)
        for (i = 0; i < size_N; ++i){
     6b2:	0685                	addi	a3,a3,1
     6b4:	fe96cae3          	blt	a3,s1,6a8 <polydiv+0x1ac>
     6b8:	bf11                	j	5cc <polydiv+0xd0>
        result[i] = num_temp[i-size_N];
     6ba:	00092603          	lw	a2,0(s2)
     6be:	00249793          	slli	a5,s1,0x2
     6c2:	97b6                	add	a5,a5,a3
     6c4:	c390                	sw	a2,0(a5)
    for(i = size_N; i < (2*size_N); ++i){
     6c6:	0485                	addi	s1,s1,1
     6c8:	0911                	addi	s2,s2,4
     6ca:	b705                	j	5ea <polydiv+0xee>

000006cc <ext_euclid>:

int* ext_euclid(int* polyR, int* polyf, int size, int mod) {

    int *return_address4;
    int N, i, j;
    int ri_2[size]; // MX-ring poly, a
     6cc:	00261793          	slli	a5,a2,0x2
int* ext_euclid(int* polyR, int* polyf, int size, int mod) {
     6d0:	715d                	addi	sp,sp,-80
    int ri_2[size]; // MX-ring poly, a
     6d2:	07bd                	addi	a5,a5,15
     6d4:	9bc1                	andi	a5,a5,-16
int* ext_euclid(int* polyR, int* polyf, int size, int mod) {
     6d6:	c4a2                	sw	s0,72(sp)
     6d8:	c2a6                	sw	s1,68(sp)
     6da:	c0ca                	sw	s2,64(sp)
     6dc:	de4e                	sw	s3,60(sp)
     6de:	dc52                	sw	s4,56(sp)
     6e0:	da56                	sw	s5,52(sp)
     6e2:	d85a                	sw	s6,48(sp)
     6e4:	d65e                	sw	s7,44(sp)
     6e6:	d462                	sw	s8,40(sp)
     6e8:	d266                	sw	s9,36(sp)
     6ea:	d06a                	sw	s10,32(sp)
     6ec:	ce6e                	sw	s11,28(sp)
     6ee:	c686                	sw	ra,76(sp)
     6f0:	0880                	addi	s0,sp,80
    int ri_2[size]; // MX-ring poly, a
     6f2:	40f10133          	sub	sp,sp,a5
     6f6:	898a                	mv	s3,sp
    int ri_1[size]; // f-random poly, f[N] = 0, b
     6f8:	40f10133          	sub	sp,sp,a5
     6fc:	8a0a                	mv	s4,sp
    int ri[size];
     6fe:	40f10133          	sub	sp,sp,a5
     702:	8c0a                	mv	s8,sp

    int ti_1[size]; // ti_1[0] = 1
     704:	40f10133          	sub	sp,sp,a5
     708:	8b0a                	mv	s6,sp
    int ti[size];
     70a:	40f10133          	sub	sp,sp,a5
     70e:	8d0a                	mv	s10,sp
    int qi_1[size];
     710:	40f10133          	sub	sp,sp,a5
     714:	8c8a                	mv	s9,sp
    int temp[size];
     716:	40f10133          	sub	sp,sp,a5
int* ext_euclid(int* polyR, int* polyf, int size, int mod) {
     71a:	8936                	mv	s2,a3
     71c:	8dae                	mv	s11,a1
     71e:	84b2                	mv	s1,a2
    int ri_2[size]; // MX-ring poly, a
     720:	fff60b93          	addi	s7,a2,-1
    int temp[size];
     724:	8a8a                	mv	s5,sp
    int *res1;
    int *res2;
    int controlR = 1;

    N = size - 1;
    for (i = 0; i < size; ++i) {
     726:	4781                	li	a5,0
//        ri_2[i] = polyR[i];
//        ri_1[i] = polyf[i];
        ti_2[i] = 0;
     728:	00001697          	auipc	a3,0x1
     72c:	1d468693          	addi	a3,a3,468 # 18fc <ti_2>
    for (i = 0; i < size; ++i) {
     730:	1097cb63          	blt	a5,s1,846 <ext_euclid+0x17a>
        ti_1[i] = 0;
    }
    array_equ(ri_2,polyR,size);
     734:	85aa                	mv	a1,a0
     736:	8626                	mv	a2,s1
     738:	854e                	mv	a0,s3
     73a:	3aa1                	jal	92 <array_equ>
    array_equ(ri_1,polyf,size);
     73c:	85ee                	mv	a1,s11
     73e:	8626                	mv	a2,s1
     740:	8552                	mv	a0,s4
     742:	3a81                	jal	92 <array_equ>
///// ri_2 = polyR      ///////
///// ri_1 = f         //////////
///// ti_2 = ti_1 = 0 /////////

    ti_1[0] = 1;
     744:	4785                	li	a5,1
     746:	00fb2023          	sw	a5,0(s6)
//            ri_1[i] = ri_1[i] % mod;
//        }
    array_mod(ri_1,mod,size);

        res = polydiv(ri_2, N + 1, ri_1, N + 1, mod);
        for (i = N + 1; i < (2 * N + 2); ++i) {
     74a:	00149793          	slli	a5,s1,0x1
     74e:	faf42e23          	sw	a5,-68(s0)
//            temp[i] = temp[i] % mod;
//        }
    array_mod(temp,mod,size);

        for (i = 0; i < N + 1; ++i) {
            ti[i] = ti_2[i] - temp[i];
     752:	00001d97          	auipc	s11,0x1
     756:	1aad8d93          	addi	s11,s11,426 # 18fc <ti_2>
    array_mod(ri_2,mod,size);
     75a:	8626                	mv	a2,s1
     75c:	85ca                	mv	a1,s2
     75e:	854e                	mv	a0,s3
     760:	32f9                	jal	12e <array_mod>
    array_mod(ri_1,mod,size);
     762:	8626                	mv	a2,s1
     764:	85ca                	mv	a1,s2
     766:	8552                	mv	a0,s4
     768:	32d9                	jal	12e <array_mod>
        res = polydiv(ri_2, N + 1, ri_1, N + 1, mod);
     76a:	874a                	mv	a4,s2
     76c:	86a6                	mv	a3,s1
     76e:	8652                	mv	a2,s4
     770:	85a6                	mv	a1,s1
     772:	854e                	mv	a0,s3
     774:	3361                	jal	4fc <polydiv>
        for (i = N + 1; i < (2 * N + 2); ++i) {
     776:	8762                	mv	a4,s8
     778:	87a6                	mv	a5,s1
     77a:	fbc42683          	lw	a3,-68(s0)
     77e:	0cd7cf63          	blt	a5,a3,85c <ext_euclid+0x190>
     782:	4781                	li	a5,0
        for (i = 0; i < N + 1; ++i) {
     784:	4701                	li	a4,0
     786:	0eebd463          	bge	s7,a4,86e <ext_euclid+0x1a2>
    array_mod(temp,mod,size);
     78a:	8626                	mv	a2,s1
     78c:	85ca                	mv	a1,s2
     78e:	8556                	mv	a0,s5
     790:	3a79                	jal	12e <array_mod>
        res1 = polydiv(temp, N + 1, ri_1, N + 1, mod);
     792:	874a                	mv	a4,s2
     794:	86a6                	mv	a3,s1
     796:	8652                	mv	a2,s4
     798:	85a6                	mv	a1,s1
     79a:	8556                	mv	a0,s5
     79c:	3385                	jal	4fc <polydiv>
     79e:	85aa                	mv	a1,a0
    array_equ(qi_1,res1,size);
     7a0:	8626                	mv	a2,s1
     7a2:	8566                	mv	a0,s9
     7a4:	30fd                	jal	92 <array_equ>
    array_mod(qi_1,mod,size);
     7a6:	8626                	mv	a2,s1
     7a8:	85ca                	mv	a1,s2
     7aa:	8566                	mv	a0,s9
     7ac:	3249                	jal	12e <array_mod>
        res2 = polymult(qi_1, N + 1, ti_1, N + 1, mod, 0);
     7ae:	4781                	li	a5,0
     7b0:	874a                	mv	a4,s2
     7b2:	86a6                	mv	a3,s1
     7b4:	865a                	mv	a2,s6
     7b6:	85a6                	mv	a1,s1
     7b8:	8566                	mv	a0,s9
     7ba:	3401                	jal	1ba <polymult>
     7bc:	85aa                	mv	a1,a0
    array_equ(temp,res2,size);
     7be:	8626                	mv	a2,s1
     7c0:	8556                	mv	a0,s5
     7c2:	38c1                	jal	92 <array_equ>
    array_mod(temp,mod,size);
     7c4:	8626                	mv	a2,s1
     7c6:	85ca                	mv	a1,s2
     7c8:	8556                	mv	a0,s5
     7ca:	3295                	jal	12e <array_mod>
        for (i = 0; i < N + 1; ++i) {
     7cc:	4781                	li	a5,0
     7ce:	4701                	li	a4,0
     7d0:	0aebdc63          	bge	s7,a4,888 <ext_euclid+0x1bc>
//            while (ti[i] < 0) {
//                ti[i] = ti[i] + mod;
//            }
//            ti[i] = ti[i] % mod;
//        }
    array_mod(ti,mod,size);
     7d4:	8626                	mv	a2,s1
     7d6:	85ca                	mv	a1,s2
     7d8:	856a                	mv	a0,s10
     7da:	3a91                	jal	12e <array_mod>

/// ri_2 = ri_1; ri_1 = ri; ti_2 = ti_1; ti_1 = ti; ///

array_equ(ri_2,ri_1,size);
     7dc:	8626                	mv	a2,s1
     7de:	85d2                	mv	a1,s4
     7e0:	854e                	mv	a0,s3
     7e2:	3845                	jal	92 <array_equ>
array_equ(ri_1,ri,size);
     7e4:	8626                	mv	a2,s1
     7e6:	85e2                	mv	a1,s8
     7e8:	8552                	mv	a0,s4
     7ea:	3065                	jal	92 <array_equ>
array_equ(ti_2,ti_1,size);
     7ec:	8626                	mv	a2,s1
     7ee:	85da                	mv	a1,s6
     7f0:	856e                	mv	a0,s11
     7f2:	3045                	jal	92 <array_equ>
array_equ(ti_1,ti,size);
     7f4:	8626                	mv	a2,s1
     7f6:	85ea                	mv	a1,s10
     7f8:	855a                	mv	a0,s6
     7fa:	3861                	jal	92 <array_equ>
        controlR = 0;
     7fc:	4781                	li	a5,0

        for (i = 0; i < N + 1; ++i) {
     7fe:	4701                	li	a4,0
     800:	0aebd163          	bge	s7,a4,8a2 <ext_euclid+0x1d6>
    while (controlR != 0) {
     804:	f4079be3          	bnez	a5,75a <ext_euclid+0x8e>
            controlR += ri[i];
        }
    }


        for (j = 0; j < mod; ++j) {
     808:	4701                	li	a4,0
            if (((ri_2[0] * j) % mod) == 1)
     80a:	4605                	li	a2,1
        for (j = 0; j < mod; ++j) {
     80c:	0b274663          	blt	a4,s2,8b8 <ext_euclid+0x1ec>
     810:	00001617          	auipc	a2,0x1
     814:	0ec60613          	addi	a2,a2,236 # 18fc <ti_2>
            if (ri_2[i] != 0)
                //	printf("**** GCD of SECRET POL and POLYR is not 1 !! OPERATION INVALID!! PICK ANOTHER RANDOM VALUE !! *****\n");
                break;
        }

        for (i = 0; i < N + 1; ++i) {
     818:	0afbda63          	bge	s7,a5,8cc <ext_euclid+0x200>
        }


        return_address4 = &ti_2[0];
        return return_address4;
    }
     81c:	fb040113          	addi	sp,s0,-80
     820:	40b6                	lw	ra,76(sp)
     822:	4426                	lw	s0,72(sp)
     824:	4496                	lw	s1,68(sp)
     826:	4906                	lw	s2,64(sp)
     828:	59f2                	lw	s3,60(sp)
     82a:	5a62                	lw	s4,56(sp)
     82c:	5ad2                	lw	s5,52(sp)
     82e:	5b42                	lw	s6,48(sp)
     830:	5bb2                	lw	s7,44(sp)
     832:	5c22                	lw	s8,40(sp)
     834:	5c92                	lw	s9,36(sp)
     836:	5d02                	lw	s10,32(sp)
     838:	4df2                	lw	s11,28(sp)
     83a:	00001517          	auipc	a0,0x1
     83e:	0c250513          	addi	a0,a0,194 # 18fc <ti_2>
     842:	6161                	addi	sp,sp,80
     844:	8082                	ret
        ti_2[i] = 0;
     846:	00279713          	slli	a4,a5,0x2
     84a:	00e68633          	add	a2,a3,a4
        ti_1[i] = 0;
     84e:	975a                	add	a4,a4,s6
        ti_2[i] = 0;
     850:	00062023          	sw	zero,0(a2)
        ti_1[i] = 0;
     854:	00072023          	sw	zero,0(a4)
    for (i = 0; i < size; ++i) {
     858:	0785                	addi	a5,a5,1
     85a:	bdd9                	j	730 <ext_euclid+0x64>
            ri[i - (N + 1)] = res[i];
     85c:	00279693          	slli	a3,a5,0x2
     860:	96aa                	add	a3,a3,a0
     862:	4294                	lw	a3,0(a3)
        for (i = N + 1; i < (2 * N + 2); ++i) {
     864:	0785                	addi	a5,a5,1
     866:	0711                	addi	a4,a4,4
            ri[i - (N + 1)] = res[i];
     868:	fed72e23          	sw	a3,-4(a4)
        for (i = N + 1; i < (2 * N + 2); ++i) {
     86c:	b739                	j	77a <ext_euclid+0xae>
            temp[i] = ri_2[i] - ri[i];
     86e:	00f986b3          	add	a3,s3,a5
     872:	00fc05b3          	add	a1,s8,a5
     876:	4294                	lw	a3,0(a3)
     878:	418c                	lw	a1,0(a1)
     87a:	00fa8633          	add	a2,s5,a5
        for (i = 0; i < N + 1; ++i) {
     87e:	0705                	addi	a4,a4,1
            temp[i] = ri_2[i] - ri[i];
     880:	8e8d                	sub	a3,a3,a1
     882:	c214                	sw	a3,0(a2)
        for (i = 0; i < N + 1; ++i) {
     884:	0791                	addi	a5,a5,4
     886:	b701                	j	786 <ext_euclid+0xba>
            ti[i] = ti_2[i] - temp[i];
     888:	00fd86b3          	add	a3,s11,a5
     88c:	00fa85b3          	add	a1,s5,a5
     890:	4294                	lw	a3,0(a3)
     892:	418c                	lw	a1,0(a1)
     894:	00fd0633          	add	a2,s10,a5
        for (i = 0; i < N + 1; ++i) {
     898:	0705                	addi	a4,a4,1
            ti[i] = ti_2[i] - temp[i];
     89a:	8e8d                	sub	a3,a3,a1
     89c:	c214                	sw	a3,0(a2)
        for (i = 0; i < N + 1; ++i) {
     89e:	0791                	addi	a5,a5,4
     8a0:	bf05                	j	7d0 <ext_euclid+0x104>
              qi_1[i] = 0;
     8a2:	00271693          	slli	a3,a4,0x2
     8a6:	00dc8633          	add	a2,s9,a3
            controlR += ri[i];
     8aa:	96e2                	add	a3,a3,s8
     8ac:	4294                	lw	a3,0(a3)
              qi_1[i] = 0;
     8ae:	00062023          	sw	zero,0(a2)
        for (i = 0; i < N + 1; ++i) {
     8b2:	0705                	addi	a4,a4,1
            controlR += ri[i];
     8b4:	97b6                	add	a5,a5,a3
        for (i = 0; i < N + 1; ++i) {
     8b6:	b7a9                	j	800 <ext_euclid+0x134>
            if (((ri_2[0] * j) % mod) == 1)
     8b8:	0009a683          	lw	a3,0(s3)
     8bc:	02d706b3          	mul	a3,a4,a3
     8c0:	0326e6b3          	rem	a3,a3,s2
     8c4:	f4c686e3          	beq	a3,a2,810 <ext_euclid+0x144>
        for (j = 0; j < mod; ++j) {
     8c8:	0705                	addi	a4,a4,1
     8ca:	b789                	j	80c <ext_euclid+0x140>
            ti_2[i] = (ti_2[i] * j) % mod;
     8cc:	4214                	lw	a3,0(a2)
        for (i = 0; i < N + 1; ++i) {
     8ce:	0785                	addi	a5,a5,1
     8d0:	0611                	addi	a2,a2,4
            ti_2[i] = (ti_2[i] * j) % mod;
     8d2:	02d706b3          	mul	a3,a4,a3
     8d6:	0326e6b3          	rem	a3,a3,s2
     8da:	fed62e23          	sw	a3,-4(a2)
        for (i = 0; i < N + 1; ++i) {
     8de:	bf2d                	j	818 <ext_euclid+0x14c>

000008e0 <generate_keys>:




int* generate_keys(int N, int p, int q){
     8e0:	7141                	addi	sp,sp,-496
     8e2:	1e112623          	sw	ra,492(sp)
     8e6:	1e812423          	sw	s0,488(sp)
     8ea:	1e912223          	sw	s1,484(sp)
     8ee:	1b80                	addi	s0,sp,496
     8f0:	1f212023          	sw	s2,480(sp)
     8f4:	1d312e23          	sw	s3,476(sp)
     8f8:	1d412c23          	sw	s4,472(sp)
     8fc:	1d512a23          	sw	s5,468(sp)
     900:	1d612823          	sw	s6,464(sp)
     904:	1d712623          	sw	s7,460(sp)
     908:	1da12023          	sw	s10,448(sp)
     90c:	1d812423          	sw	s8,456(sp)
     910:	1d912223          	sw	s9,452(sp)
     914:	892a                	mv	s2,a0
     916:	8bae                	mv	s7,a1
     918:	8b32                	mv	s6,a2

    int f[55] = {-1, 1, 1, 0, -1, 0, 1, 0, 0, 1, -1, -1, 0, 1, 0, -1, 0, 1, 1, 0, 0,  -1, 0, 1, 0, 0, 1, 1, 1,  -1, 0, 1, 0, 0, 1, 1, 1,    -1, 0, 1, 0, 0, 1, 1, 1};
     91a:	4581                	li	a1,0
     91c:	0d000613          	li	a2,208
     920:	e2440513          	addi	a0,s0,-476
     924:	2ba9                	jal	e7e <memset>
     926:	4485                	li	s1,1
     928:	59fd                	li	s3,-1
    int g[55] = {-1, 0, 1, 1, 0, 1, 0, 0, -1, 0, -1, -1, 0, 1, 0, -1, 0, 1, 0, 0, 1, -1, 0, 1, 0, 0, 1, -1, 0, 1, 0, 0, 1, -1, 0, 1, 0, 1,   1, 0, 0, 1, -1, 0, 1, 0, 1};
     92a:	0d800613          	li	a2,216
     92e:	4581                	li	a1,0
     930:	ef840513          	addi	a0,s0,-264
    int f[55] = {-1, 1, 1, 0, -1, 0, 1, 0, 0, 1, -1, -1, 0, 1, 0, -1, 0, 1, 1, 0, 0,  -1, 0, 1, 0, 0, 1, 1, 1,  -1, 0, 1, 0, 0, 1, 1, 1,    -1, 0, 1, 0, 0, 1, 1, 1};
     934:	e1342c23          	sw	s3,-488(s0)
     938:	e0942e23          	sw	s1,-484(s0)
     93c:	e2942023          	sw	s1,-480(s0)
     940:	e3342423          	sw	s3,-472(s0)
     944:	e2942823          	sw	s1,-464(s0)
     948:	e2942e23          	sw	s1,-452(s0)
     94c:	e5342023          	sw	s3,-448(s0)
     950:	e5342223          	sw	s3,-444(s0)
     954:	e4942623          	sw	s1,-436(s0)
     958:	e5342a23          	sw	s3,-428(s0)
     95c:	e4942e23          	sw	s1,-420(s0)
     960:	e6942023          	sw	s1,-416(s0)
     964:	e7342623          	sw	s3,-404(s0)
     968:	e6942a23          	sw	s1,-396(s0)
     96c:	e8942023          	sw	s1,-384(s0)
     970:	e8942223          	sw	s1,-380(s0)
     974:	e8942423          	sw	s1,-376(s0)
     978:	e9342623          	sw	s3,-372(s0)
     97c:	e8942a23          	sw	s1,-364(s0)
     980:	ea942023          	sw	s1,-352(s0)
     984:	ea942223          	sw	s1,-348(s0)
     988:	ea942423          	sw	s1,-344(s0)
     98c:	eb342623          	sw	s3,-340(s0)
     990:	ea942a23          	sw	s1,-332(s0)
     994:	ec942023          	sw	s1,-320(s0)
     998:	ec942223          	sw	s1,-316(s0)
     99c:	ec942423          	sw	s1,-312(s0)

    int *fp;
    int *fq;
    int *fg;
    int *pk;
    int polyR[N+1];
     9a0:	00190a93          	addi	s5,s2,1
    int g[55] = {-1, 0, 1, 1, 0, 1, 0, 0, -1, 0, -1, -1, 0, 1, 0, -1, 0, 1, 0, 0, 1, -1, 0, 1, 0, 0, 1, -1, 0, 1, 0, 0, 1, -1, 0, 1, 0, 1,   1, 0, 0, 1, -1, 0, 1, 0, 1};
     9a4:	29e9                	jal	e7e <memset>
    int polyR[N+1];
     9a6:	002a9793          	slli	a5,s5,0x2
     9aa:	07bd                	addi	a5,a5,15
     9ac:	9bc1                	andi	a5,a5,-16
     9ae:	40f10133          	sub	sp,sp,a5
     9b2:	8a0a                	mv	s4,sp
    int i;
    int* return_address5;


    polyR[N] = 1;
     9b4:	00291d13          	slli	s10,s2,0x2
     9b8:	01aa07b3          	add	a5,s4,s10
     9bc:	c384                	sw	s1,0(a5)
    int g[55] = {-1, 0, 1, 1, 0, 1, 0, 0, -1, 0, -1, -1, 0, 1, 0, -1, 0, 1, 0, 0, 1, -1, 0, 1, 0, 0, 1, -1, 0, 1, 0, 0, 1, -1, 0, 1, 0, 1,   1, 0, 0, 1, -1, 0, 1, 0, 1};
     9be:	ef342a23          	sw	s3,-268(s0)
     9c2:	ee942e23          	sw	s1,-260(s0)
     9c6:	f0942023          	sw	s1,-256(s0)
     9ca:	f0942423          	sw	s1,-248(s0)
     9ce:	f1342a23          	sw	s3,-236(s0)
     9d2:	f1342e23          	sw	s3,-228(s0)
     9d6:	f3342023          	sw	s3,-224(s0)
     9da:	f2942423          	sw	s1,-216(s0)
     9de:	f3342823          	sw	s3,-208(s0)
     9e2:	f2942c23          	sw	s1,-200(s0)
     9e6:	f4942223          	sw	s1,-188(s0)
     9ea:	f5342423          	sw	s3,-184(s0)
     9ee:	f4942823          	sw	s1,-176(s0)
     9f2:	f4942e23          	sw	s1,-164(s0)
     9f6:	f7342023          	sw	s3,-160(s0)
     9fa:	f6942423          	sw	s1,-152(s0)
     9fe:	f6942a23          	sw	s1,-140(s0)
     a02:	f7342c23          	sw	s3,-136(s0)
     a06:	f8942023          	sw	s1,-128(s0)
     a0a:	f8942423          	sw	s1,-120(s0)
     a0e:	f8942623          	sw	s1,-116(s0)
     a12:	f8942c23          	sw	s1,-104(s0)
     a16:	f9342e23          	sw	s3,-100(s0)
     a1a:	fa942223          	sw	s1,-92(s0)
     a1e:	fa942623          	sw	s1,-84(s0)
    polyR[0] = -1;
     a22:	013a2023          	sw	s3,0(s4)

    for(i = 1; i < N; ++i){
     a26:	4785                	li	a5,1
     a28:	1127c163          	blt	a5,s2,b2a <generate_keys+0x24a>
     a2c:	87ca                	mv	a5,s2
        polyR[i] = 0;
    }



    for (i = N; i < 55; ++i ){
     a2e:	03600693          	li	a3,54
     a32:	10f6d363          	bge	a3,a5,b38 <generate_keys+0x258>
        g[i] = 0;
    }
///// F VE G ARRAYLERİNİN SONLARI SIFIRLANDI //////


    for(i = 0; i < N; ++i){
     a36:	4781                	li	a5,0
        random_keys[i] = f[i];
     a38:	00001697          	auipc	a3,0x1
     a3c:	05468693          	addi	a3,a3,84 # 1a8c <random_keys>
    for(i = 0; i < N; ++i){
     a40:	1127ca63          	blt	a5,s2,b54 <generate_keys+0x274>
     a44:	ef440713          	addi	a4,s0,-268
    }
    ////RANDOM_KEYS 0-52 ARASI F////

    for(i = N; i < (2*N); ++i){
     a48:	00191993          	slli	s3,s2,0x1
     a4c:	87ca                	mv	a5,s2
     a4e:	8cba                	mv	s9,a4
        random_keys[i] = g[i-N];
     a50:	00001617          	auipc	a2,0x1
     a54:	03c60613          	addi	a2,a2,60 # 1a8c <random_keys>
    for(i = N; i < (2*N); ++i){
     a58:	1137c963          	blt	a5,s3,b6a <generate_keys+0x28a>
    ////RANDOM_KEYS 53-105 ARASI G////

    fp = ext_euclid(polyR, f, (N+1), p);
    ////FP HESAPLANDI////

    for(i = (2*N); i < (3*N); ++i){
     a5c:	448d                	li	s1,3
     a5e:	029904b3          	mul	s1,s2,s1
    fp = ext_euclid(polyR, f, (N+1), p);
     a62:	86de                	mv	a3,s7
     a64:	8656                	mv	a2,s5
     a66:	e1840593          	addi	a1,s0,-488
     a6a:	8552                	mv	a0,s4
     a6c:	3185                	jal	6cc <ext_euclid>
    for(i = (2*N); i < (3*N); ++i){
     a6e:	87ce                	mv	a5,s3
        random_keys[i] = fp[i-(2*N)];
     a70:	00001697          	auipc	a3,0x1
     a74:	01c68693          	addi	a3,a3,28 # 1a8c <random_keys>
    for(i = (2*N); i < (3*N); ++i){
     a78:	1097c163          	blt	a5,s1,b7a <generate_keys+0x29a>
    }
    ////RANDOM_KEYS 106-158 ARASI FP////


    fq = ext_euclid(polyR, f, (N+1), q);
     a7c:	8656                	mv	a2,s5
     a7e:	86da                	mv	a3,s6
     a80:	e1840593          	addi	a1,s0,-488
     a84:	8552                	mv	a0,s4
     a86:	3199                	jal	6cc <ext_euclid>
    ////FQ HESAPLANDI ////


    for(i = (3*N); i < (4*N); ++i){
     a88:	5751                	li	a4,-12
     a8a:	02e90733          	mul	a4,s2,a4
     a8e:	8c6a                	mv	s8,s10
        random_keys[i] = fq[i-(3*N)];
     a90:	00001617          	auipc	a2,0x1
     a94:	ffc60613          	addi	a2,a2,-4 # 1a8c <random_keys>
    for(i = (3*N); i < (4*N); ++i){
     a98:	0fa4c963          	blt	s1,s10,b8a <generate_keys+0x2aa>
    }
    ////RANDOM KEYS 159-211 ARASI FQ ////

    fg = polymult2(fq, N, g, N, 0);
     a9c:	4701                	li	a4,0
     a9e:	85ca                	mv	a1,s2
     aa0:	86ca                	mv	a3,s2
     aa2:	8666                	mv	a2,s9
     aa4:	30e5                	jal	38c <polymult2>
    //// FG HESAPLANDI ////

    for(i = 0; i < (2*N-1); ++i){
     aa6:	87aa                	mv	a5,a0
     aa8:	4701                	li	a4,0
     aaa:	fff98593          	addi	a1,s3,-1
     aae:	0eb74863          	blt	a4,a1,b9e <generate_keys+0x2be>
        fg[i] = fg[i]*p;
    }

    //// FG = 3FG ////

    pk = polydiv(fg, (2*N-1), polyR, (N+1), q);
     ab2:	86d6                	mv	a3,s5
     ab4:	875a                	mv	a4,s6
     ab6:	8652                	mv	a2,s4
     ab8:	3491                	jal	4fc <polydiv>

    ////PK HESAPLANDI////

    for(i = (4*N); i < (5*N); ++i){
     aba:	4795                	li	a5,5
     abc:	02f907b3          	mul	a5,s2,a5
     ac0:	098a                	slli	s3,s3,0x2
     ac2:	99aa                	add	s3,s3,a0
        random_keys[i] = pk[i-(4*N)+(2*N-1)];
     ac4:	00001697          	auipc	a3,0x1
     ac8:	fc868693          	addi	a3,a3,-56 # 1a8c <random_keys>
    for(i = (4*N); i < (5*N); ++i){
     acc:	0991                	addi	s3,s3,4
     ace:	0efc4063          	blt	s8,a5,bae <generate_keys+0x2ce>
    }
    //////// RANDOM KEYS SONU PK  ////////

    for(i = (5*N); i < (6*N+1); ++i){
     ad2:	4699                	li	a3,6
     ad4:	5531                	li	a0,-20
        random_keys[i] = polyR[i-(5*N)];
     ad6:	00001617          	auipc	a2,0x1
     ada:	fb660613          	addi	a2,a2,-74 # 1a8c <random_keys>
    for(i = (5*N); i < (6*N+1); ++i){
     ade:	02d906b3          	mul	a3,s2,a3
     ae2:	02a90933          	mul	s2,s2,a0
     ae6:	0cf6dc63          	bge	a3,a5,bbe <generate_keys+0x2de>


    return_address5 = &random_keys[0];

    return return_address5;
}
     aea:	e1040113          	addi	sp,s0,-496
     aee:	1ec12083          	lw	ra,492(sp)
     af2:	1e812403          	lw	s0,488(sp)
     af6:	1e412483          	lw	s1,484(sp)
     afa:	1e012903          	lw	s2,480(sp)
     afe:	1dc12983          	lw	s3,476(sp)
     b02:	1d812a03          	lw	s4,472(sp)
     b06:	1d412a83          	lw	s5,468(sp)
     b0a:	1d012b03          	lw	s6,464(sp)
     b0e:	1cc12b83          	lw	s7,460(sp)
     b12:	1c812c03          	lw	s8,456(sp)
     b16:	1c412c83          	lw	s9,452(sp)
     b1a:	1c012d03          	lw	s10,448(sp)
     b1e:	00001517          	auipc	a0,0x1
     b22:	f6e50513          	addi	a0,a0,-146 # 1a8c <random_keys>
     b26:	617d                	addi	sp,sp,496
     b28:	8082                	ret
        polyR[i] = 0;
     b2a:	00279713          	slli	a4,a5,0x2
     b2e:	9752                	add	a4,a4,s4
     b30:	00072023          	sw	zero,0(a4)
    for(i = 1; i < N; ++i){
     b34:	0785                	addi	a5,a5,1
     b36:	bdcd                	j	a28 <generate_keys+0x148>
        f[i] = 0;
     b38:	00279713          	slli	a4,a5,0x2
     b3c:	e1840613          	addi	a2,s0,-488
     b40:	963a                	add	a2,a2,a4
     b42:	00062023          	sw	zero,0(a2)
        g[i] = 0;
     b46:	ef440613          	addi	a2,s0,-268
     b4a:	9732                	add	a4,a4,a2
     b4c:	00072023          	sw	zero,0(a4)
    for (i = N; i < 55; ++i ){
     b50:	0785                	addi	a5,a5,1
     b52:	b5c5                	j	a32 <generate_keys+0x152>
        random_keys[i] = f[i];
     b54:	00279713          	slli	a4,a5,0x2
     b58:	e1840593          	addi	a1,s0,-488
     b5c:	00e68633          	add	a2,a3,a4
     b60:	972e                	add	a4,a4,a1
     b62:	4318                	lw	a4,0(a4)
    for(i = 0; i < N; ++i){
     b64:	0785                	addi	a5,a5,1
        random_keys[i] = f[i];
     b66:	c218                	sw	a4,0(a2)
    for(i = 0; i < N; ++i){
     b68:	bde1                	j	a40 <generate_keys+0x160>
        random_keys[i] = g[i-N];
     b6a:	430c                	lw	a1,0(a4)
     b6c:	00279693          	slli	a3,a5,0x2
     b70:	96b2                	add	a3,a3,a2
     b72:	c28c                	sw	a1,0(a3)
    for(i = N; i < (2*N); ++i){
     b74:	0785                	addi	a5,a5,1
     b76:	0711                	addi	a4,a4,4
     b78:	b5c5                	j	a58 <generate_keys+0x178>
        random_keys[i] = fp[i-(2*N)];
     b7a:	4110                	lw	a2,0(a0)
     b7c:	00279713          	slli	a4,a5,0x2
     b80:	9736                	add	a4,a4,a3
     b82:	c310                	sw	a2,0(a4)
    for(i = (2*N); i < (3*N); ++i){
     b84:	0785                	addi	a5,a5,1
     b86:	0511                	addi	a0,a0,4
     b88:	bdc5                	j	a78 <generate_keys+0x198>
        random_keys[i] = fq[i-(3*N)];
     b8a:	00249793          	slli	a5,s1,0x2
     b8e:	00f706b3          	add	a3,a4,a5
     b92:	96aa                	add	a3,a3,a0
     b94:	4294                	lw	a3,0(a3)
     b96:	97b2                	add	a5,a5,a2
    for(i = (3*N); i < (4*N); ++i){
     b98:	0485                	addi	s1,s1,1
        random_keys[i] = fq[i-(3*N)];
     b9a:	c394                	sw	a3,0(a5)
    for(i = (3*N); i < (4*N); ++i){
     b9c:	bdf5                	j	a98 <generate_keys+0x1b8>
        fg[i] = fg[i]*p;
     b9e:	4394                	lw	a3,0(a5)
    for(i = 0; i < (2*N-1); ++i){
     ba0:	0705                	addi	a4,a4,1
     ba2:	0791                	addi	a5,a5,4
        fg[i] = fg[i]*p;
     ba4:	037686b3          	mul	a3,a3,s7
     ba8:	fed7ae23          	sw	a3,-4(a5)
    for(i = 0; i < (2*N-1); ++i){
     bac:	b709                	j	aae <generate_keys+0x1ce>
        random_keys[i] = pk[i-(4*N)+(2*N-1)];
     bae:	ff89a603          	lw	a2,-8(s3)
     bb2:	002c1713          	slli	a4,s8,0x2
     bb6:	9736                	add	a4,a4,a3
     bb8:	c310                	sw	a2,0(a4)
    for(i = (4*N); i < (5*N); ++i){
     bba:	0c05                	addi	s8,s8,1
     bbc:	bf01                	j	acc <generate_keys+0x1ec>
        random_keys[i] = polyR[i-(5*N)];
     bbe:	00279713          	slli	a4,a5,0x2
     bc2:	00e605b3          	add	a1,a2,a4
     bc6:	974a                	add	a4,a4,s2
     bc8:	9752                	add	a4,a4,s4
     bca:	4318                	lw	a4,0(a4)
    for(i = (5*N); i < (6*N+1); ++i){
     bcc:	0785                	addi	a5,a5,1
        random_keys[i] = polyR[i-(5*N)];
     bce:	c198                	sw	a4,0(a1)
    for(i = (5*N); i < (6*N+1); ++i){
     bd0:	bf19                	j	ae6 <generate_keys+0x206>

00000bd2 <ntru_encyrpt>:


int* ntru_encyrpt(int N, int q, int* message, int* public_key, int* polyR){
     bd2:	7115                	addi	sp,sp,-224
     bd4:	cda2                	sw	s0,216(sp)
     bd6:	cba6                	sw	s1,212(sp)
     bd8:	c9ca                	sw	s2,208(sp)
     bda:	842a                	mv	s0,a0
     bdc:	892e                	mv	s2,a1
     bde:	84b2                	mv	s1,a2

    int *return_address6;
    int *CT;

    int random_val[48] = { 1, -1, 0, 1, -1, 1, -1, 0,1, 1, 0, -1, 1, -1, 1, 0,1, 1, 0, -1, 1, -1, 1, 0,1, 1, 0, 1, -1, 1, -1, 0, 1, -1, 0, 1, -1, 1, -1, 0,1, 1, 0, -1, 1, -1, 1, 0};
     be0:	00000597          	auipc	a1,0x0
     be4:	49058593          	addi	a1,a1,1168 # 1070 <_endtext>
     be8:	0c000613          	li	a2,192
     bec:	850a                	mv	a0,sp
int* ntru_encyrpt(int N, int q, int* message, int* public_key, int* polyR){
     bee:	cf86                	sw	ra,220(sp)
     bf0:	c7ce                	sw	s3,204(sp)
     bf2:	c5d2                	sw	s4,200(sp)
     bf4:	89ba                	mv	s3,a4
     bf6:	8a36                	mv	s4,a3
    int random_val[48] = { 1, -1, 0, 1, -1, 1, -1, 0,1, 1, 0, -1, 1, -1, 1, 0,1, 1, 0, -1, 1, -1, 1, 0,1, 1, 0, 1, -1, 1, -1, 0, 1, -1, 0, 1, -1, 1, -1, 0,1, 1, 0, -1, 1, -1, 1, 0};
     bf8:	2265                	jal	da0 <memcpy>
    int *temp;
    int i;


    temp = polymult(public_key,N,random_val,48,q,0);
     bfa:	4781                	li	a5,0
     bfc:	860a                	mv	a2,sp
     bfe:	874a                	mv	a4,s2
     c00:	03000693          	li	a3,48
     c04:	85a2                	mv	a1,s0
     c06:	8552                	mv	a0,s4
     c08:	db2ff0ef          	jal	ra,1ba <polymult>
     c0c:	4781                	li	a5,0

    /////// PUBLIC_KEY*RANDOM_VALUE ///////

    for(i = 0; i < 48; ++i){
     c0e:	0c000613          	li	a2,192
        temp[i] = temp[i] + message[i];
     c12:	00f506b3          	add	a3,a0,a5
     c16:	00f485b3          	add	a1,s1,a5
     c1a:	4298                	lw	a4,0(a3)
     c1c:	418c                	lw	a1,0(a1)
     c1e:	0791                	addi	a5,a5,4
     c20:	972e                	add	a4,a4,a1
     c22:	c298                	sw	a4,0(a3)
    for(i = 0; i < 48; ++i){
     c24:	fec797e3          	bne	a5,a2,c12 <ntru_encyrpt+0x40>
    }

    ////// PUBLIC_KEY*RANDOM_VALUE + MESSAGE ///////

    CT = polydiv(temp,(2*N),polyR,(N+1),q);
     c28:	00141493          	slli	s1,s0,0x1
     c2c:	00140693          	addi	a3,s0,1
     c30:	874a                	mv	a4,s2
     c32:	864e                	mv	a2,s3
     c34:	85a6                	mv	a1,s1
     c36:	30d9                	jal	4fc <polydiv>

    for(i = (2*N); i < (3*N); ++i){
     c38:	478d                	li	a5,3
     c3a:	02f40433          	mul	s0,s0,a5
     c3e:	87aa                	mv	a5,a0
     c40:	0084ca63          	blt	s1,s0,c54 <ntru_encyrpt+0x82>
    ///// YUKARIDAKI IKI ISLEM MODULO OPERASYONU YAPIYOR /////


    return_address6 = &CT[0];
    return return_address6;
}
     c44:	40fe                	lw	ra,220(sp)
     c46:	446e                	lw	s0,216(sp)
     c48:	44de                	lw	s1,212(sp)
     c4a:	494e                	lw	s2,208(sp)
     c4c:	49be                	lw	s3,204(sp)
     c4e:	4a2e                	lw	s4,200(sp)
     c50:	612d                	addi	sp,sp,224
     c52:	8082                	ret
        CT[i-(2*N)] = CT[i];
     c54:	00249713          	slli	a4,s1,0x2
     c58:	972a                	add	a4,a4,a0
     c5a:	4318                	lw	a4,0(a4)
    for(i = (2*N); i < (3*N); ++i){
     c5c:	0485                	addi	s1,s1,1
     c5e:	0791                	addi	a5,a5,4
        CT[i-(2*N)] = CT[i];
     c60:	fee7ae23          	sw	a4,-4(a5)
    for(i = (2*N); i < (3*N); ++i){
     c64:	bff1                	j	c40 <ntru_encyrpt+0x6e>

00000c66 <ntru_deceypt>:


int* ntru_deceypt(int N, int p, int q, int* secret_key_f, int* secret_key_fp, int* Enc_Message, int* polyR){
     c66:	7179                	addi	sp,sp,-48
     c68:	d422                	sw	s0,40(sp)
     c6a:	ce4e                	sw	s3,28(sp)
     c6c:	842a                	mv	s0,a0


    a2 = polydiv(a,(2*N),polyR,(N+1),q);
/////////// Vector a2 (f.e modq) /////////

    for(i = (2*N); i < ((2*N)+N); ++i){
     c6e:	498d                	li	s3,3
     c70:	033409b3          	mul	s3,s0,s3
int* ntru_deceypt(int N, int p, int q, int* secret_key_f, int* secret_key_fp, int* Enc_Message, int* polyR){
     c74:	d04a                	sw	s2,32(sp)
     c76:	ca56                	sw	s5,20(sp)
     c78:	c65e                	sw	s7,12(sp)
     c7a:	8932                	mv	s2,a2
     c7c:	8536                	mv	a0,a3
    a = polymult2(secret_key_f,N,Enc_Message,N,0);
     c7e:	863e                	mv	a2,a5
     c80:	86a2                	mv	a3,s0
int* ntru_deceypt(int N, int p, int q, int* secret_key_f, int* secret_key_fp, int* Enc_Message, int* polyR){
     c82:	8aae                	mv	s5,a1
     c84:	8bba                	mv	s7,a4
    a = polymult2(secret_key_f,N,Enc_Message,N,0);
     c86:	85a2                	mv	a1,s0
     c88:	4701                	li	a4,0
int* ntru_deceypt(int N, int p, int q, int* secret_key_f, int* secret_key_fp, int* Enc_Message, int* polyR){
     c8a:	d606                	sw	ra,44(sp)
     c8c:	d226                	sw	s1,36(sp)
     c8e:	cc52                	sw	s4,24(sp)
     c90:	c85a                	sw	s6,16(sp)
     c92:	8a42                	mv	s4,a6
    a2 = polydiv(a,(2*N),polyR,(N+1),q);
     c94:	00141493          	slli	s1,s0,0x1
    a = polymult2(secret_key_f,N,Enc_Message,N,0);
     c98:	ef4ff0ef          	jal	ra,38c <polymult2>
    a2 = polydiv(a,(2*N),polyR,(N+1),q);
     c9c:	00140b13          	addi	s6,s0,1
     ca0:	874a                	mv	a4,s2
     ca2:	86da                	mv	a3,s6
     ca4:	8652                	mv	a2,s4
     ca6:	85a6                	mv	a1,s1
     ca8:	3891                	jal	4fc <polydiv>
     caa:	862a                	mv	a2,a0
    for(i = (2*N); i < ((2*N)+N); ++i){
     cac:	87aa                	mv	a5,a0
     cae:	872a                	mv	a4,a0
     cb0:	86a6                	mv	a3,s1
     cb2:	0536c163          	blt	a3,s3,cf4 <ntru_deceypt+0x8e>
        a2[i-(2*N)] = a2[i];
    }

    //centerlifting a2
    for (i = 0; i < N; ++i){
        if(a2[i] <= q/2)
     cb6:	4589                	li	a1,2
     cb8:	02b945b3          	div	a1,s2,a1
    for (i = 0; i < N; ++i){
     cbc:	4701                	li	a4,0
     cbe:	04874463          	blt	a4,s0,d06 <ntru_deceypt+0xa0>
        else
            a2[i] = (-1)*(q-a2[i]);
    }


    c = polymult2(secret_key_fp,N,a2,N,0);
     cc2:	4701                	li	a4,0
     cc4:	86a2                	mv	a3,s0
     cc6:	85a2                	mv	a1,s0
     cc8:	855e                	mv	a0,s7
     cca:	ec2ff0ef          	jal	ra,38c <polymult2>
/////////"Vector c(fp*a2)//////////


    c2 = polydiv(c,(2*N),polyR,(N+1),p);
     cce:	8756                	mv	a4,s5
     cd0:	86da                	mv	a3,s6
     cd2:	8652                	mv	a2,s4
     cd4:	85a6                	mv	a1,s1
     cd6:	301d                	jal	4fc <polydiv>
    for(i = (2*N); i < ((2*N)+N); ++i){
     cd8:	87aa                	mv	a5,a0
     cda:	0334cf63          	blt	s1,s3,d18 <ntru_deceypt+0xb2>
    }
    ////////"Vector c2 (decrypted message)/////////

    return_address7 = &c2[0];
    return return_address7;
}
     cde:	50b2                	lw	ra,44(sp)
     ce0:	5422                	lw	s0,40(sp)
     ce2:	5492                	lw	s1,36(sp)
     ce4:	5902                	lw	s2,32(sp)
     ce6:	49f2                	lw	s3,28(sp)
     ce8:	4a62                	lw	s4,24(sp)
     cea:	4ad2                	lw	s5,20(sp)
     cec:	4b42                	lw	s6,16(sp)
     cee:	4bb2                	lw	s7,12(sp)
     cf0:	6145                	addi	sp,sp,48
     cf2:	8082                	ret
        a2[i-(2*N)] = a2[i];
     cf4:	00269593          	slli	a1,a3,0x2
     cf8:	95b2                	add	a1,a1,a2
     cfa:	418c                	lw	a1,0(a1)
    for(i = (2*N); i < ((2*N)+N); ++i){
     cfc:	0685                	addi	a3,a3,1
     cfe:	0711                	addi	a4,a4,4
        a2[i-(2*N)] = a2[i];
     d00:	feb72e23          	sw	a1,-4(a4)
    for(i = (2*N); i < ((2*N)+N); ++i){
     d04:	b77d                	j	cb2 <ntru_deceypt+0x4c>
        if(a2[i] <= q/2)
     d06:	4394                	lw	a3,0(a5)
     d08:	00d5d563          	bge	a1,a3,d12 <ntru_deceypt+0xac>
            a2[i] = (-1)*(q-a2[i]);
     d0c:	412686b3          	sub	a3,a3,s2
     d10:	c394                	sw	a3,0(a5)
    for (i = 0; i < N; ++i){
     d12:	0705                	addi	a4,a4,1
     d14:	0791                	addi	a5,a5,4
     d16:	b765                	j	cbe <ntru_deceypt+0x58>
        c2[i-(2*N)] = c2[i];
     d18:	00249713          	slli	a4,s1,0x2
     d1c:	972a                	add	a4,a4,a0
     d1e:	4318                	lw	a4,0(a4)
    for(i = (2*N); i < ((2*N)+N); ++i){
     d20:	0485                	addi	s1,s1,1
     d22:	0791                	addi	a5,a5,4
        c2[i-(2*N)] = c2[i];
     d24:	fee7ae23          	sw	a4,-4(a5)
    for(i = (2*N); i < ((2*N)+N); ++i){
     d28:	bf4d                	j	cda <ntru_deceypt+0x74>

00000d2a <default_exc_handler>:
  jal x0, default_exc_handler
     d2a:	0000006f          	j	d2a <default_exc_handler>

00000d2e <reset_handler>:
  mv  x1, x0
     d2e:	00000093          	li	ra,0
  mv  x2, x1
     d32:	8106                	mv	sp,ra
  mv  x3, x1
     d34:	8186                	mv	gp,ra
  mv  x4, x1
     d36:	8206                	mv	tp,ra
  mv  x5, x1
     d38:	8286                	mv	t0,ra
  mv  x6, x1
     d3a:	8306                	mv	t1,ra
  mv  x7, x1
     d3c:	8386                	mv	t2,ra
  mv  x8, x1
     d3e:	8406                	mv	s0,ra
  mv  x9, x1
     d40:	8486                	mv	s1,ra
  mv x10, x1
     d42:	8506                	mv	a0,ra
  mv x11, x1
     d44:	8586                	mv	a1,ra
  mv x12, x1
     d46:	8606                	mv	a2,ra
  mv x13, x1
     d48:	8686                	mv	a3,ra
  mv x14, x1
     d4a:	8706                	mv	a4,ra
  mv x15, x1
     d4c:	8786                	mv	a5,ra
  mv x16, x1
     d4e:	8806                	mv	a6,ra
  mv x17, x1
     d50:	8886                	mv	a7,ra
  mv x18, x1
     d52:	8906                	mv	s2,ra
  mv x19, x1
     d54:	8986                	mv	s3,ra
  mv x20, x1
     d56:	8a06                	mv	s4,ra
  mv x21, x1
     d58:	8a86                	mv	s5,ra
  mv x22, x1
     d5a:	8b06                	mv	s6,ra
  mv x23, x1
     d5c:	8b86                	mv	s7,ra
  mv x24, x1
     d5e:	8c06                	mv	s8,ra
  mv x25, x1
     d60:	8c86                	mv	s9,ra
  mv x26, x1
     d62:	8d06                	mv	s10,ra
  mv x27, x1
     d64:	8d86                	mv	s11,ra
  mv x28, x1
     d66:	8e06                	mv	t3,ra
  mv x29, x1
     d68:	8e86                	mv	t4,ra
  mv x30, x1
     d6a:	8f06                	mv	t5,ra
  mv x31, x1
     d6c:	8f86                	mv	t6,ra
  la   x2, _stack_start
     d6e:	0000f117          	auipc	sp,0xf
     d72:	29210113          	addi	sp,sp,658 # 10000 <_stack_start>

00000d76 <_start>:
  la x26, _bss_start
     d76:	00000d17          	auipc	s10,0x0
     d7a:	47ed0d13          	addi	s10,s10,1150 # 11f4 <_bss_start>
  la x27, _bss_end
     d7e:	00001d97          	auipc	s11,0x1
     d82:	206d8d93          	addi	s11,s11,518 # 1f84 <_bss_end>
  bge x26, x27, zero_loop_end
     d86:	01bd5763          	bge	s10,s11,d94 <main_entry>

00000d8a <zero_loop>:
  sw x0, 0(x26)
     d8a:	000d2023          	sw	zero,0(s10)
  addi x26, x26, 4
     d8e:	0d11                	addi	s10,s10,4
  ble x26, x27, zero_loop
     d90:	ffaddde3          	bge	s11,s10,d8a <zero_loop>

00000d94 <main_entry>:
  addi x10, x0, 0
     d94:	00000513          	li	a0,0
  addi x11, x0, 0
     d98:	00000593          	li	a1,0
  jal x1, main
     d9c:	18a000ef          	jal	ra,f26 <main>

00000da0 <memcpy>:
     da0:	00a5c7b3          	xor	a5,a1,a0
     da4:	8b8d                	andi	a5,a5,3
     da6:	00c508b3          	add	a7,a0,a2
     daa:	e7a1                	bnez	a5,df2 <memcpy+0x52>
     dac:	478d                	li	a5,3
     dae:	04c7f263          	bgeu	a5,a2,df2 <memcpy+0x52>
     db2:	00357793          	andi	a5,a0,3
     db6:	872a                	mv	a4,a0
     db8:	eba9                	bnez	a5,e0a <memcpy+0x6a>
     dba:	ffc8f613          	andi	a2,a7,-4
     dbe:	fe060793          	addi	a5,a2,-32
     dc2:	06f76763          	bltu	a4,a5,e30 <memcpy+0x90>
     dc6:	02c77363          	bgeu	a4,a2,dec <memcpy+0x4c>
     dca:	86ae                	mv	a3,a1
     dcc:	87ba                	mv	a5,a4
     dce:	0006a803          	lw	a6,0(a3)
     dd2:	0791                	addi	a5,a5,4
     dd4:	0691                	addi	a3,a3,4
     dd6:	ff07ae23          	sw	a6,-4(a5)
     dda:	fec7eae3          	bltu	a5,a2,dce <memcpy+0x2e>
     dde:	fff60793          	addi	a5,a2,-1
     de2:	8f99                	sub	a5,a5,a4
     de4:	9bf1                	andi	a5,a5,-4
     de6:	0791                	addi	a5,a5,4
     de8:	973e                	add	a4,a4,a5
     dea:	95be                	add	a1,a1,a5
     dec:	01176663          	bltu	a4,a7,df8 <memcpy+0x58>
     df0:	8082                	ret
     df2:	872a                	mv	a4,a0
     df4:	ff157ee3          	bgeu	a0,a7,df0 <memcpy+0x50>
     df8:	0005c783          	lbu	a5,0(a1)
     dfc:	0705                	addi	a4,a4,1
     dfe:	0585                	addi	a1,a1,1
     e00:	fef70fa3          	sb	a5,-1(a4)
     e04:	ff176ae3          	bltu	a4,a7,df8 <memcpy+0x58>
     e08:	8082                	ret
     e0a:	0005c683          	lbu	a3,0(a1)
     e0e:	0705                	addi	a4,a4,1
     e10:	00377793          	andi	a5,a4,3
     e14:	fed70fa3          	sb	a3,-1(a4)
     e18:	0585                	addi	a1,a1,1
     e1a:	d3c5                	beqz	a5,dba <memcpy+0x1a>
     e1c:	0005c683          	lbu	a3,0(a1)
     e20:	0705                	addi	a4,a4,1
     e22:	00377793          	andi	a5,a4,3
     e26:	fed70fa3          	sb	a3,-1(a4)
     e2a:	0585                	addi	a1,a1,1
     e2c:	fff9                	bnez	a5,e0a <memcpy+0x6a>
     e2e:	b771                	j	dba <memcpy+0x1a>
     e30:	41d4                	lw	a3,4(a1)
     e32:	0005a283          	lw	t0,0(a1)
     e36:	0085af83          	lw	t6,8(a1)
     e3a:	00c5af03          	lw	t5,12(a1)
     e3e:	0105ae83          	lw	t4,16(a1)
     e42:	0145ae03          	lw	t3,20(a1)
     e46:	0185a303          	lw	t1,24(a1)
     e4a:	01c5a803          	lw	a6,28(a1)
     e4e:	c354                	sw	a3,4(a4)
     e50:	5194                	lw	a3,32(a1)
     e52:	00572023          	sw	t0,0(a4)
     e56:	01f72423          	sw	t6,8(a4)
     e5a:	01e72623          	sw	t5,12(a4)
     e5e:	01d72823          	sw	t4,16(a4)
     e62:	01c72a23          	sw	t3,20(a4)
     e66:	00672c23          	sw	t1,24(a4)
     e6a:	01072e23          	sw	a6,28(a4)
     e6e:	d314                	sw	a3,32(a4)
     e70:	02470713          	addi	a4,a4,36
     e74:	02458593          	addi	a1,a1,36
     e78:	faf76ce3          	bltu	a4,a5,e30 <memcpy+0x90>
     e7c:	b7a9                	j	dc6 <memcpy+0x26>

00000e7e <memset>:
     e7e:	433d                	li	t1,15
     e80:	872a                	mv	a4,a0
     e82:	02c37363          	bgeu	t1,a2,ea8 <memset+0x2a>
     e86:	00f77793          	andi	a5,a4,15
     e8a:	efbd                	bnez	a5,f08 <memset+0x8a>
     e8c:	e5ad                	bnez	a1,ef6 <memset+0x78>
     e8e:	ff067693          	andi	a3,a2,-16
     e92:	8a3d                	andi	a2,a2,15
     e94:	96ba                	add	a3,a3,a4
     e96:	c30c                	sw	a1,0(a4)
     e98:	c34c                	sw	a1,4(a4)
     e9a:	c70c                	sw	a1,8(a4)
     e9c:	c74c                	sw	a1,12(a4)
     e9e:	0741                	addi	a4,a4,16
     ea0:	fed76be3          	bltu	a4,a3,e96 <memset+0x18>
     ea4:	e211                	bnez	a2,ea8 <memset+0x2a>
     ea6:	8082                	ret
     ea8:	40c306b3          	sub	a3,t1,a2
     eac:	068a                	slli	a3,a3,0x2
     eae:	00000297          	auipc	t0,0x0
     eb2:	9696                	add	a3,a3,t0
     eb4:	00a68067          	jr	10(a3)
     eb8:	00b70723          	sb	a1,14(a4)
     ebc:	00b706a3          	sb	a1,13(a4)
     ec0:	00b70623          	sb	a1,12(a4)
     ec4:	00b705a3          	sb	a1,11(a4)
     ec8:	00b70523          	sb	a1,10(a4)
     ecc:	00b704a3          	sb	a1,9(a4)
     ed0:	00b70423          	sb	a1,8(a4)
     ed4:	00b703a3          	sb	a1,7(a4)
     ed8:	00b70323          	sb	a1,6(a4)
     edc:	00b702a3          	sb	a1,5(a4)
     ee0:	00b70223          	sb	a1,4(a4)
     ee4:	00b701a3          	sb	a1,3(a4)
     ee8:	00b70123          	sb	a1,2(a4)
     eec:	00b700a3          	sb	a1,1(a4)
     ef0:	00b70023          	sb	a1,0(a4)
     ef4:	8082                	ret
     ef6:	0ff5f593          	andi	a1,a1,255
     efa:	00859693          	slli	a3,a1,0x8
     efe:	8dd5                	or	a1,a1,a3
     f00:	01059693          	slli	a3,a1,0x10
     f04:	8dd5                	or	a1,a1,a3
     f06:	b761                	j	e8e <memset+0x10>
     f08:	00279693          	slli	a3,a5,0x2
     f0c:	00000297          	auipc	t0,0x0
     f10:	9696                	add	a3,a3,t0
     f12:	8286                	mv	t0,ra
     f14:	fa8680e7          	jalr	-88(a3)
     f18:	8096                	mv	ra,t0
     f1a:	17c1                	addi	a5,a5,-16
     f1c:	8f1d                	sub	a4,a4,a5
     f1e:	963e                	add	a2,a2,a5
     f20:	f8c374e3          	bgeu	t1,a2,ea8 <memset+0x2a>
     f24:	b7a5                	j	e8c <memset+0xe>

00000f26 <main>:

int main(){
     f26:	bd010113          	addi	sp,sp,-1072
    int* keys;
    int N = 53;
    int p = 3;
    int q = 101;

    int message[48] = {1, 1, 2, 1, 1, 1, 1, 2,1, 1, 0, 1, 1, 2, 1, 0,1, 2, 0, 1, 1, 1, 1, 0,1, 1, 0, 2, 1, 2, 1, 0, 1, 1, 2, 1, 1, 1, 1, 2, 1, 1, 2, 1, 1, 1, 1, 2};
     f2a:	0c000613          	li	a2,192
     f2e:	00000597          	auipc	a1,0x0
     f32:	20258593          	addi	a1,a1,514 # 1130 <_endtext+0xc0>
     f36:	0068                	addi	a0,sp,12
int main(){
     f38:	42112623          	sw	ra,1068(sp)
     f3c:	42812423          	sw	s0,1064(sp)
     f40:	42912223          	sw	s1,1060(sp)
     f44:	43212023          	sw	s2,1056(sp)

    // Alice generates public key from her randomly created secret keys.
  //  printf("\nKEY GENERATION STARTED \n");

 //   start = clock();
    resultkon[0] = 0xaaaaaaa0;
     f48:	aaaab4b7          	lui	s1,0xaaaab
    int message[48] = {1, 1, 2, 1, 1, 1, 1, 2,1, 1, 0, 1, 1, 2, 1, 0,1, 2, 0, 1, 1, 1, 1, 0,1, 1, 0, 2, 1, 2, 1, 0, 1, 1, 2, 1, 1, 1, 1, 2, 1, 1, 2, 1, 1, 1, 1, 2};
     f4c:	3d91                	jal	da0 <memcpy>
    resultkon[0] = 0xaaaaaaa0;
     f4e:	aa048793          	addi	a5,s1,-1376 # aaaaaaa0 <_stack_start+0xaaa9aaa0>
     f52:	00000417          	auipc	s0,0x0
     f56:	29e40413          	addi	s0,s0,670 # 11f0 <_edata>
    keys = generate_keys(N, p, q);
     f5a:	06500613          	li	a2,101
     f5e:	458d                	li	a1,3
     f60:	03500513          	li	a0,53
    resultkon[0] = 0xaaaaaaa0;
     f64:	c01c                	sw	a5,0(s0)
    resultkon[0] = 0xaaaaaaa1;
     f66:	aa148493          	addi	s1,s1,-1375
    keys = generate_keys(N, p, q);
     f6a:	3a9d                	jal	8e0 <generate_keys>
    resultkon[0] = 0xaaaaaaa1;
     f6c:	4781                	li	a5,0
     f6e:	c004                	sw	s1,0(s0)
   // printf("Secret Key f = ");
    for(i = 0; i < N; ++i){
     f70:	0d400713          	li	a4,212
  //      printf(" %d ", keys[i]);
        secret_key_f[i] = keys[i];
     f74:	00f506b3          	add	a3,a0,a5
     f78:	4290                	lw	a2,0(a3)
     f7a:	1314                	addi	a3,sp,416
     f7c:	96be                	add	a3,a3,a5
     f7e:	c290                	sw	a2,0(a3)
    for(i = 0; i < N; ++i){
     f80:	0791                	addi	a5,a5,4
     f82:	fee799e3          	bne	a5,a4,f74 <main+0x4e>
    }
  //  printf("\n");

 //   printf("Secret Key g = ");
    for(i = N; i < (2*N); ++i){
     f86:	1cd8                	addi	a4,sp,628
     f88:	1a850793          	addi	a5,a0,424
     f8c:	27c50693          	addi	a3,a0,636
     f90:	893a                	mv	s2,a4
  //  printf("\n");

  //  printf("Secret Key fp = ");
    for(i = (2*N); i < (3*N); ++i){
  //      printf(" %d ", keys[i]);
        secret_key_fp[i-(2*N)] = keys[i];
     f92:	4390                	lw	a2,0(a5)
     f94:	0791                	addi	a5,a5,4
     f96:	0711                	addi	a4,a4,4
     f98:	fec72e23          	sw	a2,-4(a4)
    for(i = (2*N); i < (3*N); ++i){
     f9c:	fed79be3          	bne	a5,a3,f92 <main+0x6c>
    }
  //  printf("\n");

 //   printf("Secret Key fq = ");
    for(i = (3*N); i < (4*N); ++i){
     fa0:	01f8                	addi	a4,sp,204
     fa2:	35050793          	addi	a5,a0,848
     fa6:	42450613          	addi	a2,a0,1060
     faa:	86ba                	mv	a3,a4
 //   printf("\n");

//    printf("Public Key h = ");
    for(i = (4*N); i < (5*N); ++i){
//        printf(" %d ", keys[i]);
        public_key[i-(4*N)] = keys[i];
     fac:	438c                	lw	a1,0(a5)
     fae:	0791                	addi	a5,a5,4
     fb0:	0711                	addi	a4,a4,4
     fb2:	feb72e23          	sw	a1,-4(a4)
    for(i = (4*N); i < (5*N); ++i){
     fb6:	fec79be3          	bne	a5,a2,fac <main+0x86>
     fba:	06b0                	addi	a2,sp,840
     fbc:	4fc50513          	addi	a0,a0,1276
     fc0:	8832                	mv	a6,a2
 //   printf("\n");

 //   printf("Ring Poly = ");
    for(i = (5*N); i < (6*N+1); ++i){
  //      printf(" %d ", keys[i]);
        ring_poly[i-(5*N)] = keys[i];
     fc2:	4398                	lw	a4,0(a5)
     fc4:	0791                	addi	a5,a5,4
     fc6:	0611                	addi	a2,a2,4
     fc8:	fee62e23          	sw	a4,-4(a2)
    for(i = (5*N); i < (6*N+1); ++i){
     fcc:	fea79be3          	bne	a5,a0,fc2 <main+0x9c>
    }
 //   printf("\nKEY GENERATION FINISHED \n");

    // Bob encrypts message using Alice's public key and sends it to Alice.
  //  printf("\nENCRYPTION STARTED\n");
    resultkon[0] = 0xbbbbbbb0;
     fd0:	bbbbc4b7          	lui	s1,0xbbbbc
     fd4:	bb048793          	addi	a5,s1,-1104 # bbbbbbb0 <_stack_start+0xbbbabbb0>
    Enc_Message = ntru_encyrpt(N, q, message, public_key, ring_poly);
     fd8:	8742                	mv	a4,a6
     fda:	0070                	addi	a2,sp,12
     fdc:	06500593          	li	a1,101
    resultkon[0] = 0xbbbbbbb1;
     fe0:	bb148493          	addi	s1,s1,-1103
    Enc_Message = ntru_encyrpt(N, q, message, public_key, ring_poly);
     fe4:	03500513          	li	a0,53
    resultkon[0] = 0xbbbbbbb0;
     fe8:	c01c                	sw	a5,0(s0)
    Enc_Message = ntru_encyrpt(N, q, message, public_key, ring_poly);
     fea:	36e5                	jal	bd2 <ntru_encyrpt>
    resultkon[0] = 0xbbbbbbb1;
     fec:	c004                	sw	s1,0(s0)
 //   }
//    printf("\nENCRYPTION FINISHED\n");

    // Alice decrypts the message using her secret keys.
 //   printf("\nDECRYPTION STARTED\n");
    resultkon[0] = 0xccccccc0;
     fee:	ccccd4b7          	lui	s1,0xccccd
     ff2:	cc048713          	addi	a4,s1,-832 # ccccccc0 <_stack_start+0xcccbccc0>
    Enc_Message = ntru_encyrpt(N, q, message, public_key, ring_poly);
     ff6:	87aa                	mv	a5,a0
    resultkon[0] = 0xccccccc0;
     ff8:	c018                	sw	a4,0(s0)
    Dec_Message = ntru_deceypt(N, p, q, secret_key_f, secret_key_fp, Enc_Message, ring_poly);
     ffa:	458d                	li	a1,3
     ffc:	874a                	mv	a4,s2
     ffe:	34810813          	addi	a6,sp,840
    1002:	1314                	addi	a3,sp,416
    1004:	06500613          	li	a2,101
    1008:	03500513          	li	a0,53
    100c:	39a9                	jal	c66 <ntru_deceypt>
    resultkon[0] = 0xccccccc1;	
    100e:	cc148493          	addi	s1,s1,-831
            resultkon[0] = 0xBABABABA;
 	   
            break;	}
        else{
  //          printf("*OPERATION SUCCCESSFUL*\n");
            resultkon[0] = 0xDEDEDEDE;
    1012:	dedee737          	lui	a4,0xdedee
    resultkon[0] = 0xccccccc1;	
    1016:	c004                	sw	s1,0(s0)
    1018:	4781                	li	a5,0
            resultkon[0] = 0xDEDEDEDE;
    101a:	ede70713          	addi	a4,a4,-290 # dededede <_stack_start+0xdedddede>
    for(i = 0; i < 32; ++i){
    101e:	08000593          	li	a1,128
        if(!(message[i] == Dec_Message[i])){
    1022:	0070                	addi	a2,sp,12
    1024:	00f506b3          	add	a3,a0,a5
    1028:	963e                	add	a2,a2,a5
    102a:	4210                	lw	a2,0(a2)
    102c:	4294                	lw	a3,0(a3)
    102e:	02d60363          	beq	a2,a3,1054 <main+0x12e>
            resultkon[0] = 0xBABABABA;
    1032:	babac7b7          	lui	a5,0xbabac
    1036:	aba78793          	addi	a5,a5,-1350 # babababa <_stack_start+0xbab9baba>
    103a:	c01c                	sw	a5,0(s0)
		}
    }
			

    return 0;
}
    103c:	42c12083          	lw	ra,1068(sp)
    1040:	42812403          	lw	s0,1064(sp)
    1044:	42412483          	lw	s1,1060(sp)
    1048:	42012903          	lw	s2,1056(sp)
    104c:	4501                	li	a0,0
    104e:	43010113          	addi	sp,sp,1072
    1052:	8082                	ret
            resultkon[0] = 0xDEDEDEDE;
    1054:	c018                	sw	a4,0(s0)
    for(i = 0; i < 32; ++i){
    1056:	0791                	addi	a5,a5,4
    1058:	fcb795e3          	bne	a5,a1,1022 <main+0xfc>
    105c:	b7c5                	j	103c <main+0x116>

0000105e <__CTOR_LIST__>:
	...

00001066 <__CTOR_END__>:
	...

0000106e <__DTOR_END__>:
	...
