
mac.elf:     file format elf32-littleriscv


Disassembly of section .vectors:

00000000 <_stack_start-0x10000>:
  // external interrupts are handled by the same callback
  // until compiler supports IRQ routines
  .org 0x00
  .rept 31
  nop
  .endr
   0:	00000013          	nop
   4:	00000013          	nop
   8:	00000013          	nop
   c:	00000013          	nop
  10:	00000013          	nop
  14:	00000013          	nop
  18:	00000013          	nop
  1c:	00000013          	nop
  20:	00000013          	nop
  24:	00000013          	nop
  28:	00000013          	nop
  2c:	00000013          	nop
  30:	00000013          	nop
  34:	00000013          	nop
  38:	00000013          	nop
  3c:	00000013          	nop
  40:	00000013          	nop
  44:	00000013          	nop
  48:	00000013          	nop
  4c:	00000013          	nop
  50:	00000013          	nop
  54:	00000013          	nop
  58:	00000013          	nop
  5c:	00000013          	nop
  60:	00000013          	nop
  64:	00000013          	nop
  68:	00000013          	nop
  6c:	00000013          	nop
  70:	00000013          	nop
  74:	00000013          	nop
  78:	00000013          	nop
  jal x0, default_exc_handler
  7c:	0100006f          	j	8c <_stext>

  // reset vector
  .org 0x80
  jal x0, reset_handler
  80:	0100006f          	j	90 <reset_handler>

  // illegal instruction exception
  .org 0x84
  jal x0, default_exc_handler
  84:	0080006f          	j	8c <_stext>

  // ecall handler
  .org 0x88
  jal x0, default_exc_handler
  88:	0040006f          	j	8c <_stext>

Disassembly of section .text:

0000008c <_stext>:
  jal x0, default_exc_handler
  8c:	0000006f          	j	8c <_stext>

00000090 <reset_handler>:
  mv  x1, x0
  90:	00000093          	li	ra,0
  mv  x2, x1
  94:	8106                	mv	sp,ra
  mv  x3, x1
  96:	8186                	mv	gp,ra
  mv  x4, x1
  98:	8206                	mv	tp,ra
  mv  x5, x1
  9a:	8286                	mv	t0,ra
  mv  x6, x1
  9c:	8306                	mv	t1,ra
  mv  x7, x1
  9e:	8386                	mv	t2,ra
  mv  x8, x1
  a0:	8406                	mv	s0,ra
  mv  x9, x1
  a2:	8486                	mv	s1,ra
  mv x10, x1
  a4:	8506                	mv	a0,ra
  mv x11, x1
  a6:	8586                	mv	a1,ra
  mv x12, x1
  a8:	8606                	mv	a2,ra
  mv x13, x1
  aa:	8686                	mv	a3,ra
  mv x14, x1
  ac:	8706                	mv	a4,ra
  mv x15, x1
  ae:	8786                	mv	a5,ra
  mv x16, x1
  b0:	8806                	mv	a6,ra
  mv x17, x1
  b2:	8886                	mv	a7,ra
  mv x18, x1
  b4:	8906                	mv	s2,ra
  mv x19, x1
  b6:	8986                	mv	s3,ra
  mv x20, x1
  b8:	8a06                	mv	s4,ra
  mv x21, x1
  ba:	8a86                	mv	s5,ra
  mv x22, x1
  bc:	8b06                	mv	s6,ra
  mv x23, x1
  be:	8b86                	mv	s7,ra
  mv x24, x1
  c0:	8c06                	mv	s8,ra
  mv x25, x1
  c2:	8c86                	mv	s9,ra
  mv x26, x1
  c4:	8d06                	mv	s10,ra
  mv x27, x1
  c6:	8d86                	mv	s11,ra
  mv x28, x1
  c8:	8e06                	mv	t3,ra
  mv x29, x1
  ca:	8e86                	mv	t4,ra
  mv x30, x1
  cc:	8f06                	mv	t5,ra
  mv x31, x1
  ce:	8f86                	mv	t6,ra
  la   x2, _stack_start
  d0:	00010117          	auipc	sp,0x10
  d4:	f3010113          	addi	sp,sp,-208 # 10000 <_stack_start>

000000d8 <_start>:
  la x26, _bss_start
  d8:	13800d13          	li	s10,312
  la x27, _bss_end
  dc:	14800d93          	li	s11,328
  bge x26, x27, zero_loop_end
  e0:	01bd5763          	bge	s10,s11,ee <main_entry>

000000e4 <zero_loop>:
  sw x0, 0(x26)
  e4:	000d2023          	sw	zero,0(s10)
  addi x26, x26, 4
  e8:	0d11                	addi	s10,s10,4
  ble x26, x27, zero_loop
  ea:	ffaddde3          	bge	s11,s10,e4 <zero_loop>

000000ee <main_entry>:
  addi x10, x0, 0
  ee:	00000513          	li	a0,0
  addi x11, x0, 0
  f2:	00000593          	li	a1,0
  jal x1, main
  f6:	004000ef          	jal	ra,fa <main>

000000fa <main>:


static int a0;

// array assignment
	global_array[0] = a1;
  fa:	6729                	lui	a4,0xa
  fc:	13c00793          	li	a5,316
 100:	a2b70713          	addi	a4,a4,-1493 # 9a2b <_stack_len+0x5a2b>
 104:	c398                	sw	a4,0(a5)
	global_array[1] = a2;
 106:	6721                	lui	a4,0x8
 108:	a5d70713          	addi	a4,a4,-1443 # 7a5d <_stack_len+0x3a5d>
 10c:	c3d8                	sw	a4,4(a5)
	global_array[2] = a3;
 10e:	670d                	lui	a4,0x3
 110:	0765                	addi	a4,a4,25
 112:	c798                	sw	a4,8(a5)
//


static int length = sizeof(global_array)/4;

  asm volatile(
 114:	470d                	li	a4,3
 116:	02e7f78b          	0x2e7f78b
 11a:	12f02c23          	sw	a5,312(zero) # 138 <_endtext>
// (a+b)*c :: HEDEF! cevap = 871661896

// unsigned int sonuc = a+b+c;
//*var = custom(a,b,c);

*var = custom(a,b,c);
 11e:	6731                	lui	a4,0xc
 120:	cb1c                	sw	a5,16(a4)

return 0;
}
 122:	4501                	li	a0,0
 124:	8082                	ret

00000126 <__CTOR_LIST__>:
	...

0000012e <__CTOR_END__>:
	...

00000136 <__DTOR_END__>:
	...

Disassembly of section .bss:

00000138 <_bss_start>:
 138:	0000                	unimp
	...

0000013c <global_array>:
	...

Disassembly of section .stack:

0000c000 <_stack-0x2000>:
	...

Disassembly of section .debug_info:

00000000 <.debug_info>:
  .endr
   0:	0000015b          	0x15b
   4:	0004                	0x4
   6:	0000                	unimp
   8:	0000                	unimp
   a:	0104                	addi	s1,sp,128
   c:	0089                	addi	ra,ra,2
   e:	0000                	unimp
  10:	590c                	lw	a1,48(a0)
  12:	0000                	unimp
  14:	0700                	addi	s0,sp,896
	...
  22:	0000                	unimp
  24:	0200                	addi	s0,sp,256
  26:	0601                	addi	a2,a2,0
  28:	003a                	c.slli	zero,0xe
  2a:	0000                	unimp
  2c:	0102                	c.slli64	sp
  2e:	3808                	fld	fa0,48(s0)
  30:	0000                	unimp
  32:	0200                	addi	s0,sp,256
  34:	0502                	c.slli64	a0
  36:	000000eb          	0xeb
  3a:	0202                	c.slli64	tp
  3c:	00004607          	flq	fa2,0(zero) # 0 <__DYNAMIC>
  40:	0200                	addi	s0,sp,256
  42:	0504                	addi	s1,sp,640
  44:	0080                	addi	s0,sp,64
  46:	0000                	unimp
  48:	0402                	c.slli64	s0
  4a:	00006907          	0x6907
  4e:	0200                	addi	s0,sp,256
  50:	0508                	addi	a0,sp,640
  52:	0000007b          	0x7b
  56:	0802                	c.slli64	a6
  58:	00006407          	0x6407
  5c:	0300                	addi	s0,sp,384
  5e:	0504                	addi	s1,sp,640
  60:	6e69                	lui	t3,0x1a
  62:	0074                	addi	a3,sp,12
  64:	0402                	c.slli64	s0
  66:	00006e07          	0x6e07
  6a:	0400                	addi	s0,sp,512
  6c:	0064                	addi	s1,sp,12
  6e:	0000                	unimp
  70:	6405                	lui	s0,0x1
  72:	0000                	unimp
  74:	8000                	0x8000
  76:	0000                	unimp
  78:	0600                	addi	s0,sp,768
  7a:	0064                	addi	s1,sp,12
  jal x0, default_exc_handler
  7c:	0000                	unimp
  7e:	0002                	c.slli64	zero
  jal x0, reset_handler
  80:	0000f507          	0xf507
  jal x0, default_exc_handler
  84:	0100                	addi	s0,sp,128
  86:	00700e07          	0x700e07
  jal x0, default_exc_handler
  8a:	0000                	unimp
  jal x0, default_exc_handler
  8c:	0305                	addi	t1,t1,1
  8e:	013c                	addi	a5,sp,136
  mv  x1, x0
  90:	0000                	unimp
  92:	5f08                	lw	a0,56(a4)
  mv  x2, x1
  94:	0000                	unimp
  mv  x3, x1
  96:	0100                	addi	s0,sp,128
  mv  x4, x1
  98:	0524                	addi	s1,sp,648
  mv  x5, x1
  9a:	005d                	c.nop	23
  mv  x6, x1
  9c:	0000                	unimp
  mv  x7, x1
  9e:	00fa                	slli	ra,ra,0x1e
  mv  x8, x1
  a0:	0000                	unimp
  mv  x9, x1
  a2:	002c                	addi	a1,sp,8
  mv x10, x1
  a4:	0000                	unimp
  mv x11, x1
  a6:	9c01                	0x9c01
  mv x12, x1
  a8:	0000010b          	0x10b
  mv x14, x1
  ac:	6109                	addi	sp,sp,128
  mv x15, x1
  ae:	0100                	addi	s0,sp,128
  mv x16, x1
  b0:	1026                	c.slli	zero,0x29
  mv x17, x1
  b2:	0064                	addi	s1,sp,12
  mv x18, x1
  b4:	0000                	unimp
  mv x19, x1
  b6:	62099a2b          	0x62099a2b
  mv x21, x1
  ba:	0100                	addi	s0,sp,128
  mv x22, x1
  bc:	00641027          	0x641027
  mv x24, x1
  c0:	0000                	unimp
  mv x25, x1
  c2:	7a5d                	lui	s4,0xffff7
  mv x26, x1
  c4:	6309                	lui	t1,0x2
  mv x27, x1
  c6:	0100                	addi	s0,sp,128
  mv x28, x1
  c8:	1028                	addi	a0,sp,40
  mv x29, x1
  ca:	0064                	addi	s1,sp,12
  mv x30, x1
  cc:	0000                	unimp
  mv x31, x1
  ce:	3019                	jal	fffff8d4 <_stack_start+0xfffef8d4>
  la   x2, _stack_start
  d0:	7609                	lui	a2,0xfffe2
  d2:	7261                	lui	tp,0xffff8
  d4:	0100                	addi	s0,sp,128
  d6:	192a                	slli	s2,s2,0x2a
  la x26, _bss_start
  d8:	0000010b          	0x10b
  la x27, _bss_end
  dc:	c010                	sw	a2,0(s0)
  de:	110a                	slli	sp,sp,0x22
  bge x26, x27, zero_loop_end
  e0:	0001                	nop
  e2:	fa00                	fsw	fs0,48(a2)
  sw x0, 0(x26)
  e4:	0000                	unimp
  e6:	2400                	fld	fs0,8(s0)
  addi x26, x26, 4
  e8:	0000                	unimp
  ble x26, x27, zero_loop
  ea:	0100                	addi	s0,sp,128
  ec:	0831                	addi	a6,a6,12
  addi x10, x0, 0
  ee:	00011e0b          	0x11e0b
  addi x11, x0, 0
  f2:	0000                	unimp
  f4:	0000                	unimp
  jal x1, main
  f6:	0b00                	addi	s0,sp,400
  f8:	0129                	addi	sp,sp,10
	global_array[0] = a1;
  fa:	0000                	unimp
  fc:	0016                	c.slli	zero,0x5
  fe:	0000                	unimp
 100:	0001340b          	0x1340b
 104:	2c00                	fld	fs0,24(s0)
	global_array[1] = a2;
 106:	0000                	unimp
 108:	0000                	unimp
 10a:	0c00                	addi	s0,sp,528
 10c:	6b04                	flw	fs1,16(a4)
	global_array[2] = a3;
 10e:	0000                	unimp
 110:	0d00                	addi	s0,sp,656
 112:	0000                	unimp
  asm volatile(
 114:	0000                	unimp
 116:	0a01                	addi	s4,s4,0
 118:	5d0c                	lw	a1,56(a0)
 11a:	0000                	unimp
 11c:	0100                	addi	s0,sp,128
*var = custom(a,b,c);
 11e:	610e                	flw	ft2,192(sp)
 120:	0031                	c.nop	12
}
 122:	0a01                	addi	s4,s4,0
 124:	6420                	flw	fs0,72(s0)
 126:	0000                	unimp
 128:	0e00                	addi	s0,sp,784
 12a:	3261                	jal	fffffab2 <_stack_start+0xfffefab2>
 12c:	0100                	addi	s0,sp,128
 12e:	310a                	fld	ft2,160(sp)
 130:	0064                	addi	s1,sp,12
 132:	0000                	unimp
 134:	610e                	flw	ft2,192(sp)
 136:	0a010033          	0xa010033
 13a:	6442                	flw	fs0,16(sp)
 13c:	0000                	unimp
 13e:	0f00                	addi	s0,sp,912
 140:	3061                	jal	fffff9c8 <_stack_start+0xfffef9c8>
 142:	0100                	addi	s0,sp,128
 144:	0c0d                	addi	s8,s8,3
 146:	005d                	c.nop	23
 148:	0000                	unimp
 14a:	0305                	addi	t1,t1,1
 14c:	0138                	addi	a4,sp,136
 14e:	0000                	unimp
 150:	0210                	addi	a2,sp,256
 152:	0001                	nop
 154:	0100                	addi	s0,sp,128
 156:	0c16                	slli	s8,s8,0x5
 158:	005d                	c.nop	23
 15a:	0000                	unimp
 15c:	1e000003          	lb	zero,480(zero) # 1e0 <_bss_end+0x98>
 160:	0000                	unimp
 162:	0200                	addi	s0,sp,256
 164:	ea00                	fsw	fs0,16(a2)
 166:	0000                	unimp
 168:	0400                	addi	s0,sp,512
 16a:	c501                	beqz	a0,172 <_bss_end+0x2a>
 16c:	0000                	unimp
 16e:	1000                	addi	s0,sp,32
 170:	0000                	unimp
 172:	0900                	addi	s0,sp,144
 174:	0001                	nop
 176:	0700                	addi	s0,sp,896
 178:	0000                	unimp
 17a:	1000                	addi	s0,sp,32
 17c:	0001                	nop
 17e:	0100                	addi	s0,sp,128
 180:	80              	Address 0x0000000000000180 is out of bounds.


Disassembly of section .debug_abbrev:

00000000 <.debug_abbrev>:
  .endr
   0:	1101                	addi	sp,sp,-32
   2:	2501                	jal	602 <_bss_end+0x4ba>
   4:	130e                	slli	t1,t1,0x23
   6:	1b0e030b          	0x1b0e030b
   a:	550e                	lw	a0,224(sp)
   c:	10011117          	auipc	sp,0x10011
  10:	02000017          	auipc	zero,0x2000
  14:	0024                	addi	s1,sp,8
  16:	0b3e0b0b          	0xb3e0b0b
  1a:	00000e03          	lb	t3,0(zero) # 0 <__DYNAMIC>
  1e:	0b002403          	lw	s0,176(zero) # b0 <reset_handler+0x20>
  22:	030b3e0b          	0x30b3e0b
  26:	0008                	0x8
  28:	0400                	addi	s0,sp,512
  2a:	0035                	c.nop	13
  2c:	1349                	addi	t1,t1,-14
  2e:	0000                	unimp
  30:	0105                	addi	sp,sp,1
  32:	4901                	li	s2,0
  34:	00130113          	addi	sp,t1,1 # 2001 <_min_stack+0x1>
  38:	0600                	addi	s0,sp,768
  3a:	0021                	c.nop	8
  3c:	1349                	addi	t1,t1,-14
  3e:	00000b2f          	0xb2f
  42:	03003407          	fld	fs0,48(zero) # 30 <__DYNAMIC+0x30>
  46:	3a0e                	fld	fs4,224(sp)
  48:	390b3b0b          	0x390b3b0b
  4c:	3f13490b          	0x3f13490b
  50:	0219                	addi	tp,tp,6
  52:	0018                	0x18
  54:	0800                	addi	s0,sp,16
  56:	012e                	slli	sp,sp,0xb
  58:	0e03193f 0b3b0b3a 	0xb3b0b3a0e03193f
  60:	0b39                	addi	s6,s6,14
  62:	1349                	addi	t1,t1,-14
  64:	0111                	addi	sp,sp,4
  66:	0612                	slli	a2,a2,0x4
  68:	1840                	addi	s0,sp,52
  6a:	01194297          	auipc	t0,0x1194
  6e:	09000013          	li	zero,144
  72:	0034                	addi	a3,sp,8
  74:	0b3a0803          	lb	a6,179(s4) # ffff70b3 <_stack_start+0xfffe70b3>
  78:	0b390b3b          	0xb390b3b
  jal x0, default_exc_handler
  7c:	1349                	addi	t1,t1,-14
  7e:	051c                	addi	a5,sp,640
  jal x0, reset_handler
  80:	0000                	unimp
  82:	1d0a                	slli	s10,s10,0x22
  jal x0, default_exc_handler
  84:	3101                	jal	fffffc84 <_stack_start+0xfffefc84>
  86:	12011113          	0x12011113
  jal x0, default_exc_handler
  8a:	5806                	lw	a6,96(sp)
  jal x0, default_exc_handler
  8c:	570b590b          	0x570b590b
  mv  x1, x0
  90:	0b00000b          	0xb00000b
  mv  x2, x1
  94:	0005                	c.nop	1
  mv  x3, x1
  96:	1331                	addi	t1,t1,-20
  mv  x4, x1
  98:	1702                	slli	a4,a4,0x20
  mv  x5, x1
  9a:	0000                	unimp
  mv  x6, x1
  9c:	0f0c                	addi	a1,sp,912
  mv  x7, x1
  9e:	0b00                	addi	s0,sp,400
  mv  x8, x1
  a0:	0013490b          	0x13490b
  mv x10, x1
  a4:	0d00                	addi	s0,sp,656
  mv x11, x1
  a6:	012e                	slli	sp,sp,0xb
  mv x12, x1
  a8:	0b3a0e03          	lb	t3,179(s4)
  mv x14, x1
  ac:	0b390b3b          	0xb390b3b
  mv x16, x1
  b0:	13491927          	0x13491927
  mv x18, x1
  b4:	0b20                	addi	s0,sp,408
  mv x19, x1
  b6:	0000                	unimp
  mv x20, x1
  b8:	050e                	slli	a0,a0,0x3
  mv x21, x1
  ba:	0300                	addi	s0,sp,384
  mv x22, x1
  bc:	3a08                	fld	fa0,48(a2)
  mv x23, x1
  be:	390b3b0b          	0x390b3b0b
  mv x25, x1
  c2:	0013490b          	0x13490b
  mv x27, x1
  c6:	0f00                	addi	s0,sp,912
  mv x28, x1
  c8:	0034                	addi	a3,sp,8
  mv x29, x1
  ca:	0b3a0803          	lb	a6,179(s4)
  mv x31, x1
  ce:	0b390b3b          	0xb390b3b
  la   x2, _stack_start
  d2:	1349                	addi	t1,t1,-14
  d4:	1802                	slli	a6,a6,0x20
  d6:	0000                	unimp
  la x26, _bss_start
  d8:	3410                	fld	fa2,40(s0)
  da:	0300                	addi	s0,sp,384
  la x27, _bss_end
  dc:	3a0e                	fld	fs4,224(sp)
  de:	390b3b0b          	0x390b3b0b
  bge x26, x27, zero_loop_end
  e2:	1c13490b          	0x1c13490b
  sw x0, 0(x26)
  e6:	0000000b          	0xb
  ble x26, x27, zero_loop
  ea:	1101                	addi	sp,sp,-32
  ec:	1000                	addi	s0,sp,32
  addi x10, x0, 0
  ee:	5506                	lw	a0,96(sp)
  f0:	0306                	slli	t1,t1,0x1
  addi x11, x0, 0
  f2:	1b0e                	slli	s6,s6,0x23
  f4:	250e                	fld	fa0,192(sp)
  jal x1, main
  f6:	130e                	slli	t1,t1,0x23
  f8:	0005                	c.nop	1
	...

Disassembly of section .debug_loc:

00000000 <.debug_loc>:
  .endr
   0:	00fa                	slli	ra,ra,0x1e
   2:	0000                	unimp
   4:	011e                	slli	sp,sp,0x7
   6:	0000                	unimp
   8:	0004                	0x4
   a:	2b0a                	fld	fs6,128(sp)
   c:	9f9a                	add	t6,t6,t1
	...
  16:	00fa                	slli	ra,ra,0x1e
  18:	0000                	unimp
  1a:	011e                	slli	sp,sp,0x7
  1c:	0000                	unimp
  1e:	0004                	0x4
  20:	5d0a                	lw	s10,160(sp)
  22:	9f7a                	add	t5,t5,t5
	...
  2c:	00fa                	slli	ra,ra,0x1e
  2e:	0000                	unimp
  30:	011e                	slli	sp,sp,0x7
  32:	0000                	unimp
  34:	0004                	0x4
  36:	190a                	slli	s2,s2,0x22
  38:	9f30                	0x9f30
	...

Disassembly of section .debug_aranges:

00000000 <.debug_aranges>:
   0:	001c                	0x1c
   2:	0000                	unimp
   4:	0002                	c.slli64	zero
   6:	0000                	unimp
   8:	0000                	unimp
   a:	0004                	0x4
   c:	0000                	unimp
   e:	0000                	unimp
  10:	00fa                	slli	ra,ra,0x1e
  12:	0000                	unimp
  14:	002c                	addi	a1,sp,8
	...
  1e:	0000                	unimp
  20:	0024                	addi	s1,sp,8
  22:	0000                	unimp
  24:	0002                	c.slli64	zero
  26:	015f 0000 0004      	0x40000015f
  2c:	0000                	unimp
  2e:	0000                	unimp
  30:	008c                	addi	a1,sp,64
  32:	0000                	unimp
  34:	006e                	c.slli	zero,0x1b
  36:	0000                	unimp
  38:	0000                	unimp
  3a:	0000                	unimp
  3c:	008c                	addi	a1,sp,64
	...

Disassembly of section .debug_ranges:

00000000 <.debug_ranges>:
   0:	00fa                	slli	ra,ra,0x1e
   2:	0000                	unimp
   4:	0126                	slli	sp,sp,0x9
	...
   e:	0000                	unimp
  10:	ffff                	0xffff
  12:	ffff                	0xffff
  14:	0000                	unimp
  16:	0000                	unimp
  18:	008c                	addi	a1,sp,64
  1a:	0000                	unimp
  1c:	00fa                	slli	ra,ra,0x1e
  1e:	0000                	unimp
  20:	0000                	unimp
  22:	0000                	unimp
  24:	008c                	addi	a1,sp,64
	...

Disassembly of section .debug_line:

00000000 <.debug_line>:
   0:	00c1                	addi	ra,ra,16
   2:	0000                	unimp
   4:	001c0003          	lb	zero,1(s8)
   8:	0000                	unimp
   a:	0101                	addi	sp,sp,0
   c:	000d0efb          	0xd0efb
  10:	0101                	addi	sp,sp,0
  12:	0101                	addi	sp,sp,0
  14:	0000                	unimp
  16:	0100                	addi	s0,sp,128
  18:	0000                	unimp
  1a:	0001                	nop
  1c:	616d                	addi	sp,sp,240
  1e:	00632e63          	0x632e63
  22:	0000                	unimp
  24:	0000                	unimp
  26:	0c05                	addi	s8,s8,1
  28:	0500                	addi	s0,sp,640
  2a:	fa02                	fsw	ft0,52(sp)
  2c:	0000                	unimp
  2e:	0300                	addi	s0,sp,384
  30:	01050123          	sb	a6,2(a0)
  34:	00090203          	lb	tp,0(s2)
  38:	0100                	addi	s0,sp,128
  3a:	00090103          	lb	sp,0(s2)
  3e:	0100                	addi	s0,sp,128
  40:	00090103          	lb	sp,0(s2)
  44:	0100                	addi	s0,sp,128
  46:	00090203          	lb	tp,0(s2)
  4a:	0100                	addi	s0,sp,128
  4c:	00090703          	lb	a4,0(s2)
  50:	0100                	addi	s0,sp,128
  52:	00095c03          	lhu	s8,0(s2)
  56:	0100                	addi	s0,sp,128
  58:	0205                	addi	tp,tp,1
  5a:	00090303          	lb	t1,0(s2)
  5e:	0100                	addi	s0,sp,128
  60:	1205                	addi	tp,tp,-31
  62:	0306                	slli	t1,t1,0x1
  64:	0900                	addi	s0,sp,144
  66:	0000                	unimp
  68:	0501                	addi	a0,a0,0
  6a:	0602                	c.slli64	a2
  6c:	0c090103          	lb	sp,192(s2)
  70:	0100                	addi	s0,sp,128
  72:	1205                	addi	tp,tp,-31
  74:	0306                	slli	t1,t1,0x1
  76:	0900                	addi	s0,sp,144
  78:	0000                	unimp
  7a:	0501                	addi	a0,a0,0
  jal x0, default_exc_handler
  7c:	0602                	c.slli64	a2
  7e:	08090103          	lb	sp,128(s2)
  jal x0, reset_handler
  82:	0100                	addi	s0,sp,128
  jal x0, default_exc_handler
  84:	1205                	addi	tp,tp,-31
  86:	0306                	slli	t1,t1,0x1
  jal x0, default_exc_handler
  88:	0900                	addi	s0,sp,144
  8a:	0000                	unimp
  jal x0, default_exc_handler
  8c:	0501                	addi	a0,a0,0
  8e:	0601                	addi	a2,a2,0
  mv  x1, x0
  90:	06090403          	lb	s0,96(s2)
  mv  x2, x1
  94:	0100                	addi	s0,sp,128
  mv  x3, x1
  96:	0305                	addi	t1,t1,1
  mv  x4, x1
  98:	00090203          	lb	tp,0(s2)
  mv  x6, x1
  9c:	0100                	addi	s0,sp,128
  mv  x7, x1
  9e:	0105                	addi	sp,sp,1
  mv  x8, x1
  a0:	0a090903          	lb	s2,160(s2)
  mv x10, x1
  a4:	0100                	addi	s0,sp,128
  mv x11, x1
  a6:	0605                	addi	a2,a2,1
  mv x12, x1
  a8:	0306                	slli	t1,t1,0x1
  mv x13, x1
  aa:	0910                	addi	a2,sp,144
  mv x14, x1
  ac:	0000                	unimp
  mv x15, x1
  ae:	0501                	addi	a0,a0,0
  mv x16, x1
  b0:	0601                	addi	a2,a2,0
  mv x17, x1
  b2:	04090203          	lb	tp,64(s2)
  mv x19, x1
  b6:	0100                	addi	s0,sp,128
  mv x20, x1
  b8:	0306                	slli	t1,t1,0x1
  mv x21, x1
  ba:	0901                	addi	s2,s2,0
  mv x22, x1
  bc:	0000                	unimp
  mv x23, x1
  be:	0901                	addi	s2,s2,0
  mv x24, x1
  c0:	0004                	0x4
  mv x25, x1
  c2:	0100                	addi	s0,sp,128
  mv x26, x1
  c4:	5001                	c.li	zero,-32
  mv x27, x1
  c6:	0001                	nop
  mv x28, x1
  c8:	0300                	addi	s0,sp,384
  mv x29, x1
  ca:	1d00                	addi	s0,sp,688
  mv x30, x1
  cc:	0000                	unimp
  mv x31, x1
  ce:	0100                	addi	s0,sp,128
  la   x2, _stack_start
  d0:	fb01                	bnez	a4,ffffffe0 <_stack_start+0xfffeffe0>
  d2:	0d0e                	slli	s10,s10,0x3
  d4:	0100                	addi	s0,sp,128
  d6:	0101                	addi	sp,sp,0
  la x26, _bss_start
  d8:	0001                	nop
  da:	0000                	unimp
  la x27, _bss_end
  dc:	0001                	nop
  de:	0100                	addi	s0,sp,128
  bge x26, x27, zero_loop_end
  e0:	6300                	flw	fs0,0(a4)
  e2:	7472                	flw	fs0,60(sp)
  sw x0, 0(x26)
  e4:	2e30                	fld	fa2,88(a2)
  e6:	00000053          	fadd.s	ft0,ft0,ft0,rne
  ble x26, x27, zero_loop
  ea:	0000                	unimp
  ec:	0500                	addi	s0,sp,640
  addi x10, x0, 0
  ee:	8c02                	jr	s8
  f0:	0000                	unimp
  addi x11, x0, 0
  f2:	1500                	addi	s0,sp,672
  f4:	04090403          	lb	s0,64(s2)
  jal x1, main
  f8:	0100                	addi	s0,sp,128
	global_array[0] = a1;
  fa:	04090103          	lb	sp,64(s2)
  fe:	0100                	addi	s0,sp,128
 100:	02090103          	lb	sp,32(s2)
 104:	0100                	addi	s0,sp,128
	global_array[1] = a2;
 106:	02090103          	lb	sp,32(s2)
 10a:	0100                	addi	s0,sp,128
 10c:	02090103          	lb	sp,32(s2)
	global_array[2] = a3;
 110:	0100                	addi	s0,sp,128
 112:	02090103          	lb	sp,32(s2)
  asm volatile(
 116:	0100                	addi	s0,sp,128
 118:	02090103          	lb	sp,32(s2)
 11c:	0100                	addi	s0,sp,128
*var = custom(a,b,c);
 11e:	02090103          	lb	sp,32(s2)
}
 122:	0100                	addi	s0,sp,128
 124:	02090103          	lb	sp,32(s2)
 128:	0100                	addi	s0,sp,128
 12a:	02090103          	lb	sp,32(s2)
 12e:	0100                	addi	s0,sp,128
 130:	02090103          	lb	sp,32(s2)
 134:	0100                	addi	s0,sp,128
 136:	02090103          	lb	sp,32(s2)
 13a:	0100                	addi	s0,sp,128
 13c:	02090103          	lb	sp,32(s2)
 140:	0100                	addi	s0,sp,128
 142:	02090103          	lb	sp,32(s2)
 146:	0100                	addi	s0,sp,128
 148:	02090103          	lb	sp,32(s2)
 14c:	0100                	addi	s0,sp,128
 14e:	02090103          	lb	sp,32(s2)
 152:	0100                	addi	s0,sp,128
 154:	02090103          	lb	sp,32(s2)
 158:	0100                	addi	s0,sp,128
 15a:	02090103          	lb	sp,32(s2)
 15e:	0100                	addi	s0,sp,128
 160:	02090103          	lb	sp,32(s2)
 164:	0100                	addi	s0,sp,128
 166:	02090103          	lb	sp,32(s2)
 16a:	0100                	addi	s0,sp,128
 16c:	02090103          	lb	sp,32(s2)
 170:	0100                	addi	s0,sp,128
 172:	02090103          	lb	sp,32(s2)
 176:	0100                	addi	s0,sp,128
 178:	02090103          	lb	sp,32(s2)
 17c:	0100                	addi	s0,sp,128
 17e:	02090103          	lb	sp,32(s2)
 182:	0100                	addi	s0,sp,128
 184:	02090103          	lb	sp,32(s2)
 188:	0100                	addi	s0,sp,128
 18a:	02090103          	lb	sp,32(s2)
 18e:	0100                	addi	s0,sp,128
 190:	02090103          	lb	sp,32(s2)
 194:	0100                	addi	s0,sp,128
 196:	02090103          	lb	sp,32(s2)
 19a:	0100                	addi	s0,sp,128
 19c:	02090103          	lb	sp,32(s2)
 1a0:	0100                	addi	s0,sp,128
 1a2:	02090103          	lb	sp,32(s2)
 1a6:	0100                	addi	s0,sp,128
 1a8:	02090103          	lb	sp,32(s2)
 1ac:	0100                	addi	s0,sp,128
 1ae:	02090303          	lb	t1,32(s2)
 1b2:	0100                	addi	s0,sp,128
 1b4:	08090603          	lb	a2,128(s2)
 1b8:	0100                	addi	s0,sp,128
 1ba:	04090103          	lb	sp,64(s2)
 1be:	0100                	addi	s0,sp,128
 1c0:	04090203          	lb	tp,64(s2)
 1c4:	0100                	addi	s0,sp,128
 1c6:	04090303          	lb	t1,64(s2)
 1ca:	0100                	addi	s0,sp,128
 1cc:	04090103          	lb	sp,64(s2)
 1d0:	0100                	addi	s0,sp,128
 1d2:	02090103          	lb	sp,32(s2)
 1d6:	0100                	addi	s0,sp,128
 1d8:	04090603          	lb	a2,64(s2)
 1dc:	0100                	addi	s0,sp,128
 1de:	04090103          	lb	sp,64(s2)
 1e2:	0100                	addi	s0,sp,128
 1e4:	04090103          	lb	sp,64(s2)
 1e8:	0100                	addi	s0,sp,128
 1ea:	0409                	addi	s0,s0,2
 1ec:	0000                	unimp
 1ee:	0101                	addi	sp,sp,0
 1f0:	0500                	addi	s0,sp,640
 1f2:	0002                	c.slli64	zero
 1f4:	0000                	unimp
 1f6:	0300                	addi	s0,sp,384
 1f8:	030100cb          	fnmsub.d	ft1,ft2,fa6,ft0,rne
 1fc:	0901                	addi	s2,s2,0
 1fe:	007c                	addi	a5,sp,12
 200:	0301                	addi	t1,t1,0
 202:	0904                	addi	s1,sp,144
 204:	0004                	0x4
 206:	0301                	addi	t1,t1,0
 208:	0904                	addi	s1,sp,144
 20a:	0004                	0x4
 20c:	0301                	addi	t1,t1,0
 20e:	0904                	addi	s1,sp,144
 210:	0004                	0x4
 212:	0901                	addi	s2,s2,0
 214:	0004                	0x4
 216:	0100                	addi	s0,sp,128
 218:	01              	Address 0x0000000000000218 is out of bounds.


Disassembly of section .debug_str:

00000000 <.debug_str>:
  .endr
   0:	74737563          	bgeu	t1,t2,74a <_bss_end+0x602>
   4:	2f006d6f          	jal	s10,62f4 <_stack_len+0x22f4>
   8:	6f68                	flw	fa0,92(a4)
   a:	656d                	lui	a0,0x1b
   c:	706f742f          	0x706f742f
  10:	6c61                	lui	s8,0x18
  12:	65442f63          	0x65442f63
  16:	6f746b73          	csrrsi	s6,0x6f7,8
  1a:	2f70                	fld	fa2,216(a4)
  1c:	6269                	lui	tp,0x1a
  1e:	7865                	lui	a6,0xffff9
  20:	6d2d                	lui	s10,0xb
  22:	7361                	lui	t1,0xffff8
  24:	6574                	flw	fa3,76(a0)
  26:	2f72                	fld	ft10,280(sp)
  28:	7865                	lui	a6,0xffff9
  2a:	6d61                	lui	s10,0x18
  2c:	6c70                	flw	fa2,92(s0)
  2e:	7365                	lui	t1,0xffff9
  30:	2f77732f          	0x2f77732f
  34:	616d                	addi	sp,sp,240
  36:	6e750063          	beq	a0,t2,716 <_bss_end+0x5ce>
  3a:	6e676973          	csrrsi	s2,0x6e6,14
  3e:	6465                	lui	s0,0x19
  40:	6320                	flw	fs0,64(a4)
  42:	6168                	flw	fa0,68(a0)
  44:	0072                	c.slli	zero,0x1c
  46:	726f6873          	csrrsi	a6,0x726,30
  4a:	2074                	fld	fa3,192(s0)
  4c:	6e75                	lui	t3,0x1d
  4e:	6e676973          	csrrsi	s2,0x6e6,14
  52:	6465                	lui	s0,0x19
  54:	6920                	flw	fs0,80(a0)
  56:	746e                	flw	fs0,248(sp)
  58:	6d00                	flw	fs0,24(a0)
  5a:	6361                	lui	t1,0x18
  5c:	632e                	flw	ft6,200(sp)
  5e:	6d00                	flw	fs0,24(a0)
  60:	6961                	lui	s2,0x18
  62:	006e                	c.slli	zero,0x1b
  64:	6f6c                	flw	fa1,92(a4)
  66:	676e                	flw	fa4,216(sp)
  68:	6c20                	flw	fs0,88(s0)
  6a:	20676e6f          	jal	t3,76270 <_stack_start+0x66270>
  6e:	6e75                	lui	t3,0x1d
  70:	6e676973          	csrrsi	s2,0x6e6,14
  74:	6465                	lui	s0,0x19
  76:	6920                	flw	fs0,80(a0)
  78:	746e                	flw	fs0,248(sp)
  7a:	6c00                	flw	fs0,24(s0)
  jal x0, default_exc_handler
  7c:	20676e6f          	jal	t3,76282 <_stack_start+0x66282>
  jal x0, reset_handler
  80:	6f6c                	flw	fa1,92(a4)
  82:	676e                	flw	fa4,216(sp)
  jal x0, default_exc_handler
  84:	6920                	flw	fs0,80(a0)
  86:	746e                	flw	fs0,248(sp)
  jal x0, default_exc_handler
  88:	4700                	lw	s0,8(a4)
  8a:	554e                	lw	a0,240(sp)
  jal x0, default_exc_handler
  8c:	4320                	lw	s0,64(a4)
  8e:	3731                	jal	ffffff9a <_stack_start+0xfffeff9a>
  mv  x1, x0
  90:	3920                	fld	fs0,112(a0)
  92:	322e                	fld	ft4,232(sp)
  mv  x2, x1
  94:	302e                	fld	ft0,232(sp)
  mv  x3, x1
  96:	2d20                	fld	fs0,88(a0)
  mv  x4, x1
  98:	616d                	addi	sp,sp,240
  mv  x5, x1
  9a:	6372                	flw	ft6,28(sp)
  mv  x6, x1
  9c:	3d68                	fld	fa0,248(a0)
  mv  x7, x1
  9e:	7672                	flw	fa2,60(sp)
  mv  x8, x1
  a0:	6d693233          	0x6d693233
  mv x10, x1
  a4:	6d2d2063          	0x6d2d2063
  mv x12, x1
  a8:	6261                	lui	tp,0x18
  mv x13, x1
  aa:	3d69                	jal	ffffff44 <_stack_start+0xfffeff44>
  mv x14, x1
  ac:	6c69                	lui	s8,0x1a
  mv x15, x1
  ae:	3370                	fld	fa2,224(a4)
  mv x16, x1
  b0:	2032                	fld	ft0,264(sp)
  mv x17, x1
  b2:	6d2d                	lui	s10,0xb
  mv x18, x1
  b4:	646f6d63          	bltu	t5,t1,70e <_bss_end+0x5c6>
  mv x20, x1
  b8:	6c65                	lui	s8,0x19
  mv x21, x1
  ba:	6d3d                	lui	s10,0xf
  mv x22, x1
  bc:	6465                	lui	s0,0x19
  mv x23, x1
  be:	6e61                	lui	t3,0x18
  mv x24, x1
  c0:	2079                	jal	14e <_bss_end+0x6>
  mv x25, x1
  c2:	6d2d                	lui	s10,0xb
  mv x26, x1
  c4:	7574                	flw	fa3,108(a0)
  mv x27, x1
  c6:	656e                	flw	fa0,216(sp)
  mv x28, x1
  c8:	723d                	lui	tp,0xfffef
  mv x29, x1
  ca:	656b636f          	jal	t1,b6720 <_stack_start+0xa6720>
  mv x31, x1
  ce:	2074                	fld	fa3,192(s0)
  la   x2, _stack_start
  d0:	672d                	lui	a4,0xb
  d2:	2d20                	fld	fs0,88(a0)
  d4:	2d20734f          	0x2d20734f
  la x26, _bss_start
  d8:	7666                	flw	fa2,120(sp)
  da:	7369                	lui	t1,0xffffa
  la x27, _bss_end
  dc:	6269                	lui	tp,0x1a
  de:	6c69                	lui	s8,0x1a
  bge x26, x27, zero_loop_end
  e0:	7469                	lui	s0,0xffffa
  e2:	3d79                	jal	ffffff80 <_stack_start+0xfffeff80>
  sw x0, 0(x26)
  e4:	6968                	flw	fa0,84(a0)
  e6:	6464                	flw	fs1,76(s0)
  addi x26, x26, 4
  e8:	6e65                	lui	t3,0x19
  ble x26, x27, zero_loop
  ea:	7300                	flw	fs0,32(a4)
  ec:	6f68                	flw	fa0,92(a4)
  addi x10, x0, 0
  ee:	7472                	flw	fs0,60(sp)
  f0:	6920                	flw	fs0,80(a0)
  addi x11, x0, 0
  f2:	746e                	flw	fs0,248(sp)
  f4:	6700                	flw	fs0,8(a4)
  jal x1, main
  f6:	6f6c                	flw	fa1,92(a4)
  f8:	6162                	flw	ft2,24(sp)
	global_array[0] = a1;
  fa:	5f6c                	lw	a1,124(a4)
  fc:	7261                	lui	tp,0xffff8
  fe:	6172                	flw	ft2,28(sp)
 100:	0079                	c.nop	30
 102:	656c                	flw	fa1,76(a0)
 104:	676e                	flw	fa4,216(sp)
	global_array[1] = a2;
 106:	6874                	flw	fa3,84(s0)
 108:	6300                	flw	fs0,0(a4)
 10a:	7472                	flw	fs0,60(sp)
 10c:	2e30                	fld	fa2,88(a2)
	global_array[2] = a3;
 10e:	4e470053          	0x4e470053
 112:	2055                	jal	1b6 <_bss_end+0x6e>
  asm volatile(
 114:	5341                	li	t1,-16
 116:	3220                	fld	fs0,96(a2)
 118:	332e                	fld	ft6,232(sp)
 11a:	0032                	c.slli	zero,0xc

Disassembly of section .comment:

00000000 <.comment>:
  .endr
   0:	3a434347          	fmsub.d	ft6,ft6,ft4,ft7,rmm
   4:	2820                	fld	fs0,80(s0)
   6:	29554e47          	fmsub.s	ft8,fa0,fs5,ft5,rmm
   a:	3920                	fld	fs0,112(a0)
   c:	322e                	fld	ft4,232(sp)
   e:	302e                	fld	ft0,232(sp)
	...

Disassembly of section .riscv.attributes:

00000000 <.riscv.attributes>:
   0:	2541                	jal	680 <_bss_end+0x538>
   2:	0000                	unimp
   4:	7200                	flw	fs0,32(a2)
   6:	7369                	lui	t1,0xffffa
   8:	01007663          	bgeu	zero,a6,14 <__DYNAMIC+0x14>
   c:	0000001b          	0x1b
  10:	1004                	addi	s1,sp,32
  12:	7205                	lui	tp,0xfffe1
  14:	3376                	fld	ft6,376(sp)
  16:	6932                	flw	fs2,12(sp)
  18:	7032                	flw	ft0,44(sp)
  1a:	5f30                	lw	a2,120(a4)
  1c:	326d                	jal	fffff9c6 <_stack_start+0xfffef9c6>
  1e:	3070                	fld	fa2,224(s0)
  20:	635f 7032 0030      	0x307032635f

Disassembly of section .debug_frame:

00000000 <.debug_frame>:
   0:	000c                	0xc
   2:	0000                	unimp
   4:	ffff                	0xffff
   6:	ffff                	0xffff
   8:	0001                	nop
   a:	7c01                	lui	s8,0xfffe0
   c:	0d01                	addi	s10,s10,0
   e:	0002                	c.slli64	zero
  10:	000c                	0xc
  12:	0000                	unimp
  14:	0000                	unimp
  16:	0000                	unimp
  18:	00fa                	slli	ra,ra,0x1e
  1a:	0000                	unimp
  1c:	002c                	addi	a1,sp,8
	...
