
NTRU_48_bitM.elf:     file format elf32-littleriscv


Disassembly of section .vectors:

00000000 <_stack_start-0x10000>:
   0:	00000013          	nop
   4:	00000013          	nop
   8:	00000013          	nop
   c:	00000013          	nop
  10:	00000013          	nop
  14:	00000013          	nop
  18:	00000013          	nop
  1c:	00000013          	nop
  20:	00000013          	nop
  24:	00000013          	nop
  28:	00000013          	nop
  2c:	00000013          	nop
  30:	00000013          	nop
  34:	00000013          	nop
  38:	00000013          	nop
  3c:	00000013          	nop
  40:	00000013          	nop
  44:	00000013          	nop
  48:	00000013          	nop
  4c:	00000013          	nop
  50:	00000013          	nop
  54:	00000013          	nop
  58:	00000013          	nop
  5c:	00000013          	nop
  60:	00000013          	nop
  64:	00000013          	nop
  68:	00000013          	nop
  6c:	00000013          	nop
  70:	00000013          	nop
  74:	00000013          	nop
  78:	00000013          	nop
  7c:	4ed0006f          	j	d68 <default_exc_handler>
  80:	4ed0006f          	j	d6c <reset_handler>
  84:	4e50006f          	j	d68 <default_exc_handler>
  88:	4e10006f          	j	d68 <default_exc_handler>

Disassembly of section .text:

0000008c <instr_add>:

//static unsigned int *a0;

//not: bu instructionda işleme girecek arraylerin boyutlarının eşit ve önceden bilindiği varsayılmaktadır...

    asm volatile(
      8c:	06b5750b          	0x6b5750b

    );
    return;


}
      90:	8082                	ret

00000092 <array_add>:
void array_add(int *a1, int *a2, int length) {
int i =0;
    switch(length%3) {
      92:	470d                	li	a4,3
      94:	02e667b3          	rem	a5,a2,a4
      98:	4685                	li	a3,1
      9a:	02d78f63          	beq	a5,a3,d8 <array_add+0x46>
      9e:	4689                	li	a3,2
      a0:	00d78963          	beq	a5,a3,b2 <array_add+0x20>
      a4:	ebb1                	bnez	a5,f8 <array_add+0x66>

        case 0:
            for (i = 0; i < (length / 3); i++) {
      a6:	02e64633          	div	a2,a2,a4
      aa:	4831                	li	a6,12
      ac:	04c7c763          	blt	a5,a2,fa <array_add+0x68>
      b0:	8082                	ret
                instr_add((unsigned int*)&a1[3 * i], (unsigned int*)&a2[3*i]);
            }
            a1[length-1] = a1[length-1] + a2[length-1];
	    break;      
	case 2:
            for (i = 0; i < ((length-2) / 3); i++) {
      b2:	ffe60693          	addi	a3,a2,-2
      b6:	02e6c6b3          	div	a3,a3,a4
      ba:	4781                	li	a5,0
      bc:	48b1                	li	a7,12
      be:	06d7c063          	blt	a5,a3,11e <array_add+0x8c>
                instr_add((unsigned int*)&a1[3 * i], (unsigned int*)&a2[3*i]);
            }
            a1[length-1] = a1[length-1] + a2[length-1];
      c2:	060a                	slli	a2,a2,0x2
      c4:	1671                	addi	a2,a2,-4
      c6:	00c50733          	add	a4,a0,a2
      ca:	00c586b3          	add	a3,a1,a2
      ce:	431c                	lw	a5,0(a4)
      d0:	4294                	lw	a3,0(a3)
      d2:	97b6                	add	a5,a5,a3
      d4:	c31c                	sw	a5,0(a4)
      d6:	a811                	j	ea <array_add+0x58>
            for (i = 0; i < ((length-1) / 3); i++) {
      d8:	fff60693          	addi	a3,a2,-1
      dc:	02e6c6b3          	div	a3,a3,a4
      e0:	4781                	li	a5,0
      e2:	48b1                	li	a7,12
      e4:	02d7c463          	blt	a5,a3,10c <array_add+0x7a>
            a1[length-1] = a1[length-1] + a2[length-1];
      e8:	060a                	slli	a2,a2,0x2
            a1[length-2] = a1[length-2] + a2[length-2];
      ea:	1671                	addi	a2,a2,-4
      ec:	9532                	add	a0,a0,a2
      ee:	962e                	add	a2,a2,a1
      f0:	411c                	lw	a5,0(a0)
      f2:	4218                	lw	a4,0(a2)
      f4:	97ba                	add	a5,a5,a4
      f6:	c11c                	sw	a5,0(a0)
	    break;
    } //end of switch case
} //end of function
      f8:	8082                	ret
                instr_add((unsigned int*)&a1[3 * i], (unsigned int*)&a2[3*i]);
      fa:	03078733          	mul	a4,a5,a6
    asm volatile(
      fe:	00e506b3          	add	a3,a0,a4
     102:	972e                	add	a4,a4,a1
     104:	06e6f70b          	0x6e6f70b
            for (i = 0; i < (length / 3); i++) {
     108:	0785                	addi	a5,a5,1
     10a:	b74d                	j	ac <array_add+0x1a>
                instr_add((unsigned int*)&a1[3 * i], (unsigned int*)&a2[3*i]);
     10c:	03178733          	mul	a4,a5,a7
    asm volatile(
     110:	00e50833          	add	a6,a0,a4
     114:	972e                	add	a4,a4,a1
     116:	06e8770b          	0x6e8770b
            for (i = 0; i < ((length-1) / 3); i++) {
     11a:	0785                	addi	a5,a5,1
     11c:	b7e1                	j	e4 <array_add+0x52>
                instr_add((unsigned int*)&a1[3 * i], (unsigned int*)&a2[3*i]);
     11e:	03178733          	mul	a4,a5,a7
    asm volatile(
     122:	00e50833          	add	a6,a0,a4
     126:	972e                	add	a4,a4,a1
     128:	06e8770b          	0x6e8770b
            for (i = 0; i < ((length-2) / 3); i++) {
     12c:	0785                	addi	a5,a5,1
     12e:	bf41                	j	be <array_add+0x2c>

00000130 <instr_equ>:

//static unsigned int *a0;

//not: bu instructionda işleme girecek arraylerin boyutlarının eşit ve önceden bilindiği varsayılmaktadır...

    asm volatile(
     130:	0ab5750b          	0xab5750b
    : "r"(&a1[0]), "r"(&a2[0])			// a1 ve a2 variable'ları compiler tarafından uygun register'lara atılacak

    );
    return;

}
     134:	8082                	ret

00000136 <array_equ>:
void array_equ(int *a1,int *a2,int length) {
int i = 0;
    switch(length%3) {
     136:	470d                	li	a4,3
     138:	02e667b3          	rem	a5,a2,a4
     13c:	4685                	li	a3,1
     13e:	02d78d63          	beq	a5,a3,178 <array_equ+0x42>
     142:	4689                	li	a3,2
     144:	00d78963          	beq	a5,a3,156 <array_equ+0x20>
     148:	e7b1                	bnez	a5,194 <array_equ+0x5e>

        case 0:
            for (i = 0; i < (length / 3); i++) {
     14a:	02e64633          	div	a2,a2,a4
     14e:	4831                	li	a6,12
     150:	04c7c363          	blt	a5,a2,196 <array_equ+0x60>
     154:	8082                	ret
                instr_equ((unsigned int*)&a1[3 * i],(unsigned int*) &a2[3*i]);
            }
            a1[length-1] = a2[length-1];
	    break;
        case 2:
            for (i = 0; i < ((length-2) / 3); i++) {
     156:	ffe60693          	addi	a3,a2,-2
     15a:	02e6c6b3          	div	a3,a3,a4
     15e:	4781                	li	a5,0
     160:	48b1                	li	a7,12
     162:	04d7cc63          	blt	a5,a3,1ba <array_equ+0x84>
                instr_equ((unsigned int*)&a1[3 * i],(unsigned int*) &a2[3*i]);
            }
            a1[length-1] = a2[length-1];
     166:	060a                	slli	a2,a2,0x2
     168:	1671                	addi	a2,a2,-4
     16a:	00c587b3          	add	a5,a1,a2
     16e:	4398                	lw	a4,0(a5)
     170:	00c507b3          	add	a5,a0,a2
     174:	c398                	sw	a4,0(a5)
     176:	a811                	j	18a <array_equ+0x54>
            for (i = 0; i < ((length-1) / 3); i++) {
     178:	fff60693          	addi	a3,a2,-1
     17c:	02e6c6b3          	div	a3,a3,a4
     180:	4781                	li	a5,0
     182:	48b1                	li	a7,12
     184:	02d7c263          	blt	a5,a3,1a8 <array_equ+0x72>
            a1[length-1] = a2[length-1];
     188:	060a                	slli	a2,a2,0x2
            a1[length-2] = a2[length-2];
     18a:	1671                	addi	a2,a2,-4
     18c:	95b2                	add	a1,a1,a2
     18e:	419c                	lw	a5,0(a1)
     190:	962a                	add	a2,a2,a0
     192:	c21c                	sw	a5,0(a2)
	    break;
    } //end of switch case
} //end of function
     194:	8082                	ret
                instr_equ((unsigned int*)&a1[3 * i],(unsigned int*) &a2[3*i]);
     196:	03078733          	mul	a4,a5,a6
    asm volatile(
     19a:	00e506b3          	add	a3,a0,a4
     19e:	972e                	add	a4,a4,a1
     1a0:	0ae6f70b          	0xae6f70b
            for (i = 0; i < (length / 3); i++) {
     1a4:	0785                	addi	a5,a5,1
     1a6:	b76d                	j	150 <array_equ+0x1a>
                instr_equ((unsigned int*)&a1[3 * i],(unsigned int*) &a2[3*i]);
     1a8:	03178733          	mul	a4,a5,a7
    asm volatile(
     1ac:	00e50833          	add	a6,a0,a4
     1b0:	972e                	add	a4,a4,a1
     1b2:	0ae8770b          	0xae8770b
            for (i = 0; i < ((length-1) / 3); i++) {
     1b6:	0785                	addi	a5,a5,1
     1b8:	b7f1                	j	184 <array_equ+0x4e>
                instr_equ((unsigned int*)&a1[3 * i],(unsigned int*) &a2[3*i]);
     1ba:	03178733          	mul	a4,a5,a7
    asm volatile(
     1be:	00e50833          	add	a6,a0,a4
     1c2:	972e                	add	a4,a4,a1
     1c4:	0ae8770b          	0xae8770b
            for (i = 0; i < ((length-2) / 3); i++) {
     1c8:	0785                	addi	a5,a5,1
     1ca:	bf61                	j	162 <array_equ+0x2c>

000001cc <instr_mod>:

void instr_mod(unsigned int *a1, unsigned int mod) {

    asm volatile(
     1cc:	0cb5750b          	0xcb5750b
    : "=r"(&a1[0])				 // designation register => a0 variable'ına atılacak
    : "r"(&a1[0]), "r"(mod)			// a1 ve a2 variable'ları compiler tarafından uygun register'lara atılacak

    );
    return;
}
     1d0:	8082                	ret

000001d2 <array_mod>:
    ////// bu kod arrayin uzunlugunu ücüncü instruction operand olarak gonderemedigimiz icin var. //////////
    ////// üc sayisi custom modülün dondürdügü eleman sayisindan geliyor. bizim ebob'umuz 3 oldugu icin 3 secildi./////
    ///// ebob(54(N+1),105(N+N-1)) = 3
int i = 0;

    switch(length%3) {
     1d2:	470d                	li	a4,3
     1d4:	02e667b3          	rem	a5,a2,a4
     1d8:	4685                	li	a3,1
     1da:	02d78d63          	beq	a5,a3,214 <array_mod+0x42>
     1de:	4689                	li	a3,2
     1e0:	00d78963          	beq	a5,a3,1f2 <array_mod+0x20>
     1e4:	e7b9                	bnez	a5,232 <array_mod+0x60>

        case 0:
            for (i = 0; i < (length / 3); i++) {
     1e6:	02e64633          	div	a2,a2,a4
    asm volatile(
     1ea:	46b1                	li	a3,12
            for (i = 0; i < (length / 3); i++) {
     1ec:	04c7c463          	blt	a5,a2,234 <array_mod+0x62>
     1f0:	8082                	ret
                instr_mod((unsigned int *) &a1[3 * i], (unsigned int) mod);
            }
            a1[length-1] = a1[length-1] % mod;
	    break;
        case 2:
            for (i = 0; i < ((length-2) / 3); i++) {
     1f2:	ffe60693          	addi	a3,a2,-2
     1f6:	02e6c6b3          	div	a3,a3,a4
     1fa:	4781                	li	a5,0
    asm volatile(
     1fc:	4831                	li	a6,12
            for (i = 0; i < ((length-2) / 3); i++) {
     1fe:	04d7c963          	blt	a5,a3,250 <array_mod+0x7e>
                instr_mod((unsigned int *) &a1[3 * i], (unsigned int) mod);
            }
            a1[length-1] = a1[length-1] % mod;
     202:	060a                	slli	a2,a2,0x2
     204:	1671                	addi	a2,a2,-4
     206:	00c50733          	add	a4,a0,a2
     20a:	431c                	lw	a5,0(a4)
     20c:	02b7e7b3          	rem	a5,a5,a1
     210:	c31c                	sw	a5,0(a4)
     212:	a811                	j	226 <array_mod+0x54>
            for (i = 0; i < ((length-1) / 3); i++) {
     214:	fff60693          	addi	a3,a2,-1
     218:	02e6c6b3          	div	a3,a3,a4
     21c:	4781                	li	a5,0
    asm volatile(
     21e:	4831                	li	a6,12
            for (i = 0; i < ((length-1) / 3); i++) {
     220:	02d7c163          	blt	a5,a3,242 <array_mod+0x70>
            a1[length-1] = a1[length-1] % mod;
     224:	060a                	slli	a2,a2,0x2
            a1[length-2] = a1[length-2] % mod;
     226:	1671                	addi	a2,a2,-4
     228:	962a                	add	a2,a2,a0
     22a:	421c                	lw	a5,0(a2)
     22c:	02b7e5b3          	rem	a1,a5,a1
     230:	c20c                	sw	a1,0(a2)
	    break;
    } //end of switch case
} //end of function
     232:	8082                	ret
    asm volatile(
     234:	02d78733          	mul	a4,a5,a3
     238:	972a                	add	a4,a4,a0
     23a:	0cb7770b          	0xcb7770b
            for (i = 0; i < (length / 3); i++) {
     23e:	0785                	addi	a5,a5,1
     240:	b775                	j	1ec <array_mod+0x1a>
    asm volatile(
     242:	03078733          	mul	a4,a5,a6
     246:	972a                	add	a4,a4,a0
     248:	0cb7770b          	0xcb7770b
            for (i = 0; i < ((length-1) / 3); i++) {
     24c:	0785                	addi	a5,a5,1
     24e:	bfc9                	j	220 <array_mod+0x4e>
    asm volatile(
     250:	03078733          	mul	a4,a5,a6
     254:	972a                	add	a4,a4,a0
     256:	0cb7770b          	0xcb7770b
            for (i = 0; i < ((length-2) / 3); i++) {
     25a:	0785                	addi	a5,a5,1
     25c:	b74d                	j	1fe <array_mod+0x2c>

0000025e <polymult>:

/////////////////////////////////////////////////



int *polymult(int *a, int size_a, int *b, int size_b, int mod, int star_mult){
     25e:	715d                	addi	sp,sp,-80
     260:	de4e                	sw	s3,60(sp)
     262:	dc52                	sw	s4,56(sp)
     264:	00269993          	slli	s3,a3,0x2
     268:	8a3a                	mv	s4,a4


    int line[size_b][size_a + size_b];
     26a:	00d58733          	add	a4,a1,a3
int *polymult(int *a, int size_a, int *b, int size_b, int mod, int star_mult){
     26e:	da56                	sw	s5,52(sp)
     270:	d06a                	sw	s10,32(sp)
    int line[size_b][size_a + size_b];
     272:	fff70a93          	addi	s5,a4,-1
     276:	00271d13          	slli	s10,a4,0x2
     27a:	03370733          	mul	a4,a4,s3
int *polymult(int *a, int size_a, int *b, int size_b, int mod, int star_mult){
     27e:	c4a2                	sw	s0,72(sp)
     280:	c2a6                	sw	s1,68(sp)
     282:	c0ca                	sw	s2,64(sp)
     284:	d85a                	sw	s6,48(sp)
     286:	d65e                	sw	s7,44(sp)
     288:	d462                	sw	s8,40(sp)
     28a:	d266                	sw	s9,36(sp)
     28c:	ce6e                	sw	s11,28(sp)
     28e:	c686                	sw	ra,76(sp)
    int line[size_b][size_a + size_b];
     290:	073d                	addi	a4,a4,15
int *polymult(int *a, int size_a, int *b, int size_b, int mod, int star_mult){
     292:	0880                	addi	s0,sp,80
    int line[size_b][size_a + size_b];
     294:	9b41                	andi	a4,a4,-16
     296:	40e10133          	sub	sp,sp,a4
    int i,j,k;
    int *return_address1;
    int pola[size_a];
     29a:	00259713          	slli	a4,a1,0x2
     29e:	073d                	addi	a4,a4,15
     2a0:	9b41                	andi	a4,a4,-16
    int line[size_b][size_a + size_b];
     2a2:	8b8a                	mv	s7,sp
    int pola[size_a];
     2a4:	40e10133          	sub	sp,sp,a4
    int polb[size_b];
     2a8:	00f98713          	addi	a4,s3,15
     2ac:	9b41                	andi	a4,a4,-16
    int pola[size_a];
     2ae:	8d8a                	mv	s11,sp
    int polb[size_b];
     2b0:	40e10133          	sub	sp,sp,a4
int *polymult(int *a, int size_a, int *b, int size_b, int mod, int star_mult){
     2b4:	8c2e                	mv	s8,a1
     2b6:	8832                	mv	a6,a2
     2b8:	8936                	mv	s2,a3
    int line[size_b][size_a + size_b];
     2ba:	fff68c93          	addi	s9,a3,-1
    int polb[size_b];
     2be:	848a                	mv	s1,sp
    int pola[size_a];
     2c0:	fff58693          	addi	a3,a1,-1

    //make all line vectors zero
    for (i = 0; i < size_b; ++i){
     2c4:	8b5e                	mv	s6,s7
     2c6:	85de                	mv	a1,s7
     2c8:	4601                	li	a2,0
        for(j = 0; j < size_a + size_b -1; ++j){
            line[i][j] = 0;
            product[j] = 0;
     2ca:	00001e17          	auipc	t3,0x1
     2ce:	f66e0e13          	addi	t3,t3,-154 # 1230 <_bss_start>
    for (i = 0; i < size_b; ++i){
     2d2:	07264863          	blt	a2,s2,342 <polymult+0xe4>
//        while (pola[i] < 0){
//            pola[i] = pola[i] + mod;
//        }
//        pola[i] = pola[i] % mod;
//    }
    array_equ(pola,a,size_a);
     2d6:	85aa                	mv	a1,a0
     2d8:	8662                	mv	a2,s8
     2da:	856e                	mv	a0,s11
     2dc:	faf42a23          	sw	a5,-76(s0)
     2e0:	fad42e23          	sw	a3,-68(s0)
     2e4:	fb042c23          	sw	a6,-72(s0)
     2e8:	35b9                	jal	136 <array_equ>
    array_mod(pola,mod,size_a);
     2ea:	8662                	mv	a2,s8
     2ec:	85d2                	mv	a1,s4
     2ee:	856e                	mv	a0,s11
     2f0:	35cd                	jal	1d2 <array_mod>
//        while (polb[i] < 0){
//            polb[i] = polb[i] + mod;
//        }
//        polb[i] = polb[i] % mod;
//    }
    array_equ(polb,b,size_b);
     2f2:	fb842803          	lw	a6,-72(s0)
     2f6:	8526                	mv	a0,s1
     2f8:	864a                	mv	a2,s2
     2fa:	85c2                	mv	a1,a6
     2fc:	3d2d                	jal	136 <array_equ>
    array_mod(polb,mod,size_b);
     2fe:	8526                	mv	a0,s1
     300:	864a                	mv	a2,s2
     302:	85d2                	mv	a1,s4
     304:	35f9                	jal	1d2 <array_mod>


    // make calculations for partial products, if need add mod calculations
    if(star_mult == 1){
     306:	fb442783          	lw	a5,-76(s0)
     30a:	4705                	li	a4,1
     30c:	fbc42683          	lw	a3,-68(s0)
     310:	94ce                	add	s1,s1,s3
     312:	02e78b63          	beq	a5,a4,348 <polymult+0xea>
     316:	19f1                	addi	s3,s3,-4
     318:	ffcd0613          	addi	a2,s10,-4
     31c:	99de                	add	s3,s3,s7
                line[size_b-1-j][k] = pola[k]*polb[j];
            }
        }
    }
    else{
        for (j = size_b -1; j >= 0; j = j-1){
     31e:	020cc863          	bltz	s9,34e <polymult+0xf0>
            for (k = size_a-1; k >= 0; k = k-1 ){
     322:	87b6                	mv	a5,a3
     324:	a85d                	j	3da <polymult+0x17c>
            product[j] = 0;
     326:	00271313          	slli	t1,a4,0x2
     32a:	9372                	add	t1,t1,t3
            line[i][j] = 0;
     32c:	0008a023          	sw	zero,0(a7)
            product[j] = 0;
     330:	00032023          	sw	zero,0(t1)
        for(j = 0; j < size_a + size_b -1; ++j){
     334:	0705                	addi	a4,a4,1
     336:	0891                	addi	a7,a7,4
     338:	ff5747e3          	blt	a4,s5,326 <polymult+0xc8>
    for (i = 0; i < size_b; ++i){
     33c:	0605                	addi	a2,a2,1
     33e:	95ea                	add	a1,a1,s10
     340:	bf49                	j	2d2 <polymult+0x74>
     342:	88ae                	mv	a7,a1
        for(j = 0; j < size_a + size_b -1; ++j){
     344:	4701                	li	a4,0
     346:	bfcd                	j	338 <polymult+0xda>
    if(star_mult == 1){
     348:	865e                	mv	a2,s7
        for (j = size_b -1; j >= 0; j = j-1){
     34a:	060cda63          	bgez	s9,3be <polymult+0x160>
            for (k = size_a-1; k >= 0; k = k-1 ){
     34e:	4481                	li	s1,0
            }
        }
    }

    //mod calculations
    for (i = 0; i < size_b; ++i){
     350:	0924cb63          	blt	s1,s2,3e6 <polymult+0x188>
	array_mod(line[i],mod,size_a+size_b-1);
    }


    // construct product
    for(i = 0; i < size_b; ++i){
     354:	4481                	li	s1,0
       // for(j = 0; j < size_a + size_b -1; ++j){
		array_add(product,line[i],size_a+size_b-1);
     356:	00001997          	auipc	s3,0x1
     35a:	eda98993          	addi	s3,s3,-294 # 1230 <_bss_start>
     35e:	8656                	mv	a2,s5
    for(i = 0; i < size_b; ++i){
     360:	0924ca63          	blt	s1,s2,3f4 <polymult+0x196>
//    //mod calculations
//    for(j = 0; j < size_a + size_b -1; ++j){
//        product[j] = product[j] % mod;
//    }

    array_mod(product,mod,(size_a+size_b-1));
     364:	85d2                	mv	a1,s4
     366:	00001517          	auipc	a0,0x1
     36a:	eca50513          	addi	a0,a0,-310 # 1230 <_bss_start>
     36e:	3595                	jal	1d2 <array_mod>

    return_address1 = &product[0];

    return return_address1;
}
     370:	fb040113          	addi	sp,s0,-80
     374:	40b6                	lw	ra,76(sp)
     376:	4426                	lw	s0,72(sp)
     378:	4496                	lw	s1,68(sp)
     37a:	4906                	lw	s2,64(sp)
     37c:	59f2                	lw	s3,60(sp)
     37e:	5a62                	lw	s4,56(sp)
     380:	5ad2                	lw	s5,52(sp)
     382:	5b42                	lw	s6,48(sp)
     384:	5bb2                	lw	s7,44(sp)
     386:	5c22                	lw	s8,40(sp)
     388:	5c92                	lw	s9,36(sp)
     38a:	5d02                	lw	s10,32(sp)
     38c:	4df2                	lw	s11,28(sp)
     38e:	00001517          	auipc	a0,0x1
     392:	ea250513          	addi	a0,a0,-350 # 1230 <_bss_start>
     396:	6161                	addi	sp,sp,80
     398:	8082                	ret
                line[size_b-1-j][k] = pola[k]*polb[j];
     39a:	00279713          	slli	a4,a5,0x2
     39e:	00e605b3          	add	a1,a2,a4
     3a2:	976e                	add	a4,a4,s11
     3a4:	4318                	lw	a4,0(a4)
     3a6:	ffc4a503          	lw	a0,-4(s1)
            for (k = size_a-1; k >= 0; k = k-1 ){
     3aa:	17fd                	addi	a5,a5,-1
                line[size_b-1-j][k] = pola[k]*polb[j];
     3ac:	02a70733          	mul	a4,a4,a0
     3b0:	c198                	sw	a4,0(a1)
            for (k = size_a-1; k >= 0; k = k-1 ){
     3b2:	fe07d4e3          	bgez	a5,39a <polymult+0x13c>
        for (j = size_b -1; j >= 0; j = j-1){
     3b6:	1cfd                	addi	s9,s9,-1
     3b8:	14f1                	addi	s1,s1,-4
     3ba:	966a                	add	a2,a2,s10
     3bc:	b779                	j	34a <polymult+0xec>
            for (k = size_a-1; k >= 0; k = k-1 ){
     3be:	87b6                	mv	a5,a3
     3c0:	bfcd                	j	3b2 <polymult+0x154>
                line[size_b-1-j][k + j] = pola[k]*polb[j];
     3c2:	00279713          	slli	a4,a5,0x2
     3c6:	00e985b3          	add	a1,s3,a4
     3ca:	976e                	add	a4,a4,s11
     3cc:	4318                	lw	a4,0(a4)
     3ce:	ffc4a503          	lw	a0,-4(s1)
            for (k = size_a-1; k >= 0; k = k-1 ){
     3d2:	17fd                	addi	a5,a5,-1
                line[size_b-1-j][k + j] = pola[k]*polb[j];
     3d4:	02a70733          	mul	a4,a4,a0
     3d8:	c198                	sw	a4,0(a1)
            for (k = size_a-1; k >= 0; k = k-1 ){
     3da:	fe07d4e3          	bgez	a5,3c2 <polymult+0x164>
        for (j = size_b -1; j >= 0; j = j-1){
     3de:	1cfd                	addi	s9,s9,-1
     3e0:	14f1                	addi	s1,s1,-4
     3e2:	99b2                	add	s3,s3,a2
     3e4:	bf2d                	j	31e <polymult+0xc0>
	array_mod(line[i],mod,size_a+size_b-1);
     3e6:	855e                	mv	a0,s7
     3e8:	8656                	mv	a2,s5
     3ea:	85d2                	mv	a1,s4
     3ec:	33dd                	jal	1d2 <array_mod>
    for (i = 0; i < size_b; ++i){
     3ee:	0485                	addi	s1,s1,1
     3f0:	9bea                	add	s7,s7,s10
     3f2:	bfb9                	j	350 <polymult+0xf2>
		array_add(product,line[i],size_a+size_b-1);
     3f4:	85da                	mv	a1,s6
     3f6:	854e                	mv	a0,s3
     3f8:	3969                	jal	92 <array_add>
    for(i = 0; i < size_b; ++i){
     3fa:	0485                	addi	s1,s1,1
     3fc:	9b6a                	add	s6,s6,s10
     3fe:	b785                	j	35e <polymult+0x100>

00000400 <polymult2>:

int *polymult2(int *a, int size_a, int *b, int size_b, int star_mult){
     400:	715d                	addi	sp,sp,-80

    int line[size_b][size_a + size_b];
     402:	00d587b3          	add	a5,a1,a3
int *polymult2(int *a, int size_a, int *b, int size_b, int star_mult){
     406:	d85a                	sw	s6,48(sp)
     408:	00269b13          	slli	s6,a3,0x2
     40c:	de4e                	sw	s3,60(sp)
     40e:	d65e                	sw	s7,44(sp)
    int line[size_b][size_a + size_b];
     410:	fff78993          	addi	s3,a5,-1
     414:	00279b93          	slli	s7,a5,0x2
     418:	036787b3          	mul	a5,a5,s6
int *polymult2(int *a, int size_a, int *b, int size_b, int star_mult){
     41c:	c4a2                	sw	s0,72(sp)
     41e:	c2a6                	sw	s1,68(sp)
     420:	c0ca                	sw	s2,64(sp)
     422:	dc52                	sw	s4,56(sp)
     424:	da56                	sw	s5,52(sp)
     426:	d462                	sw	s8,40(sp)
     428:	d266                	sw	s9,36(sp)
     42a:	d06a                	sw	s10,32(sp)
     42c:	ce6e                	sw	s11,28(sp)
    int line[size_b][size_a + size_b];
     42e:	07bd                	addi	a5,a5,15
int *polymult2(int *a, int size_a, int *b, int size_b, int star_mult){
     430:	c686                	sw	ra,76(sp)
     432:	0880                	addi	s0,sp,80
    int line[size_b][size_a + size_b];
     434:	9bc1                	andi	a5,a5,-16
     436:	40f10133          	sub	sp,sp,a5
    int i,j,k;
    int *return_address2;
    int pola[size_a];
     43a:	00259793          	slli	a5,a1,0x2
     43e:	07bd                	addi	a5,a5,15
     440:	9bc1                	andi	a5,a5,-16
    int line[size_b][size_a + size_b];
     442:	890a                	mv	s2,sp
    int pola[size_a];
     444:	40f10133          	sub	sp,sp,a5
    int polb[size_b];
     448:	00fb0793          	addi	a5,s6,15
     44c:	9bc1                	andi	a5,a5,-16
    int pola[size_a];
     44e:	8d0a                	mv	s10,sp
    int polb[size_b];
     450:	40f10133          	sub	sp,sp,a5
int *polymult2(int *a, int size_a, int *b, int size_b, int star_mult){
     454:	8a36                	mv	s4,a3
     456:	8dba                	mv	s11,a4
    int line[size_b][size_a + size_b];
     458:	fff68a93          	addi	s5,a3,-1
int *polymult2(int *a, int size_a, int *b, int size_b, int star_mult){
     45c:	8832                	mv	a6,a2
    int pola[size_a];
     45e:	fff58c13          	addi	s8,a1,-1
    int polb[size_b];
     462:	848a                	mv	s1,sp

    //make all line vectors zero
    for (i = 0; i < size_b; ++i){
     464:	8cca                	mv	s9,s2
     466:	86ca                	mv	a3,s2
     468:	4701                	li	a4,0
        for(j = 0; j < size_a + size_b -1; ++j){
            line[i][j] = 0;
            product2[j] = 0;
     46a:	00001317          	auipc	t1,0x1
     46e:	01e30313          	addi	t1,t1,30 # 1488 <product2>
    for (i = 0; i < size_b; ++i){
     472:	05474963          	blt	a4,s4,4c4 <polymult2+0xc4>

//    for(i = 0; i < size_a; ++i){
//        pola[i] = a[i];
//    }

    array_equ(pola,a,size_a);
     476:	862e                	mv	a2,a1
     478:	85aa                	mv	a1,a0
     47a:	856a                	mv	a0,s10
     47c:	fb042e23          	sw	a6,-68(s0)
     480:	395d                	jal	136 <array_equ>

//    for(i = 0; i < size_b; ++i){
//        polb[i] = b[i];
//    }

    array_equ(polb,b,size_b);
     482:	fbc42803          	lw	a6,-68(s0)
     486:	8526                	mv	a0,s1
     488:	8652                	mv	a2,s4
     48a:	85c2                	mv	a1,a6
     48c:	316d                	jal	136 <array_equ>

    // make calculations for partial products, if need add mod calculations
    if(star_mult == 1){
     48e:	4785                	li	a5,1
     490:	01648533          	add	a0,s1,s6
     494:	04fd8c63          	beq	s11,a5,4ec <polymult2+0xec>
     498:	1b71                	addi	s6,s6,-4
     49a:	ffcb8693          	addi	a3,s7,-4
     49e:	995a                	add	s2,s2,s6
                line[size_b-1-j][k] = pola[k]*polb[j];
            }
        }
    }
    else{
        for (j = size_b -1; j >= 0; j = j-1){
     4a0:	040ac863          	bltz	s5,4f0 <polymult2+0xf0>
            for (k = size_a-1; k >= 0; k = k-1 ){
     4a4:	87e2                	mv	a5,s8
     4a6:	a879                	j	544 <polymult2+0x144>
            product2[j] = 0;
     4a8:	00279893          	slli	a7,a5,0x2
     4ac:	989a                	add	a7,a7,t1
            line[i][j] = 0;
     4ae:	00062023          	sw	zero,0(a2)
            product2[j] = 0;
     4b2:	0008a023          	sw	zero,0(a7)
        for(j = 0; j < size_a + size_b -1; ++j){
     4b6:	0785                	addi	a5,a5,1
     4b8:	0611                	addi	a2,a2,4
     4ba:	ff37c7e3          	blt	a5,s3,4a8 <polymult2+0xa8>
    for (i = 0; i < size_b; ++i){
     4be:	0705                	addi	a4,a4,1
     4c0:	96de                	add	a3,a3,s7
     4c2:	bf45                	j	472 <polymult2+0x72>
     4c4:	8636                	mv	a2,a3
        for(j = 0; j < size_a + size_b -1; ++j){
     4c6:	4781                	li	a5,0
     4c8:	bfcd                	j	4ba <polymult2+0xba>
                line[size_b-1-j][k] = pola[k]*polb[j];
     4ca:	00279713          	slli	a4,a5,0x2
     4ce:	00e906b3          	add	a3,s2,a4
     4d2:	976a                	add	a4,a4,s10
     4d4:	4318                	lw	a4,0(a4)
     4d6:	ffc52603          	lw	a2,-4(a0)
            for (k = size_a-1; k >= 0; k = k-1 ){
     4da:	17fd                	addi	a5,a5,-1
                line[size_b-1-j][k] = pola[k]*polb[j];
     4dc:	02c70733          	mul	a4,a4,a2
     4e0:	c298                	sw	a4,0(a3)
            for (k = size_a-1; k >= 0; k = k-1 ){
     4e2:	fe07d4e3          	bgez	a5,4ca <polymult2+0xca>
        for (j = size_b -1; j >= 0; j = j-1){
     4e6:	1afd                	addi	s5,s5,-1
     4e8:	1571                	addi	a0,a0,-4
     4ea:	995e                	add	s2,s2,s7
     4ec:	020ade63          	bgez	s5,528 <polymult2+0x128>
            for (k = size_a-1; k >= 0; k = k-1 ){
     4f0:	4481                	li	s1,0

    // construct product
    for(i=0;i<size_b;++i){
    //   for(j=0;j<size_a+size_b-1;++j){
          //  product2[j] += line[i][j];
	   array_add(product2,line[i],size_a+size_b-1);
     4f2:	00001917          	auipc	s2,0x1
     4f6:	f9690913          	addi	s2,s2,-106 # 1488 <product2>
    for(i=0;i<size_b;++i){
     4fa:	0544cb63          	blt	s1,s4,550 <polymult2+0x150>
    }

    return_address2 = &product2[0];

    return return_address2;
}
     4fe:	fb040113          	addi	sp,s0,-80
     502:	40b6                	lw	ra,76(sp)
     504:	4426                	lw	s0,72(sp)
     506:	4496                	lw	s1,68(sp)
     508:	4906                	lw	s2,64(sp)
     50a:	59f2                	lw	s3,60(sp)
     50c:	5a62                	lw	s4,56(sp)
     50e:	5ad2                	lw	s5,52(sp)
     510:	5b42                	lw	s6,48(sp)
     512:	5bb2                	lw	s7,44(sp)
     514:	5c22                	lw	s8,40(sp)
     516:	5c92                	lw	s9,36(sp)
     518:	5d02                	lw	s10,32(sp)
     51a:	4df2                	lw	s11,28(sp)
     51c:	00001517          	auipc	a0,0x1
     520:	f6c50513          	addi	a0,a0,-148 # 1488 <product2>
     524:	6161                	addi	sp,sp,80
     526:	8082                	ret
            for (k = size_a-1; k >= 0; k = k-1 ){
     528:	87e2                	mv	a5,s8
     52a:	bf65                	j	4e2 <polymult2+0xe2>
                line[size_b-1-j][k + j] = pola[k]*polb[j];
     52c:	00279713          	slli	a4,a5,0x2
     530:	00e90633          	add	a2,s2,a4
     534:	976a                	add	a4,a4,s10
     536:	4318                	lw	a4,0(a4)
     538:	ffc52583          	lw	a1,-4(a0)
            for (k = size_a-1; k >= 0; k = k-1 ){
     53c:	17fd                	addi	a5,a5,-1
                line[size_b-1-j][k + j] = pola[k]*polb[j];
     53e:	02b70733          	mul	a4,a4,a1
     542:	c218                	sw	a4,0(a2)
            for (k = size_a-1; k >= 0; k = k-1 ){
     544:	fe07d4e3          	bgez	a5,52c <polymult2+0x12c>
        for (j = size_b -1; j >= 0; j = j-1){
     548:	1afd                	addi	s5,s5,-1
     54a:	1571                	addi	a0,a0,-4
     54c:	9936                	add	s2,s2,a3
     54e:	bf89                	j	4a0 <polymult2+0xa0>
	   array_add(product2,line[i],size_a+size_b-1);
     550:	85e6                	mv	a1,s9
     552:	864e                	mv	a2,s3
     554:	854a                	mv	a0,s2
     556:	3e35                	jal	92 <array_add>
    for(i=0;i<size_b;++i){
     558:	0485                	addi	s1,s1,1
     55a:	9cde                	add	s9,s9,s7
     55c:	bf79                	j	4fa <polymult2+0xfa>

0000055e <polydiv>:
int *polydiv(int *num, int size_N, int*denum, int size_D, int mod){

    int u,d,d2,i,b_N,r_d;
    int *return_address3;

    int v[size_N];
     55e:	00259793          	slli	a5,a1,0x2
int *polydiv(int *num, int size_N, int*denum, int size_D, int mod){
     562:	7139                	addi	sp,sp,-64
    int v[size_N];
     564:	07bd                	addi	a5,a5,15
int *polydiv(int *num, int size_N, int*denum, int size_D, int mod){
     566:	de06                	sw	ra,60(sp)
     568:	dc22                	sw	s0,56(sp)
     56a:	da26                	sw	s1,52(sp)
     56c:	0080                	addi	s0,sp,64
     56e:	d84a                	sw	s2,48(sp)
     570:	d64e                	sw	s3,44(sp)
     572:	d452                	sw	s4,40(sp)
     574:	d256                	sw	s5,36(sp)
     576:	d05a                	sw	s6,32(sp)
     578:	ce5e                	sw	s7,28(sp)
     57a:	cc62                	sw	s8,24(sp)
     57c:	ca66                	sw	s9,20(sp)
     57e:	c86a                	sw	s10,16(sp)
    int v[size_N];
     580:	9bc1                	andi	a5,a5,-16
int *polydiv(int *num, int size_N, int*denum, int size_D, int mod){
     582:	c66e                	sw	s11,12(sp)
    int v[size_N];
     584:	40f10133          	sub	sp,sp,a5
     588:	8a8a                	mv	s5,sp
    int q[size_N];
     58a:	40f10133          	sub	sp,sp,a5
     58e:	8b0a                	mv	s6,sp
    int *product;
    int num_temp[size_N];
     590:	40f10133          	sub	sp,sp,a5
    int denum_temp[size_D];
     594:	00269793          	slli	a5,a3,0x2
     598:	07bd                	addi	a5,a5,15
     59a:	9bc1                	andi	a5,a5,-16
    int num_temp[size_N];
     59c:	890a                	mv	s2,sp
int *polydiv(int *num, int size_N, int*denum, int size_D, int mod){
     59e:	84ae                	mv	s1,a1
    int denum_temp[size_D];
     5a0:	40f10133          	sub	sp,sp,a5
int *polydiv(int *num, int size_N, int*denum, int size_D, int mod){
     5a4:	8d32                	mv	s10,a2
    int v[size_N];
     5a6:	fff58c13          	addi	s8,a1,-1
//            num_temp[i] = num_temp[i] + mod;
//        }
//        num_temp[i] = num_temp[i] % mod;
//    }

       array_equ(num_temp,num,size_N);
     5aa:	862e                	mv	a2,a1
     5ac:	85aa                	mv	a1,a0
     5ae:	854a                	mv	a0,s2
int *polydiv(int *num, int size_N, int*denum, int size_D, int mod){
     5b0:	8a36                	mv	s4,a3
     5b2:	89ba                	mv	s3,a4
    int denum_temp[size_D];
     5b4:	fff68c93          	addi	s9,a3,-1
       array_equ(num_temp,num,size_N);
     5b8:	3ebd                	jal	136 <array_equ>



       array_mod(num_temp, mod, size_N);
     5ba:	8626                	mv	a2,s1
     5bc:	85ce                	mv	a1,s3
     5be:	854a                	mv	a0,s2
     5c0:	3909                	jal	1d2 <array_mod>
    int denum_temp[size_D];
     5c2:	8b8a                	mv	s7,sp
//            denum_temp[i] = denum_temp[i] + mod;
//        }
//        denum_temp[i] = denum_temp[i] % mod;
//    }

    array_equ(denum_temp,denum,size_D);
     5c4:	8652                	mv	a2,s4
     5c6:	85ea                	mv	a1,s10
     5c8:	855e                	mv	a0,s7
     5ca:	36b5                	jal	136 <array_equ>
    array_mod(denum_temp,mod,size_D);
     5cc:	8652                	mv	a2,s4
     5ce:	85ce                	mv	a1,s3
     5d0:	855e                	mv	a0,s7
     5d2:	3101                	jal	1d2 <array_mod>

    for (i = 0; i < size_N; ++i){
     5d4:	4781                	li	a5,0
     5d6:	0097cf63          	blt	a5,s1,5f4 <polydiv+0x96>
        q[i] = 0;
        v[i] = 0;
    }

    //find b_N (denum) and degree denum
    for (i = size_D-1; i >= 0; i = i-1){
     5da:	002c9793          	slli	a5,s9,0x2
     5de:	97de                	add	a5,a5,s7
     5e0:	4398                	lw	a4,0(a5)
     5e2:	020cd463          	bgez	s9,60a <polydiv+0xac>
    for (i = 0; i < size_N; ++i){
     5e6:	4781                	li	a5,0
     5e8:	4d01                	li	s10,0
    d2 = i; //f'in derecesi
    b_N = denum_temp[i];

    // Set u := (b_N)^–1 mod p (denum) //
    for (u = 0; u < mod; ++u){
        if ( (b_N*u)%mod == 1 )
     5ea:	4685                	li	a3,1
    for (u = 0; u < mod; ++u){
     5ec:	033d4263          	blt	s10,s3,610 <polydiv+0xb2>
     5f0:	87e2                	mv	a5,s8
     5f2:	a805                	j	622 <polydiv+0xc4>
        q[i] = 0;
     5f4:	00279713          	slli	a4,a5,0x2
     5f8:	00eb06b3          	add	a3,s6,a4
        v[i] = 0;
     5fc:	9756                	add	a4,a4,s5
        q[i] = 0;
     5fe:	0006a023          	sw	zero,0(a3)
        v[i] = 0;
     602:	00072023          	sw	zero,0(a4)
    for (i = 0; i < size_N; ++i){
     606:	0785                	addi	a5,a5,1
     608:	b7f9                	j	5d6 <polydiv+0x78>
        if( denum_temp[i] != 0 )
     60a:	ff71                	bnez	a4,5e6 <polydiv+0x88>
    for (i = size_D-1; i >= 0; i = i-1){
     60c:	1cfd                	addi	s9,s9,-1
     60e:	b7f1                	j	5da <polydiv+0x7c>
        if ( (b_N*u)%mod == 1 )
     610:	0337e633          	rem	a2,a5,s3
     614:	97ba                	add	a5,a5,a4
     616:	fcd60de3          	beq	a2,a3,5f0 <polydiv+0x92>
    for (u = 0; u < mod; ++u){
     61a:	0d05                	addi	s10,s10,1
     61c:	bfc1                	j	5ec <polydiv+0x8e>
            break;
    }

    // find degree num and r_d
    for (i = size_N-1; i >= 0; i = i-1){
        if( num_temp[i] != 0 )
     61e:	eb01                	bnez	a4,62e <polydiv+0xd0>
    for (i = size_N-1; i >= 0; i = i-1){
     620:	17fd                	addi	a5,a5,-1
     622:	00279713          	slli	a4,a5,0x2
     626:	974a                	add	a4,a4,s2
     628:	4318                	lw	a4,0(a4)
     62a:	fe07dae3          	bgez	a5,61e <polydiv+0xc0>

    //printf("\nSİL-3\n");
    //printf("\nd2 = %d, d = %d\n",d2,d);

    // While-1 deg num >= deg denum do
    while (d >= d2){
     62e:	0597d663          	bge	a5,s9,67a <polydiv+0x11c>

//    for(i = 0; i < size_N; ++i){
//        result[i] = q[i];
//    }

      array_equ(result,q,size_N);
     632:	8626                	mv	a2,s1
     634:	85da                	mv	a1,s6
     636:	00001517          	auipc	a0,0x1
     63a:	0aa50513          	addi	a0,a0,170 # 16e0 <result>
     63e:	3ce5                	jal	136 <array_equ>
    


    for(i = size_N; i < (2*size_N); ++i){
     640:	00149713          	slli	a4,s1,0x1
        result[i] = num_temp[i-size_N];
     644:	00001697          	auipc	a3,0x1
     648:	09c68693          	addi	a3,a3,156 # 16e0 <result>
    for(i = size_N; i < (2*size_N); ++i){
     64c:	0ae4cd63          	blt	s1,a4,706 <polydiv+0x1a8>
    }

    return_address3 = &result[0];

    return return_address3;
}
     650:	fc040113          	addi	sp,s0,-64
     654:	50f2                	lw	ra,60(sp)
     656:	5462                	lw	s0,56(sp)
     658:	54d2                	lw	s1,52(sp)
     65a:	5942                	lw	s2,48(sp)
     65c:	59b2                	lw	s3,44(sp)
     65e:	5a22                	lw	s4,40(sp)
     660:	5a92                	lw	s5,36(sp)
     662:	5b02                	lw	s6,32(sp)
     664:	4bf2                	lw	s7,28(sp)
     666:	4c62                	lw	s8,24(sp)
     668:	4cd2                	lw	s9,20(sp)
     66a:	4d42                	lw	s10,16(sp)
     66c:	4db2                	lw	s11,12(sp)
     66e:	00001517          	auipc	a0,0x1
     672:	07250513          	addi	a0,a0,114 # 16e0 <result>
     676:	6121                	addi	sp,sp,64
     678:	8082                	ret
        v[(d-d2)] = u*r_d;
     67a:	03a70733          	mul	a4,a4,s10
     67e:	419787b3          	sub	a5,a5,s9
     682:	078a                	slli	a5,a5,0x2
     684:	97d6                	add	a5,a5,s5
        array_mod(v, mod, size_N);
     686:	8626                	mv	a2,s1
     688:	85ce                	mv	a1,s3
     68a:	8556                	mv	a0,s5
        v[(d-d2)] = u*r_d;
     68c:	c398                	sw	a4,0(a5)
        array_mod(v, mod, size_N);
     68e:	3691                	jal	1d2 <array_mod>
        product = polymult(denum_temp,size_D,v,size_D,mod,0);
     690:	4781                	li	a5,0
     692:	874e                	mv	a4,s3
     694:	86d2                	mv	a3,s4
     696:	8656                	mv	a2,s5
     698:	85d2                	mv	a1,s4
     69a:	855e                	mv	a0,s7
     69c:	36c9                	jal	25e <polymult>
        array_mod(product, mod, size_N);
     69e:	8626                	mv	a2,s1
     6a0:	85ce                	mv	a1,s3
        product = polymult(denum_temp,size_D,v,size_D,mod,0);
     6a2:	8daa                	mv	s11,a0
        array_mod(product, mod, size_N);
     6a4:	363d                	jal	1d2 <array_mod>
        for (i = 0; i < size_N; ++i){
     6a6:	874a                	mv	a4,s2
     6a8:	4781                	li	a5,0
     6aa:	0297c763          	blt	a5,s1,6d8 <polydiv+0x17a>
        array_mod(num_temp, mod, size_N);
     6ae:	8626                	mv	a2,s1
     6b0:	85ce                	mv	a1,s3
     6b2:	854a                	mv	a0,s2
     6b4:	3e39                	jal	1d2 <array_mod>
        array_add(q, v, size_N);
     6b6:	8626                	mv	a2,s1
     6b8:	85d6                	mv	a1,s5
     6ba:	855a                	mv	a0,s6
     6bc:	3ad9                	jal	92 <array_add>
        array_mod(q, mod, size_N);
     6be:	8626                	mv	a2,s1
     6c0:	85ce                	mv	a1,s3
     6c2:	855a                	mv	a0,s6
     6c4:	3639                	jal	1d2 <array_mod>
        for (i = size_N-1; i >= 0; i = i-1){
     6c6:	87e2                	mv	a5,s8
     6c8:	00279713          	slli	a4,a5,0x2
     6cc:	974a                	add	a4,a4,s2
     6ce:	4318                	lw	a4,0(a4)
     6d0:	0007df63          	bgez	a5,6ee <polydiv+0x190>
     6d4:	4681                	li	a3,0
     6d6:	a02d                	j	700 <polydiv+0x1a2>
            num_temp[i] = num_temp[i] - product[i];
     6d8:	00279613          	slli	a2,a5,0x2
     6dc:	966e                	add	a2,a2,s11
     6de:	4314                	lw	a3,0(a4)
     6e0:	4210                	lw	a2,0(a2)
        for (i = 0; i < size_N; ++i){
     6e2:	0785                	addi	a5,a5,1
     6e4:	0711                	addi	a4,a4,4
            num_temp[i] = num_temp[i] - product[i];
     6e6:	8e91                	sub	a3,a3,a2
     6e8:	fed72e23          	sw	a3,-4(a4)
        for (i = 0; i < size_N; ++i){
     6ec:	bf7d                	j	6aa <polydiv+0x14c>
            if( num_temp[i] != 0 )
     6ee:	f37d                	bnez	a4,6d4 <polydiv+0x176>
        for (i = size_N-1; i >= 0; i = i-1){
     6f0:	17fd                	addi	a5,a5,-1
     6f2:	bfd9                	j	6c8 <polydiv+0x16a>
            v[i] = 0;
     6f4:	00269613          	slli	a2,a3,0x2
     6f8:	9656                	add	a2,a2,s5
     6fa:	00062023          	sw	zero,0(a2)
        for (i = 0; i < size_N; ++i){
     6fe:	0685                	addi	a3,a3,1
     700:	fe96cae3          	blt	a3,s1,6f4 <polydiv+0x196>
     704:	b72d                	j	62e <polydiv+0xd0>
        result[i] = num_temp[i-size_N];
     706:	00092603          	lw	a2,0(s2)
     70a:	00249793          	slli	a5,s1,0x2
     70e:	97b6                	add	a5,a5,a3
     710:	c390                	sw	a2,0(a5)
    for(i = size_N; i < (2*size_N); ++i){
     712:	0485                	addi	s1,s1,1
     714:	0911                	addi	s2,s2,4
     716:	bf1d                	j	64c <polydiv+0xee>

00000718 <ext_euclid>:

int* ext_euclid(int* polyR, int* polyf, int size, int mod) {

    int *return_address4;
    int N, i, j;
    int ri_2[size]; // MX-ring poly, a
     718:	00261793          	slli	a5,a2,0x2
int* ext_euclid(int* polyR, int* polyf, int size, int mod) {
     71c:	715d                	addi	sp,sp,-80
    int ri_2[size]; // MX-ring poly, a
     71e:	07bd                	addi	a5,a5,15
     720:	9bc1                	andi	a5,a5,-16
int* ext_euclid(int* polyR, int* polyf, int size, int mod) {
     722:	c4a2                	sw	s0,72(sp)
     724:	c2a6                	sw	s1,68(sp)
     726:	c0ca                	sw	s2,64(sp)
     728:	de4e                	sw	s3,60(sp)
     72a:	dc52                	sw	s4,56(sp)
     72c:	da56                	sw	s5,52(sp)
     72e:	d85a                	sw	s6,48(sp)
     730:	d65e                	sw	s7,44(sp)
     732:	d462                	sw	s8,40(sp)
     734:	d266                	sw	s9,36(sp)
     736:	d06a                	sw	s10,32(sp)
     738:	ce6e                	sw	s11,28(sp)
     73a:	c686                	sw	ra,76(sp)
     73c:	0880                	addi	s0,sp,80
    int ri_2[size]; // MX-ring poly, a
     73e:	40f10133          	sub	sp,sp,a5
     742:	898a                	mv	s3,sp
    int ri_1[size]; // f-random poly, f[N] = 0, b
     744:	40f10133          	sub	sp,sp,a5
     748:	8a0a                	mv	s4,sp
    int ri[size];
     74a:	40f10133          	sub	sp,sp,a5
     74e:	8c0a                	mv	s8,sp

    int ti_1[size]; // ti_1[0] = 1
     750:	40f10133          	sub	sp,sp,a5
     754:	8b0a                	mv	s6,sp
    int ti[size];
     756:	40f10133          	sub	sp,sp,a5
     75a:	8d0a                	mv	s10,sp
    int qi_1[size];
     75c:	40f10133          	sub	sp,sp,a5
     760:	8c8a                	mv	s9,sp
    int temp[size];
     762:	40f10133          	sub	sp,sp,a5
int* ext_euclid(int* polyR, int* polyf, int size, int mod) {
     766:	8936                	mv	s2,a3
     768:	8dae                	mv	s11,a1
     76a:	84b2                	mv	s1,a2
    int ri_2[size]; // MX-ring poly, a
     76c:	fff60b93          	addi	s7,a2,-1
    int temp[size];
     770:	8a8a                	mv	s5,sp
    int *res1;
    int *res2;
    int controlR = 1;

    N = size - 1;
    for (i = 0; i < size; ++i) {
     772:	4781                	li	a5,0
//        ri_2[i] = polyR[i];
//        ri_1[i] = polyf[i];
        ti_2[i] = 0;
     774:	00001697          	auipc	a3,0x1
     778:	1c468693          	addi	a3,a3,452 # 1938 <ti_2>
    for (i = 0; i < size; ++i) {
     77c:	1097cb63          	blt	a5,s1,892 <ext_euclid+0x17a>
        ti_1[i] = 0;
    }
    array_equ(ri_2,polyR,size);
     780:	85aa                	mv	a1,a0
     782:	8626                	mv	a2,s1
     784:	854e                	mv	a0,s3
     786:	3a45                	jal	136 <array_equ>
    array_equ(ri_1,polyf,size);
     788:	85ee                	mv	a1,s11
     78a:	8626                	mv	a2,s1
     78c:	8552                	mv	a0,s4
     78e:	3265                	jal	136 <array_equ>
///// ri_2 = polyR      ///////
///// ri_1 = f         //////////
///// ti_2 = ti_1 = 0 /////////

    ti_1[0] = 1;
     790:	4785                	li	a5,1
     792:	00fb2023          	sw	a5,0(s6)
//            ri_1[i] = ri_1[i] % mod;
//        }
    array_mod(ri_1,mod,size);

        res = polydiv(ri_2, N + 1, ri_1, N + 1, mod);
        for (i = N + 1; i < (2 * N + 2); ++i) {
     796:	00149793          	slli	a5,s1,0x1
     79a:	faf42e23          	sw	a5,-68(s0)
//            temp[i] = temp[i] % mod;
//        }
    array_mod(temp,mod,size);

        for (i = 0; i < N + 1; ++i) {
            ti[i] = ti_2[i] - temp[i];
     79e:	00001d97          	auipc	s11,0x1
     7a2:	19ad8d93          	addi	s11,s11,410 # 1938 <ti_2>
    array_mod(ri_2,mod,size);
     7a6:	8626                	mv	a2,s1
     7a8:	85ca                	mv	a1,s2
     7aa:	854e                	mv	a0,s3
     7ac:	341d                	jal	1d2 <array_mod>
    array_mod(ri_1,mod,size);
     7ae:	8626                	mv	a2,s1
     7b0:	85ca                	mv	a1,s2
     7b2:	8552                	mv	a0,s4
     7b4:	3c39                	jal	1d2 <array_mod>
        res = polydiv(ri_2, N + 1, ri_1, N + 1, mod);
     7b6:	874a                	mv	a4,s2
     7b8:	86a6                	mv	a3,s1
     7ba:	8652                	mv	a2,s4
     7bc:	85a6                	mv	a1,s1
     7be:	854e                	mv	a0,s3
     7c0:	3b79                	jal	55e <polydiv>
        for (i = N + 1; i < (2 * N + 2); ++i) {
     7c2:	8762                	mv	a4,s8
     7c4:	87a6                	mv	a5,s1
     7c6:	fbc42683          	lw	a3,-68(s0)
     7ca:	0cd7cf63          	blt	a5,a3,8a8 <ext_euclid+0x190>
     7ce:	4781                	li	a5,0
        for (i = 0; i < N + 1; ++i) {
     7d0:	4701                	li	a4,0
     7d2:	0eebd463          	bge	s7,a4,8ba <ext_euclid+0x1a2>
    array_mod(temp,mod,size);
     7d6:	8626                	mv	a2,s1
     7d8:	85ca                	mv	a1,s2
     7da:	8556                	mv	a0,s5
     7dc:	3add                	jal	1d2 <array_mod>
        res1 = polydiv(temp, N + 1, ri_1, N + 1, mod);
     7de:	874a                	mv	a4,s2
     7e0:	86a6                	mv	a3,s1
     7e2:	8652                	mv	a2,s4
     7e4:	85a6                	mv	a1,s1
     7e6:	8556                	mv	a0,s5
     7e8:	3b9d                	jal	55e <polydiv>
     7ea:	85aa                	mv	a1,a0
    array_equ(qi_1,res1,size);
     7ec:	8626                	mv	a2,s1
     7ee:	8566                	mv	a0,s9
     7f0:	3299                	jal	136 <array_equ>
    array_mod(qi_1,mod,size);
     7f2:	8626                	mv	a2,s1
     7f4:	85ca                	mv	a1,s2
     7f6:	8566                	mv	a0,s9
     7f8:	3ae9                	jal	1d2 <array_mod>
        res2 = polymult(qi_1, N + 1, ti_1, N + 1, mod, 0);
     7fa:	4781                	li	a5,0
     7fc:	874a                	mv	a4,s2
     7fe:	86a6                	mv	a3,s1
     800:	865a                	mv	a2,s6
     802:	85a6                	mv	a1,s1
     804:	8566                	mv	a0,s9
     806:	3ca1                	jal	25e <polymult>
     808:	85aa                	mv	a1,a0
    array_equ(temp,res2,size);
     80a:	8626                	mv	a2,s1
     80c:	8556                	mv	a0,s5
     80e:	3225                	jal	136 <array_equ>
    array_mod(temp,mod,size);
     810:	8626                	mv	a2,s1
     812:	85ca                	mv	a1,s2
     814:	8556                	mv	a0,s5
     816:	3a75                	jal	1d2 <array_mod>
        for (i = 0; i < N + 1; ++i) {
     818:	4781                	li	a5,0
     81a:	4701                	li	a4,0
     81c:	0aebdc63          	bge	s7,a4,8d4 <ext_euclid+0x1bc>
//            while (ti[i] < 0) {
//                ti[i] = ti[i] + mod;
//            }
//            ti[i] = ti[i] % mod;
//        }
    array_mod(ti,mod,size);
     820:	8626                	mv	a2,s1
     822:	85ca                	mv	a1,s2
     824:	856a                	mv	a0,s10
     826:	3275                	jal	1d2 <array_mod>

/// ri_2 = ri_1; ri_1 = ri; ti_2 = ti_1; ti_1 = ti; ///


/////////////////////////////////buralarda sorun olabilir//////////
array_equ(ri_2,ri_1,size);
     828:	8626                	mv	a2,s1
     82a:	85d2                	mv	a1,s4
     82c:	854e                	mv	a0,s3
     82e:	3221                	jal	136 <array_equ>
array_equ(ri_1,ri,size);
     830:	8626                	mv	a2,s1
     832:	85e2                	mv	a1,s8
     834:	8552                	mv	a0,s4
     836:	3201                	jal	136 <array_equ>
array_equ(ti_2,ti_1,size);
     838:	8626                	mv	a2,s1
     83a:	85da                	mv	a1,s6
     83c:	856e                	mv	a0,s11
     83e:	38e5                	jal	136 <array_equ>
array_equ(ti_1,ti,size);
     840:	8626                	mv	a2,s1
     842:	85ea                	mv	a1,s10
     844:	855a                	mv	a0,s6
     846:	38c5                	jal	136 <array_equ>
        controlR = 0;
     848:	4781                	li	a5,0

        for (i = 0; i < N + 1; ++i) {
     84a:	4701                	li	a4,0
     84c:	0aebd163          	bge	s7,a4,8ee <ext_euclid+0x1d6>
    while (controlR != 0) {
     850:	f4079be3          	bnez	a5,7a6 <ext_euclid+0x8e>
            controlR += ri[i];
        }
    }


        for (j = 0; j < mod; ++j) {
     854:	4701                	li	a4,0
            if (((ri_2[0] * j) % mod) == 1)
     856:	4605                	li	a2,1
        for (j = 0; j < mod; ++j) {
     858:	0b274663          	blt	a4,s2,904 <ext_euclid+0x1ec>
     85c:	00001617          	auipc	a2,0x1
     860:	0dc60613          	addi	a2,a2,220 # 1938 <ti_2>
            if (ri_2[i] != 0)
                //	printf("**** GCD of SECRET POL and POLYR is not 1 !! OPERATION INVALID!! PICK ANOTHER RANDOM VALUE !! *****\n");
                break;
        }

        for (i = 0; i < N + 1; ++i) {
     864:	0afbda63          	bge	s7,a5,918 <ext_euclid+0x200>
        }


        return_address4 = &ti_2[0];
        return return_address4;
    }
     868:	fb040113          	addi	sp,s0,-80
     86c:	40b6                	lw	ra,76(sp)
     86e:	4426                	lw	s0,72(sp)
     870:	4496                	lw	s1,68(sp)
     872:	4906                	lw	s2,64(sp)
     874:	59f2                	lw	s3,60(sp)
     876:	5a62                	lw	s4,56(sp)
     878:	5ad2                	lw	s5,52(sp)
     87a:	5b42                	lw	s6,48(sp)
     87c:	5bb2                	lw	s7,44(sp)
     87e:	5c22                	lw	s8,40(sp)
     880:	5c92                	lw	s9,36(sp)
     882:	5d02                	lw	s10,32(sp)
     884:	4df2                	lw	s11,28(sp)
     886:	00001517          	auipc	a0,0x1
     88a:	0b250513          	addi	a0,a0,178 # 1938 <ti_2>
     88e:	6161                	addi	sp,sp,80
     890:	8082                	ret
        ti_2[i] = 0;
     892:	00279713          	slli	a4,a5,0x2
     896:	00e68633          	add	a2,a3,a4
        ti_1[i] = 0;
     89a:	975a                	add	a4,a4,s6
        ti_2[i] = 0;
     89c:	00062023          	sw	zero,0(a2)
        ti_1[i] = 0;
     8a0:	00072023          	sw	zero,0(a4)
    for (i = 0; i < size; ++i) {
     8a4:	0785                	addi	a5,a5,1
     8a6:	bdd9                	j	77c <ext_euclid+0x64>
            ri[i - (N + 1)] = res[i];
     8a8:	00279693          	slli	a3,a5,0x2
     8ac:	96aa                	add	a3,a3,a0
     8ae:	4294                	lw	a3,0(a3)
        for (i = N + 1; i < (2 * N + 2); ++i) {
     8b0:	0785                	addi	a5,a5,1
     8b2:	0711                	addi	a4,a4,4
            ri[i - (N + 1)] = res[i];
     8b4:	fed72e23          	sw	a3,-4(a4)
        for (i = N + 1; i < (2 * N + 2); ++i) {
     8b8:	b739                	j	7c6 <ext_euclid+0xae>
            temp[i] = ri_2[i] - ri[i];
     8ba:	00f986b3          	add	a3,s3,a5
     8be:	00fc05b3          	add	a1,s8,a5
     8c2:	4294                	lw	a3,0(a3)
     8c4:	418c                	lw	a1,0(a1)
     8c6:	00fa8633          	add	a2,s5,a5
        for (i = 0; i < N + 1; ++i) {
     8ca:	0705                	addi	a4,a4,1
            temp[i] = ri_2[i] - ri[i];
     8cc:	8e8d                	sub	a3,a3,a1
     8ce:	c214                	sw	a3,0(a2)
        for (i = 0; i < N + 1; ++i) {
     8d0:	0791                	addi	a5,a5,4
     8d2:	b701                	j	7d2 <ext_euclid+0xba>
            ti[i] = ti_2[i] - temp[i];
     8d4:	00fd86b3          	add	a3,s11,a5
     8d8:	00fa85b3          	add	a1,s5,a5
     8dc:	4294                	lw	a3,0(a3)
     8de:	418c                	lw	a1,0(a1)
     8e0:	00fd0633          	add	a2,s10,a5
        for (i = 0; i < N + 1; ++i) {
     8e4:	0705                	addi	a4,a4,1
            ti[i] = ti_2[i] - temp[i];
     8e6:	8e8d                	sub	a3,a3,a1
     8e8:	c214                	sw	a3,0(a2)
        for (i = 0; i < N + 1; ++i) {
     8ea:	0791                	addi	a5,a5,4
     8ec:	bf05                	j	81c <ext_euclid+0x104>
              qi_1[i] = 0;
     8ee:	00271693          	slli	a3,a4,0x2
     8f2:	00dc8633          	add	a2,s9,a3
            controlR += ri[i];
     8f6:	96e2                	add	a3,a3,s8
     8f8:	4294                	lw	a3,0(a3)
              qi_1[i] = 0;
     8fa:	00062023          	sw	zero,0(a2)
        for (i = 0; i < N + 1; ++i) {
     8fe:	0705                	addi	a4,a4,1
            controlR += ri[i];
     900:	97b6                	add	a5,a5,a3
        for (i = 0; i < N + 1; ++i) {
     902:	b7a9                	j	84c <ext_euclid+0x134>
            if (((ri_2[0] * j) % mod) == 1)
     904:	0009a683          	lw	a3,0(s3)
     908:	02d706b3          	mul	a3,a4,a3
     90c:	0326e6b3          	rem	a3,a3,s2
     910:	f4c686e3          	beq	a3,a2,85c <ext_euclid+0x144>
        for (j = 0; j < mod; ++j) {
     914:	0705                	addi	a4,a4,1
     916:	b789                	j	858 <ext_euclid+0x140>
            ti_2[i] = (ti_2[i] * j) % mod;
     918:	4214                	lw	a3,0(a2)
        for (i = 0; i < N + 1; ++i) {
     91a:	0785                	addi	a5,a5,1
     91c:	0611                	addi	a2,a2,4
            ti_2[i] = (ti_2[i] * j) % mod;
     91e:	02d706b3          	mul	a3,a4,a3
     922:	0326e6b3          	rem	a3,a3,s2
     926:	fed62e23          	sw	a3,-4(a2)
        for (i = 0; i < N + 1; ++i) {
     92a:	bf2d                	j	864 <ext_euclid+0x14c>

0000092c <generate_keys>:




int* generate_keys(int N, int p, int q){
     92c:	7141                	addi	sp,sp,-496
     92e:	1e112623          	sw	ra,492(sp)
     932:	1e812423          	sw	s0,488(sp)
     936:	1e912223          	sw	s1,484(sp)
     93a:	1b80                	addi	s0,sp,496
     93c:	1f212023          	sw	s2,480(sp)
     940:	1d312e23          	sw	s3,476(sp)
     944:	1d412c23          	sw	s4,472(sp)
     948:	1d512a23          	sw	s5,468(sp)
     94c:	1d612823          	sw	s6,464(sp)
     950:	1d712623          	sw	s7,460(sp)
     954:	1da12023          	sw	s10,448(sp)
     958:	1d812423          	sw	s8,456(sp)
     95c:	1d912223          	sw	s9,452(sp)
     960:	892a                	mv	s2,a0
     962:	8bae                	mv	s7,a1
     964:	8b32                	mv	s6,a2

    int f[55] = {-1, 1, 1, 0, -1, 0, 1, 0, 0, 1, -1, -1, 0, 1, 0, -1, 0, 1, 1, 0, 0,  -1, 0, 1, 0, 0, 1, 1, 1,  -1, 0, 1, 0, 0, 1, 1, 1,    -1, 0, 1, 0, 0, 1, 1, 1};
     966:	4581                	li	a1,0
     968:	0d000613          	li	a2,208
     96c:	e2440513          	addi	a0,s0,-476
     970:	23b1                	jal	ebc <memset>
     972:	4485                	li	s1,1
     974:	59fd                	li	s3,-1
    int g[55] = {-1, 0, 1, 1, 0, 1, 0, 0, -1, 0, -1, -1, 0, 1, 0, -1, 0, 1, 0, 0, 1, -1, 0, 1, 0, 0, 1, -1, 0, 1, 0, 0, 1, -1, 0, 1, 0, 1,   1, 0, 0, 1, -1, 0, 1, 0, 1};
     976:	0d800613          	li	a2,216
     97a:	4581                	li	a1,0
     97c:	ef840513          	addi	a0,s0,-264
    int f[55] = {-1, 1, 1, 0, -1, 0, 1, 0, 0, 1, -1, -1, 0, 1, 0, -1, 0, 1, 1, 0, 0,  -1, 0, 1, 0, 0, 1, 1, 1,  -1, 0, 1, 0, 0, 1, 1, 1,    -1, 0, 1, 0, 0, 1, 1, 1};
     980:	e1342c23          	sw	s3,-488(s0)
     984:	e0942e23          	sw	s1,-484(s0)
     988:	e2942023          	sw	s1,-480(s0)
     98c:	e3342423          	sw	s3,-472(s0)
     990:	e2942823          	sw	s1,-464(s0)
     994:	e2942e23          	sw	s1,-452(s0)
     998:	e5342023          	sw	s3,-448(s0)
     99c:	e5342223          	sw	s3,-444(s0)
     9a0:	e4942623          	sw	s1,-436(s0)
     9a4:	e5342a23          	sw	s3,-428(s0)
     9a8:	e4942e23          	sw	s1,-420(s0)
     9ac:	e6942023          	sw	s1,-416(s0)
     9b0:	e7342623          	sw	s3,-404(s0)
     9b4:	e6942a23          	sw	s1,-396(s0)
     9b8:	e8942023          	sw	s1,-384(s0)
     9bc:	e8942223          	sw	s1,-380(s0)
     9c0:	e8942423          	sw	s1,-376(s0)
     9c4:	e9342623          	sw	s3,-372(s0)
     9c8:	e8942a23          	sw	s1,-364(s0)
     9cc:	ea942023          	sw	s1,-352(s0)
     9d0:	ea942223          	sw	s1,-348(s0)
     9d4:	ea942423          	sw	s1,-344(s0)
     9d8:	eb342623          	sw	s3,-340(s0)
     9dc:	ea942a23          	sw	s1,-332(s0)
     9e0:	ec942023          	sw	s1,-320(s0)
     9e4:	ec942223          	sw	s1,-316(s0)
     9e8:	ec942423          	sw	s1,-312(s0)

    int *fp;
    int *fq;
    int *fg;
    int *pk;
    int polyR[N+1];
     9ec:	00190a93          	addi	s5,s2,1
    int g[55] = {-1, 0, 1, 1, 0, 1, 0, 0, -1, 0, -1, -1, 0, 1, 0, -1, 0, 1, 0, 0, 1, -1, 0, 1, 0, 0, 1, -1, 0, 1, 0, 0, 1, -1, 0, 1, 0, 1,   1, 0, 0, 1, -1, 0, 1, 0, 1};
     9f0:	21f1                	jal	ebc <memset>
    int polyR[N+1];
     9f2:	002a9793          	slli	a5,s5,0x2
     9f6:	07bd                	addi	a5,a5,15
     9f8:	9bc1                	andi	a5,a5,-16
     9fa:	40f10133          	sub	sp,sp,a5
     9fe:	8a0a                	mv	s4,sp
    int i;
    int* return_address5;


    polyR[N] = 1;
     a00:	00291d13          	slli	s10,s2,0x2
     a04:	01aa07b3          	add	a5,s4,s10
     a08:	c384                	sw	s1,0(a5)
    int g[55] = {-1, 0, 1, 1, 0, 1, 0, 0, -1, 0, -1, -1, 0, 1, 0, -1, 0, 1, 0, 0, 1, -1, 0, 1, 0, 0, 1, -1, 0, 1, 0, 0, 1, -1, 0, 1, 0, 1,   1, 0, 0, 1, -1, 0, 1, 0, 1};
     a0a:	ef342a23          	sw	s3,-268(s0)
     a0e:	ee942e23          	sw	s1,-260(s0)
     a12:	f0942023          	sw	s1,-256(s0)
     a16:	f0942423          	sw	s1,-248(s0)
     a1a:	f1342a23          	sw	s3,-236(s0)
     a1e:	f1342e23          	sw	s3,-228(s0)
     a22:	f3342023          	sw	s3,-224(s0)
     a26:	f2942423          	sw	s1,-216(s0)
     a2a:	f3342823          	sw	s3,-208(s0)
     a2e:	f2942c23          	sw	s1,-200(s0)
     a32:	f4942223          	sw	s1,-188(s0)
     a36:	f5342423          	sw	s3,-184(s0)
     a3a:	f4942823          	sw	s1,-176(s0)
     a3e:	f4942e23          	sw	s1,-164(s0)
     a42:	f7342023          	sw	s3,-160(s0)
     a46:	f6942423          	sw	s1,-152(s0)
     a4a:	f6942a23          	sw	s1,-140(s0)
     a4e:	f7342c23          	sw	s3,-136(s0)
     a52:	f8942023          	sw	s1,-128(s0)
     a56:	f8942423          	sw	s1,-120(s0)
     a5a:	f8942623          	sw	s1,-116(s0)
     a5e:	f8942c23          	sw	s1,-104(s0)
     a62:	f9342e23          	sw	s3,-100(s0)
     a66:	fa942223          	sw	s1,-92(s0)
     a6a:	fa942623          	sw	s1,-84(s0)
    polyR[0] = -1;
     a6e:	013a2023          	sw	s3,0(s4)

    for(i = 1; i < N; ++i){
     a72:	4785                	li	a5,1
     a74:	1127c163          	blt	a5,s2,b76 <generate_keys+0x24a>
     a78:	87ca                	mv	a5,s2
        polyR[i] = 0;
    }



    for (i = N; i < 55; ++i ){
     a7a:	03600693          	li	a3,54
     a7e:	10f6d363          	bge	a3,a5,b84 <generate_keys+0x258>
        g[i] = 0;
    }
///// F VE G ARRAYLERİNİN SONLARI SIFIRLANDI //////


    for(i = 0; i < N; ++i){
     a82:	4781                	li	a5,0
        random_keys[i] = f[i];
     a84:	00001697          	auipc	a3,0x1
     a88:	04468693          	addi	a3,a3,68 # 1ac8 <random_keys>
    for(i = 0; i < N; ++i){
     a8c:	1127ca63          	blt	a5,s2,ba0 <generate_keys+0x274>
     a90:	ef440713          	addi	a4,s0,-268
    }
    ////RANDOM_KEYS 0-52 ARASI F////

    for(i = N; i < (2*N); ++i){
     a94:	00191993          	slli	s3,s2,0x1
     a98:	87ca                	mv	a5,s2
     a9a:	8cba                	mv	s9,a4
        random_keys[i] = g[i-N];
     a9c:	00001617          	auipc	a2,0x1
     aa0:	02c60613          	addi	a2,a2,44 # 1ac8 <random_keys>
    for(i = N; i < (2*N); ++i){
     aa4:	1137c963          	blt	a5,s3,bb6 <generate_keys+0x28a>
    ////RANDOM_KEYS 53-105 ARASI G////

    fp = ext_euclid(polyR, f, (N+1), p);
    ////FP HESAPLANDI////

    for(i = (2*N); i < (3*N); ++i){
     aa8:	448d                	li	s1,3
     aaa:	029904b3          	mul	s1,s2,s1
    fp = ext_euclid(polyR, f, (N+1), p);
     aae:	86de                	mv	a3,s7
     ab0:	8656                	mv	a2,s5
     ab2:	e1840593          	addi	a1,s0,-488
     ab6:	8552                	mv	a0,s4
     ab8:	3185                	jal	718 <ext_euclid>
    for(i = (2*N); i < (3*N); ++i){
     aba:	87ce                	mv	a5,s3
        random_keys[i] = fp[i-(2*N)];
     abc:	00001697          	auipc	a3,0x1
     ac0:	00c68693          	addi	a3,a3,12 # 1ac8 <random_keys>
    for(i = (2*N); i < (3*N); ++i){
     ac4:	1097c163          	blt	a5,s1,bc6 <generate_keys+0x29a>
    }
    ////RANDOM_KEYS 106-158 ARASI FP////


    fq = ext_euclid(polyR, f, (N+1), q);
     ac8:	8656                	mv	a2,s5
     aca:	86da                	mv	a3,s6
     acc:	e1840593          	addi	a1,s0,-488
     ad0:	8552                	mv	a0,s4
     ad2:	3199                	jal	718 <ext_euclid>
    ////FQ HESAPLANDI ////


    for(i = (3*N); i < (4*N); ++i){
     ad4:	5751                	li	a4,-12
     ad6:	02e90733          	mul	a4,s2,a4
     ada:	8c6a                	mv	s8,s10
        random_keys[i] = fq[i-(3*N)];
     adc:	00001617          	auipc	a2,0x1
     ae0:	fec60613          	addi	a2,a2,-20 # 1ac8 <random_keys>
    for(i = (3*N); i < (4*N); ++i){
     ae4:	0fa4c963          	blt	s1,s10,bd6 <generate_keys+0x2aa>
    }
    ////RANDOM KEYS 159-211 ARASI FQ ////

    fg = polymult2(fq, N, g, N, 0);
     ae8:	4701                	li	a4,0
     aea:	85ca                	mv	a1,s2
     aec:	86ca                	mv	a3,s2
     aee:	8666                	mv	a2,s9
     af0:	3a01                	jal	400 <polymult2>
    //// FG HESAPLANDI ////

    for(i = 0; i < (2*N-1); ++i){
     af2:	87aa                	mv	a5,a0
     af4:	4701                	li	a4,0
     af6:	fff98593          	addi	a1,s3,-1
     afa:	0eb74863          	blt	a4,a1,bea <generate_keys+0x2be>
        fg[i] = fg[i]*p;
    }

    //// FG = 3FG ////

    pk = polydiv(fg, (2*N-1), polyR, (N+1), q);
     afe:	86d6                	mv	a3,s5
     b00:	875a                	mv	a4,s6
     b02:	8652                	mv	a2,s4
     b04:	3ca9                	jal	55e <polydiv>

    ////PK HESAPLANDI////

    for(i = (4*N); i < (5*N); ++i){
     b06:	4795                	li	a5,5
     b08:	02f907b3          	mul	a5,s2,a5
     b0c:	098a                	slli	s3,s3,0x2
     b0e:	99aa                	add	s3,s3,a0
        random_keys[i] = pk[i-(4*N)+(2*N-1)];
     b10:	00001697          	auipc	a3,0x1
     b14:	fb868693          	addi	a3,a3,-72 # 1ac8 <random_keys>
    for(i = (4*N); i < (5*N); ++i){
     b18:	0991                	addi	s3,s3,4
     b1a:	0efc4063          	blt	s8,a5,bfa <generate_keys+0x2ce>
    }
    //////// RANDOM KEYS SONU PK  ////////

    for(i = (5*N); i < (6*N+1); ++i){
     b1e:	4699                	li	a3,6
     b20:	5531                	li	a0,-20
        random_keys[i] = polyR[i-(5*N)];
     b22:	00001617          	auipc	a2,0x1
     b26:	fa660613          	addi	a2,a2,-90 # 1ac8 <random_keys>
    for(i = (5*N); i < (6*N+1); ++i){
     b2a:	02d906b3          	mul	a3,s2,a3
     b2e:	02a90933          	mul	s2,s2,a0
     b32:	0cf6dc63          	bge	a3,a5,c0a <generate_keys+0x2de>


    return_address5 = &random_keys[0];

    return return_address5;
}
     b36:	e1040113          	addi	sp,s0,-496
     b3a:	1ec12083          	lw	ra,492(sp)
     b3e:	1e812403          	lw	s0,488(sp)
     b42:	1e412483          	lw	s1,484(sp)
     b46:	1e012903          	lw	s2,480(sp)
     b4a:	1dc12983          	lw	s3,476(sp)
     b4e:	1d812a03          	lw	s4,472(sp)
     b52:	1d412a83          	lw	s5,468(sp)
     b56:	1d012b03          	lw	s6,464(sp)
     b5a:	1cc12b83          	lw	s7,460(sp)
     b5e:	1c812c03          	lw	s8,456(sp)
     b62:	1c412c83          	lw	s9,452(sp)
     b66:	1c012d03          	lw	s10,448(sp)
     b6a:	00001517          	auipc	a0,0x1
     b6e:	f5e50513          	addi	a0,a0,-162 # 1ac8 <random_keys>
     b72:	617d                	addi	sp,sp,496
     b74:	8082                	ret
        polyR[i] = 0;
     b76:	00279713          	slli	a4,a5,0x2
     b7a:	9752                	add	a4,a4,s4
     b7c:	00072023          	sw	zero,0(a4)
    for(i = 1; i < N; ++i){
     b80:	0785                	addi	a5,a5,1
     b82:	bdcd                	j	a74 <generate_keys+0x148>
        f[i] = 0;
     b84:	00279713          	slli	a4,a5,0x2
     b88:	e1840613          	addi	a2,s0,-488
     b8c:	963a                	add	a2,a2,a4
     b8e:	00062023          	sw	zero,0(a2)
        g[i] = 0;
     b92:	ef440613          	addi	a2,s0,-268
     b96:	9732                	add	a4,a4,a2
     b98:	00072023          	sw	zero,0(a4)
    for (i = N; i < 55; ++i ){
     b9c:	0785                	addi	a5,a5,1
     b9e:	b5c5                	j	a7e <generate_keys+0x152>
        random_keys[i] = f[i];
     ba0:	00279713          	slli	a4,a5,0x2
     ba4:	e1840593          	addi	a1,s0,-488
     ba8:	00e68633          	add	a2,a3,a4
     bac:	972e                	add	a4,a4,a1
     bae:	4318                	lw	a4,0(a4)
    for(i = 0; i < N; ++i){
     bb0:	0785                	addi	a5,a5,1
        random_keys[i] = f[i];
     bb2:	c218                	sw	a4,0(a2)
    for(i = 0; i < N; ++i){
     bb4:	bde1                	j	a8c <generate_keys+0x160>
        random_keys[i] = g[i-N];
     bb6:	430c                	lw	a1,0(a4)
     bb8:	00279693          	slli	a3,a5,0x2
     bbc:	96b2                	add	a3,a3,a2
     bbe:	c28c                	sw	a1,0(a3)
    for(i = N; i < (2*N); ++i){
     bc0:	0785                	addi	a5,a5,1
     bc2:	0711                	addi	a4,a4,4
     bc4:	b5c5                	j	aa4 <generate_keys+0x178>
        random_keys[i] = fp[i-(2*N)];
     bc6:	4110                	lw	a2,0(a0)
     bc8:	00279713          	slli	a4,a5,0x2
     bcc:	9736                	add	a4,a4,a3
     bce:	c310                	sw	a2,0(a4)
    for(i = (2*N); i < (3*N); ++i){
     bd0:	0785                	addi	a5,a5,1
     bd2:	0511                	addi	a0,a0,4
     bd4:	bdc5                	j	ac4 <generate_keys+0x198>
        random_keys[i] = fq[i-(3*N)];
     bd6:	00249793          	slli	a5,s1,0x2
     bda:	00f706b3          	add	a3,a4,a5
     bde:	96aa                	add	a3,a3,a0
     be0:	4294                	lw	a3,0(a3)
     be2:	97b2                	add	a5,a5,a2
    for(i = (3*N); i < (4*N); ++i){
     be4:	0485                	addi	s1,s1,1
        random_keys[i] = fq[i-(3*N)];
     be6:	c394                	sw	a3,0(a5)
    for(i = (3*N); i < (4*N); ++i){
     be8:	bdf5                	j	ae4 <generate_keys+0x1b8>
        fg[i] = fg[i]*p;
     bea:	4394                	lw	a3,0(a5)
    for(i = 0; i < (2*N-1); ++i){
     bec:	0705                	addi	a4,a4,1
     bee:	0791                	addi	a5,a5,4
        fg[i] = fg[i]*p;
     bf0:	037686b3          	mul	a3,a3,s7
     bf4:	fed7ae23          	sw	a3,-4(a5)
    for(i = 0; i < (2*N-1); ++i){
     bf8:	b709                	j	afa <generate_keys+0x1ce>
        random_keys[i] = pk[i-(4*N)+(2*N-1)];
     bfa:	ff89a603          	lw	a2,-8(s3)
     bfe:	002c1713          	slli	a4,s8,0x2
     c02:	9736                	add	a4,a4,a3
     c04:	c310                	sw	a2,0(a4)
    for(i = (4*N); i < (5*N); ++i){
     c06:	0c05                	addi	s8,s8,1
     c08:	bf01                	j	b18 <generate_keys+0x1ec>
        random_keys[i] = polyR[i-(5*N)];
     c0a:	00279713          	slli	a4,a5,0x2
     c0e:	00e605b3          	add	a1,a2,a4
     c12:	974a                	add	a4,a4,s2
     c14:	9752                	add	a4,a4,s4
     c16:	4318                	lw	a4,0(a4)
    for(i = (5*N); i < (6*N+1); ++i){
     c18:	0785                	addi	a5,a5,1
        random_keys[i] = polyR[i-(5*N)];
     c1a:	c198                	sw	a4,0(a1)
    for(i = (5*N); i < (6*N+1); ++i){
     c1c:	bf19                	j	b32 <generate_keys+0x206>

00000c1e <ntru_encyrpt>:


int* ntru_encyrpt(int N, int q, int* message, int* public_key, int* polyR){
     c1e:	7115                	addi	sp,sp,-224
     c20:	cda2                	sw	s0,216(sp)
     c22:	cba6                	sw	s1,212(sp)
     c24:	842a                	mv	s0,a0
     c26:	84b2                	mv	s1,a2
     c28:	c9ca                	sw	s2,208(sp)

    int *return_address6;
    int *CT;

    int random_val[48] = { 1, -1, 0, 1, -1, 1, -1, 0,1, 1, 0, -1, 1, -1, 1, 0,1, 1, 0, -1, 1, -1, 1, 0,1, 1, 0, 1, -1, 1, -1, 0, 1, -1, 0, 1, -1, 1, -1, 0,1, 1, 0, -1, 1, -1, 1, 0};
     c2a:	0c000613          	li	a2,192
int* ntru_encyrpt(int N, int q, int* message, int* public_key, int* polyR){
     c2e:	892e                	mv	s2,a1
    int random_val[48] = { 1, -1, 0, 1, -1, 1, -1, 0,1, 1, 0, -1, 1, -1, 1, 0,1, 1, 0, -1, 1, -1, 1, 0,1, 1, 0, 1, -1, 1, -1, 0, 1, -1, 0, 1, -1, 1, -1, 0,1, 1, 0, -1, 1, -1, 1, 0};
     c30:	850a                	mv	a0,sp
     c32:	00000597          	auipc	a1,0x0
     c36:	47a58593          	addi	a1,a1,1146 # 10ac <__DTOR_END__>
int* ntru_encyrpt(int N, int q, int* message, int* public_key, int* polyR){
     c3a:	cf86                	sw	ra,220(sp)
     c3c:	c7ce                	sw	s3,204(sp)
     c3e:	c5d2                	sw	s4,200(sp)
     c40:	89b6                	mv	s3,a3
     c42:	8a3a                	mv	s4,a4
    int random_val[48] = { 1, -1, 0, 1, -1, 1, -1, 0,1, 1, 0, -1, 1, -1, 1, 0,1, 1, 0, -1, 1, -1, 1, 0,1, 1, 0, 1, -1, 1, -1, 0, 1, -1, 0, 1, -1, 1, -1, 0,1, 1, 0, -1, 1, -1, 1, 0};
     c44:	2a69                	jal	dde <memcpy>
    int *temp;
    int i;


    temp = polymult(public_key,N,random_val,48,q,0);
     c46:	4781                	li	a5,0
     c48:	874a                	mv	a4,s2
     c4a:	03000693          	li	a3,48
     c4e:	85a2                	mv	a1,s0
     c50:	860a                	mv	a2,sp
     c52:	854e                	mv	a0,s3
     c54:	e0aff0ef          	jal	ra,25e <polymult>
    /////// PUBLIC_KEY*RANDOM_VALUE ///////
//
//    for(i = 0; i < 48; ++i){
//        temp[i] = temp[i] + message[i];
//    }
array_add(temp,message,48);
     c58:	85a6                	mv	a1,s1
     c5a:	03000613          	li	a2,48
    temp = polymult(public_key,N,random_val,48,q,0);
     c5e:	89aa                	mv	s3,a0
    ////// PUBLIC_KEY*RANDOM_VALUE + MESSAGE ///////

    CT = polydiv(temp,(2*N),polyR,(N+1),q);
     c60:	00141493          	slli	s1,s0,0x1
array_add(temp,message,48);
     c64:	c2eff0ef          	jal	ra,92 <array_add>
    CT = polydiv(temp,(2*N),polyR,(N+1),q);
     c68:	00140693          	addi	a3,s0,1
     c6c:	874a                	mv	a4,s2
     c6e:	8652                	mv	a2,s4
     c70:	85a6                	mv	a1,s1
     c72:	854e                	mv	a0,s3
     c74:	30ed                	jal	55e <polydiv>

    for(i = (2*N); i < (3*N); ++i){
     c76:	478d                	li	a5,3
     c78:	02f40433          	mul	s0,s0,a5
     c7c:	87aa                	mv	a5,a0
     c7e:	0084ca63          	blt	s1,s0,c92 <ntru_encyrpt+0x74>
    ///// YUKARIDAKI IKI ISLEM MODULO OPERASYONU YAPIYOR /////


    return_address6 = &CT[0];
    return return_address6;
}
     c82:	40fe                	lw	ra,220(sp)
     c84:	446e                	lw	s0,216(sp)
     c86:	44de                	lw	s1,212(sp)
     c88:	494e                	lw	s2,208(sp)
     c8a:	49be                	lw	s3,204(sp)
     c8c:	4a2e                	lw	s4,200(sp)
     c8e:	612d                	addi	sp,sp,224
     c90:	8082                	ret
        CT[i-(2*N)] = CT[i];
     c92:	00249713          	slli	a4,s1,0x2
     c96:	972a                	add	a4,a4,a0
     c98:	4318                	lw	a4,0(a4)
    for(i = (2*N); i < (3*N); ++i){
     c9a:	0485                	addi	s1,s1,1
     c9c:	0791                	addi	a5,a5,4
        CT[i-(2*N)] = CT[i];
     c9e:	fee7ae23          	sw	a4,-4(a5)
    for(i = (2*N); i < (3*N); ++i){
     ca2:	bff1                	j	c7e <ntru_encyrpt+0x60>

00000ca4 <ntru_deceypt>:


int* ntru_deceypt(int N, int p, int q, int* secret_key_f, int* secret_key_fp, int* Enc_Message, int* polyR){
     ca4:	7179                	addi	sp,sp,-48
     ca6:	d422                	sw	s0,40(sp)
     ca8:	ce4e                	sw	s3,28(sp)
     caa:	842a                	mv	s0,a0


    a2 = polydiv(a,(2*N),polyR,(N+1),q);
/////////// Vector a2 (f.e modq) /////////

    for(i = (2*N); i < ((2*N)+N); ++i){
     cac:	498d                	li	s3,3
     cae:	033409b3          	mul	s3,s0,s3
int* ntru_deceypt(int N, int p, int q, int* secret_key_f, int* secret_key_fp, int* Enc_Message, int* polyR){
     cb2:	d04a                	sw	s2,32(sp)
     cb4:	ca56                	sw	s5,20(sp)
     cb6:	c65e                	sw	s7,12(sp)
     cb8:	8932                	mv	s2,a2
     cba:	8536                	mv	a0,a3
    a = polymult2(secret_key_f,N,Enc_Message,N,0);
     cbc:	863e                	mv	a2,a5
     cbe:	86a2                	mv	a3,s0
int* ntru_deceypt(int N, int p, int q, int* secret_key_f, int* secret_key_fp, int* Enc_Message, int* polyR){
     cc0:	8aae                	mv	s5,a1
     cc2:	8bba                	mv	s7,a4
    a = polymult2(secret_key_f,N,Enc_Message,N,0);
     cc4:	85a2                	mv	a1,s0
     cc6:	4701                	li	a4,0
int* ntru_deceypt(int N, int p, int q, int* secret_key_f, int* secret_key_fp, int* Enc_Message, int* polyR){
     cc8:	d606                	sw	ra,44(sp)
     cca:	d226                	sw	s1,36(sp)
     ccc:	cc52                	sw	s4,24(sp)
     cce:	c85a                	sw	s6,16(sp)
     cd0:	8a42                	mv	s4,a6
    a2 = polydiv(a,(2*N),polyR,(N+1),q);
     cd2:	00141493          	slli	s1,s0,0x1
    a = polymult2(secret_key_f,N,Enc_Message,N,0);
     cd6:	f2aff0ef          	jal	ra,400 <polymult2>
    a2 = polydiv(a,(2*N),polyR,(N+1),q);
     cda:	00140b13          	addi	s6,s0,1
     cde:	874a                	mv	a4,s2
     ce0:	86da                	mv	a3,s6
     ce2:	8652                	mv	a2,s4
     ce4:	85a6                	mv	a1,s1
     ce6:	38a5                	jal	55e <polydiv>
     ce8:	862a                	mv	a2,a0
    for(i = (2*N); i < ((2*N)+N); ++i){
     cea:	87aa                	mv	a5,a0
     cec:	872a                	mv	a4,a0
     cee:	86a6                	mv	a3,s1
     cf0:	0536c163          	blt	a3,s3,d32 <ntru_deceypt+0x8e>
        a2[i-(2*N)] = a2[i];
    }

    //centerlifting a2
    for (i = 0; i < N; ++i){
        if(a2[i] <= q/2)
     cf4:	4589                	li	a1,2
     cf6:	02b945b3          	div	a1,s2,a1
    for (i = 0; i < N; ++i){
     cfa:	4701                	li	a4,0
     cfc:	04874463          	blt	a4,s0,d44 <ntru_deceypt+0xa0>
        else
            a2[i] = (-1)*(q-a2[i]);
    }


    c = polymult2(secret_key_fp,N,a2,N,0);
     d00:	4701                	li	a4,0
     d02:	86a2                	mv	a3,s0
     d04:	85a2                	mv	a1,s0
     d06:	855e                	mv	a0,s7
     d08:	ef8ff0ef          	jal	ra,400 <polymult2>
/////////"Vector c(fp*a2)//////////


    c2 = polydiv(c,(2*N),polyR,(N+1),p);
     d0c:	8756                	mv	a4,s5
     d0e:	86da                	mv	a3,s6
     d10:	8652                	mv	a2,s4
     d12:	85a6                	mv	a1,s1
     d14:	30a9                	jal	55e <polydiv>
    for(i = (2*N); i < ((2*N)+N); ++i){
     d16:	87aa                	mv	a5,a0
     d18:	0334cf63          	blt	s1,s3,d56 <ntru_deceypt+0xb2>
    }
    ////////"Vector c2 (decrypted message)/////////

    return_address7 = &c2[0];
    return return_address7;
}
     d1c:	50b2                	lw	ra,44(sp)
     d1e:	5422                	lw	s0,40(sp)
     d20:	5492                	lw	s1,36(sp)
     d22:	5902                	lw	s2,32(sp)
     d24:	49f2                	lw	s3,28(sp)
     d26:	4a62                	lw	s4,24(sp)
     d28:	4ad2                	lw	s5,20(sp)
     d2a:	4b42                	lw	s6,16(sp)
     d2c:	4bb2                	lw	s7,12(sp)
     d2e:	6145                	addi	sp,sp,48
     d30:	8082                	ret
        a2[i-(2*N)] = a2[i];
     d32:	00269593          	slli	a1,a3,0x2
     d36:	95b2                	add	a1,a1,a2
     d38:	418c                	lw	a1,0(a1)
    for(i = (2*N); i < ((2*N)+N); ++i){
     d3a:	0685                	addi	a3,a3,1
     d3c:	0711                	addi	a4,a4,4
        a2[i-(2*N)] = a2[i];
     d3e:	feb72e23          	sw	a1,-4(a4)
    for(i = (2*N); i < ((2*N)+N); ++i){
     d42:	b77d                	j	cf0 <ntru_deceypt+0x4c>
        if(a2[i] <= q/2)
     d44:	4394                	lw	a3,0(a5)
     d46:	00d5d563          	bge	a1,a3,d50 <ntru_deceypt+0xac>
            a2[i] = (-1)*(q-a2[i]);
     d4a:	412686b3          	sub	a3,a3,s2
     d4e:	c394                	sw	a3,0(a5)
    for (i = 0; i < N; ++i){
     d50:	0705                	addi	a4,a4,1
     d52:	0791                	addi	a5,a5,4
     d54:	b765                	j	cfc <ntru_deceypt+0x58>
        c2[i-(2*N)] = c2[i];
     d56:	00249713          	slli	a4,s1,0x2
     d5a:	972a                	add	a4,a4,a0
     d5c:	4318                	lw	a4,0(a4)
    for(i = (2*N); i < ((2*N)+N); ++i){
     d5e:	0485                	addi	s1,s1,1
     d60:	0791                	addi	a5,a5,4
        c2[i-(2*N)] = c2[i];
     d62:	fee7ae23          	sw	a4,-4(a5)
    for(i = (2*N); i < ((2*N)+N); ++i){
     d66:	bf4d                	j	d18 <ntru_deceypt+0x74>

00000d68 <default_exc_handler>:
     d68:	0000006f          	j	d68 <default_exc_handler>

00000d6c <reset_handler>:
     d6c:	00000093          	li	ra,0
     d70:	8106                	mv	sp,ra
     d72:	8186                	mv	gp,ra
     d74:	8206                	mv	tp,ra
     d76:	8286                	mv	t0,ra
     d78:	8306                	mv	t1,ra
     d7a:	8386                	mv	t2,ra
     d7c:	8406                	mv	s0,ra
     d7e:	8486                	mv	s1,ra
     d80:	8506                	mv	a0,ra
     d82:	8586                	mv	a1,ra
     d84:	8606                	mv	a2,ra
     d86:	8686                	mv	a3,ra
     d88:	8706                	mv	a4,ra
     d8a:	8786                	mv	a5,ra
     d8c:	8806                	mv	a6,ra
     d8e:	8886                	mv	a7,ra
     d90:	8906                	mv	s2,ra
     d92:	8986                	mv	s3,ra
     d94:	8a06                	mv	s4,ra
     d96:	8a86                	mv	s5,ra
     d98:	8b06                	mv	s6,ra
     d9a:	8b86                	mv	s7,ra
     d9c:	8c06                	mv	s8,ra
     d9e:	8c86                	mv	s9,ra
     da0:	8d06                	mv	s10,ra
     da2:	8d86                	mv	s11,ra
     da4:	8e06                	mv	t3,ra
     da6:	8e86                	mv	t4,ra
     da8:	8f06                	mv	t5,ra
     daa:	8f86                	mv	t6,ra
     dac:	0000f117          	auipc	sp,0xf
     db0:	25410113          	addi	sp,sp,596 # 10000 <_stack_start>

00000db4 <_start>:
     db4:	00000d17          	auipc	s10,0x0
     db8:	47cd0d13          	addi	s10,s10,1148 # 1230 <_bss_start>
     dbc:	00001d97          	auipc	s11,0x1
     dc0:	204d8d93          	addi	s11,s11,516 # 1fc0 <_bss_end>
     dc4:	01bd5763          	bge	s10,s11,dd2 <main_entry>

00000dc8 <zero_loop>:
     dc8:	000d2023          	sw	zero,0(s10)
     dcc:	0d11                	addi	s10,s10,4
     dce:	ffaddde3          	bge	s11,s10,dc8 <zero_loop>

00000dd2 <main_entry>:
     dd2:	00000513          	li	a0,0
     dd6:	00000593          	li	a1,0
     dda:	18a000ef          	jal	ra,f64 <main>

00000dde <memcpy>:
     dde:	00a5c7b3          	xor	a5,a1,a0
     de2:	8b8d                	andi	a5,a5,3
     de4:	00c508b3          	add	a7,a0,a2
     de8:	e7a1                	bnez	a5,e30 <memcpy+0x52>
     dea:	478d                	li	a5,3
     dec:	04c7f263          	bgeu	a5,a2,e30 <memcpy+0x52>
     df0:	00357793          	andi	a5,a0,3
     df4:	872a                	mv	a4,a0
     df6:	eba9                	bnez	a5,e48 <memcpy+0x6a>
     df8:	ffc8f613          	andi	a2,a7,-4
     dfc:	fe060793          	addi	a5,a2,-32
     e00:	06f76763          	bltu	a4,a5,e6e <memcpy+0x90>
     e04:	02c77363          	bgeu	a4,a2,e2a <memcpy+0x4c>
     e08:	86ae                	mv	a3,a1
     e0a:	87ba                	mv	a5,a4
     e0c:	0006a803          	lw	a6,0(a3)
     e10:	0791                	addi	a5,a5,4
     e12:	0691                	addi	a3,a3,4
     e14:	ff07ae23          	sw	a6,-4(a5)
     e18:	fec7eae3          	bltu	a5,a2,e0c <memcpy+0x2e>
     e1c:	fff60793          	addi	a5,a2,-1
     e20:	8f99                	sub	a5,a5,a4
     e22:	9bf1                	andi	a5,a5,-4
     e24:	0791                	addi	a5,a5,4
     e26:	973e                	add	a4,a4,a5
     e28:	95be                	add	a1,a1,a5
     e2a:	01176663          	bltu	a4,a7,e36 <memcpy+0x58>
     e2e:	8082                	ret
     e30:	872a                	mv	a4,a0
     e32:	ff157ee3          	bgeu	a0,a7,e2e <memcpy+0x50>
     e36:	0005c783          	lbu	a5,0(a1)
     e3a:	0705                	addi	a4,a4,1
     e3c:	0585                	addi	a1,a1,1
     e3e:	fef70fa3          	sb	a5,-1(a4)
     e42:	ff176ae3          	bltu	a4,a7,e36 <memcpy+0x58>
     e46:	8082                	ret
     e48:	0005c683          	lbu	a3,0(a1)
     e4c:	0705                	addi	a4,a4,1
     e4e:	00377793          	andi	a5,a4,3
     e52:	fed70fa3          	sb	a3,-1(a4)
     e56:	0585                	addi	a1,a1,1
     e58:	d3c5                	beqz	a5,df8 <memcpy+0x1a>
     e5a:	0005c683          	lbu	a3,0(a1)
     e5e:	0705                	addi	a4,a4,1
     e60:	00377793          	andi	a5,a4,3
     e64:	fed70fa3          	sb	a3,-1(a4)
     e68:	0585                	addi	a1,a1,1
     e6a:	fff9                	bnez	a5,e48 <memcpy+0x6a>
     e6c:	b771                	j	df8 <memcpy+0x1a>
     e6e:	41d4                	lw	a3,4(a1)
     e70:	0005a283          	lw	t0,0(a1)
     e74:	0085af83          	lw	t6,8(a1)
     e78:	00c5af03          	lw	t5,12(a1)
     e7c:	0105ae83          	lw	t4,16(a1)
     e80:	0145ae03          	lw	t3,20(a1)
     e84:	0185a303          	lw	t1,24(a1)
     e88:	01c5a803          	lw	a6,28(a1)
     e8c:	c354                	sw	a3,4(a4)
     e8e:	5194                	lw	a3,32(a1)
     e90:	00572023          	sw	t0,0(a4)
     e94:	01f72423          	sw	t6,8(a4)
     e98:	01e72623          	sw	t5,12(a4)
     e9c:	01d72823          	sw	t4,16(a4)
     ea0:	01c72a23          	sw	t3,20(a4)
     ea4:	00672c23          	sw	t1,24(a4)
     ea8:	01072e23          	sw	a6,28(a4)
     eac:	d314                	sw	a3,32(a4)
     eae:	02470713          	addi	a4,a4,36
     eb2:	02458593          	addi	a1,a1,36
     eb6:	faf76ce3          	bltu	a4,a5,e6e <memcpy+0x90>
     eba:	b7a9                	j	e04 <memcpy+0x26>

00000ebc <memset>:
     ebc:	433d                	li	t1,15
     ebe:	872a                	mv	a4,a0
     ec0:	02c37363          	bgeu	t1,a2,ee6 <memset+0x2a>
     ec4:	00f77793          	andi	a5,a4,15
     ec8:	efbd                	bnez	a5,f46 <memset+0x8a>
     eca:	e5ad                	bnez	a1,f34 <memset+0x78>
     ecc:	ff067693          	andi	a3,a2,-16
     ed0:	8a3d                	andi	a2,a2,15
     ed2:	96ba                	add	a3,a3,a4
     ed4:	c30c                	sw	a1,0(a4)
     ed6:	c34c                	sw	a1,4(a4)
     ed8:	c70c                	sw	a1,8(a4)
     eda:	c74c                	sw	a1,12(a4)
     edc:	0741                	addi	a4,a4,16
     ede:	fed76be3          	bltu	a4,a3,ed4 <memset+0x18>
     ee2:	e211                	bnez	a2,ee6 <memset+0x2a>
     ee4:	8082                	ret
     ee6:	40c306b3          	sub	a3,t1,a2
     eea:	068a                	slli	a3,a3,0x2
     eec:	00000297          	auipc	t0,0x0
     ef0:	9696                	add	a3,a3,t0
     ef2:	00a68067          	jr	10(a3)
     ef6:	00b70723          	sb	a1,14(a4)
     efa:	00b706a3          	sb	a1,13(a4)
     efe:	00b70623          	sb	a1,12(a4)
     f02:	00b705a3          	sb	a1,11(a4)
     f06:	00b70523          	sb	a1,10(a4)
     f0a:	00b704a3          	sb	a1,9(a4)
     f0e:	00b70423          	sb	a1,8(a4)
     f12:	00b703a3          	sb	a1,7(a4)
     f16:	00b70323          	sb	a1,6(a4)
     f1a:	00b702a3          	sb	a1,5(a4)
     f1e:	00b70223          	sb	a1,4(a4)
     f22:	00b701a3          	sb	a1,3(a4)
     f26:	00b70123          	sb	a1,2(a4)
     f2a:	00b700a3          	sb	a1,1(a4)
     f2e:	00b70023          	sb	a1,0(a4)
     f32:	8082                	ret
     f34:	0ff5f593          	andi	a1,a1,255
     f38:	00859693          	slli	a3,a1,0x8
     f3c:	8dd5                	or	a1,a1,a3
     f3e:	01059693          	slli	a3,a1,0x10
     f42:	8dd5                	or	a1,a1,a3
     f44:	b761                	j	ecc <memset+0x10>
     f46:	00279693          	slli	a3,a5,0x2
     f4a:	00000297          	auipc	t0,0x0
     f4e:	9696                	add	a3,a3,t0
     f50:	8286                	mv	t0,ra
     f52:	fa8680e7          	jalr	-88(a3)
     f56:	8096                	mv	ra,t0
     f58:	17c1                	addi	a5,a5,-16
     f5a:	8f1d                	sub	a4,a4,a5
     f5c:	963e                	add	a2,a2,a5
     f5e:	f8c374e3          	bgeu	t1,a2,ee6 <memset+0x2a>
     f62:	b7a5                	j	eca <memset+0xe>

00000f64 <main>:


int main(){
     f64:	bd010113          	addi	sp,sp,-1072
    int* keys;
    int N = 53;
    int p = 3;
    int q = 101;

    int message[48] = {1, 1, 2, 1, 1, 1, 1, 2,1, 1, 0, 1, 1, 2, 1, 0,1, 2, 0, 1, 1, 1, 1, 0,1, 1, 0, 2, 1, 2, 1, 0, 1, 1, 2, 1, 1, 1, 1, 2, 1, 1, 2, 1, 1, 1, 1, 2};
     f68:	0c000613          	li	a2,192
     f6c:	00000597          	auipc	a1,0x0
     f70:	20058593          	addi	a1,a1,512 # 116c <__DTOR_END__+0xc0>
     f74:	0068                	addi	a0,sp,12
int main(){
     f76:	42112623          	sw	ra,1068(sp)
     f7a:	42812423          	sw	s0,1064(sp)
     f7e:	42912223          	sw	s1,1060(sp)
     f82:	43212023          	sw	s2,1056(sp)

    // Alice generates public key from her randomly created secret keys.
  //  printf("\nKEY GENERATION STARTED \n");

 //   start = clock();
    resultkon[0] = 0xaaaaaaa0;
     f86:	aaaab4b7          	lui	s1,0xaaaab
    int message[48] = {1, 1, 2, 1, 1, 1, 1, 2,1, 1, 0, 1, 1, 2, 1, 0,1, 2, 0, 1, 1, 1, 1, 0,1, 1, 0, 2, 1, 2, 1, 0, 1, 1, 2, 1, 1, 1, 1, 2, 1, 1, 2, 1, 1, 1, 1, 2};
     f8a:	3d91                	jal	dde <memcpy>
    resultkon[0] = 0xaaaaaaa0;
     f8c:	aa048793          	addi	a5,s1,-1376 # aaaaaaa0 <_stack_start+0xaaa9aaa0>
     f90:	00000417          	auipc	s0,0x0
     f94:	29c40413          	addi	s0,s0,668 # 122c <_edata>
    keys = generate_keys(N, p, q);
     f98:	06500613          	li	a2,101
     f9c:	458d                	li	a1,3
     f9e:	03500513          	li	a0,53
    resultkon[0] = 0xaaaaaaa0;
     fa2:	c01c                	sw	a5,0(s0)
    resultkon[0] = 0xaaaaaaa1;
     fa4:	aa148493          	addi	s1,s1,-1375
    keys = generate_keys(N, p, q);
     fa8:	3251                	jal	92c <generate_keys>
    resultkon[0] = 0xaaaaaaa1;
     faa:	4781                	li	a5,0
     fac:	c004                	sw	s1,0(s0)
   // printf("Secret Key f = ");
    for(i = 0; i < N; ++i){
     fae:	0d400713          	li	a4,212
  //      printf(" %d ", keys[i]);
        secret_key_f[i] = keys[i];
     fb2:	00f506b3          	add	a3,a0,a5
     fb6:	4290                	lw	a2,0(a3)
     fb8:	1314                	addi	a3,sp,416
     fba:	96be                	add	a3,a3,a5
     fbc:	c290                	sw	a2,0(a3)
    for(i = 0; i < N; ++i){
     fbe:	0791                	addi	a5,a5,4
     fc0:	fee799e3          	bne	a5,a4,fb2 <main+0x4e>
    }
  //  printf("\n");

 //   printf("Secret Key g = ");
    for(i = N; i < (2*N); ++i){
     fc4:	1cd8                	addi	a4,sp,628
     fc6:	1a850793          	addi	a5,a0,424
     fca:	27c50693          	addi	a3,a0,636
     fce:	893a                	mv	s2,a4
  //  printf("\n");

  //  printf("Secret Key fp = ");
    for(i = (2*N); i < (3*N); ++i){
  //      printf(" %d ", keys[i]);
        secret_key_fp[i-(2*N)] = keys[i];
     fd0:	4390                	lw	a2,0(a5)
     fd2:	0791                	addi	a5,a5,4
     fd4:	0711                	addi	a4,a4,4
     fd6:	fec72e23          	sw	a2,-4(a4)
    for(i = (2*N); i < (3*N); ++i){
     fda:	fed79be3          	bne	a5,a3,fd0 <main+0x6c>
    }
  //  printf("\n");

 //   printf("Secret Key fq = ");
    for(i = (3*N); i < (4*N); ++i){
     fde:	01f8                	addi	a4,sp,204
     fe0:	35050793          	addi	a5,a0,848
     fe4:	42450613          	addi	a2,a0,1060
     fe8:	86ba                	mv	a3,a4
 //   printf("\n");

//    printf("Public Key h = ");
    for(i = (4*N); i < (5*N); ++i){
//        printf(" %d ", keys[i]);
        public_key[i-(4*N)] = keys[i];
     fea:	438c                	lw	a1,0(a5)
     fec:	0791                	addi	a5,a5,4
     fee:	0711                	addi	a4,a4,4
     ff0:	feb72e23          	sw	a1,-4(a4)
    for(i = (4*N); i < (5*N); ++i){
     ff4:	fec79be3          	bne	a5,a2,fea <main+0x86>
     ff8:	06b0                	addi	a2,sp,840
     ffa:	4fc50513          	addi	a0,a0,1276
     ffe:	8832                	mv	a6,a2
 //   printf("\n");

 //   printf("Ring Poly = ");
    for(i = (5*N); i < (6*N+1); ++i){
  //      printf(" %d ", keys[i]);
        ring_poly[i-(5*N)] = keys[i];
    1000:	4398                	lw	a4,0(a5)
    1002:	0791                	addi	a5,a5,4
    1004:	0611                	addi	a2,a2,4
    1006:	fee62e23          	sw	a4,-4(a2)
    for(i = (5*N); i < (6*N+1); ++i){
    100a:	fea79be3          	bne	a5,a0,1000 <main+0x9c>
    }
 //   printf("\nKEY GENERATION FINISHED \n");

    // Bob encrypts message using Alice's public key and sends it to Alice.
  //  printf("\nENCRYPTION STARTED\n");
    resultkon[0] = 0xbbbbbbb0;
    100e:	bbbbc4b7          	lui	s1,0xbbbbc
    1012:	bb048793          	addi	a5,s1,-1104 # bbbbbbb0 <_stack_start+0xbbbabbb0>
    Enc_Message = ntru_encyrpt(N, q, message, public_key, ring_poly);
    1016:	8742                	mv	a4,a6
    1018:	0070                	addi	a2,sp,12
    101a:	06500593          	li	a1,101
    resultkon[0] = 0xbbbbbbb1;
    101e:	bb148493          	addi	s1,s1,-1103
    Enc_Message = ntru_encyrpt(N, q, message, public_key, ring_poly);
    1022:	03500513          	li	a0,53
    resultkon[0] = 0xbbbbbbb0;
    1026:	c01c                	sw	a5,0(s0)
    Enc_Message = ntru_encyrpt(N, q, message, public_key, ring_poly);
    1028:	3edd                	jal	c1e <ntru_encyrpt>
    resultkon[0] = 0xbbbbbbb1;
    102a:	c004                	sw	s1,0(s0)
 //   }
//    printf("\nENCRYPTION FINISHED\n");

    // Alice decrypts the message using her secret keys.
 //   printf("\nDECRYPTION STARTED\n");
    resultkon[0] = 0xccccccc0;
    102c:	ccccd4b7          	lui	s1,0xccccd
    1030:	cc048713          	addi	a4,s1,-832 # ccccccc0 <_stack_start+0xcccbccc0>
    Enc_Message = ntru_encyrpt(N, q, message, public_key, ring_poly);
    1034:	87aa                	mv	a5,a0
    resultkon[0] = 0xccccccc0;
    1036:	c018                	sw	a4,0(s0)
    Dec_Message = ntru_deceypt(N, p, q, secret_key_f, secret_key_fp, Enc_Message, ring_poly);
    1038:	458d                	li	a1,3
    103a:	874a                	mv	a4,s2
    103c:	34810813          	addi	a6,sp,840
    1040:	1314                	addi	a3,sp,416
    1042:	06500613          	li	a2,101
    1046:	03500513          	li	a0,53
    104a:	39a9                	jal	ca4 <ntru_deceypt>
    resultkon[0] = 0xccccccc1;	
    104c:	cc148493          	addi	s1,s1,-831
            resultkon[0] = 0xBABABABA;
 	   
            break;	}
        else{
  //          printf("*OPERATION SUCCCESSFUL*\n");
            resultkon[0] = 0xDEDEDEDE;
    1050:	dedee737          	lui	a4,0xdedee
    resultkon[0] = 0xccccccc1;	
    1054:	c004                	sw	s1,0(s0)
    1056:	4781                	li	a5,0
            resultkon[0] = 0xDEDEDEDE;
    1058:	ede70713          	addi	a4,a4,-290 # dededede <_stack_start+0xdedddede>
    for(i = 0; i < 32; ++i){
    105c:	08000593          	li	a1,128
        if(!(message[i] == Dec_Message[i])){
    1060:	0070                	addi	a2,sp,12
    1062:	00f506b3          	add	a3,a0,a5
    1066:	963e                	add	a2,a2,a5
    1068:	4210                	lw	a2,0(a2)
    106a:	4294                	lw	a3,0(a3)
    106c:	02d60363          	beq	a2,a3,1092 <main+0x12e>
            resultkon[0] = 0xBABABABA;
    1070:	babac7b7          	lui	a5,0xbabac
    1074:	aba78793          	addi	a5,a5,-1350 # babababa <_stack_start+0xbab9baba>
    1078:	c01c                	sw	a5,0(s0)
		}
    }
			

    return 0;
}
    107a:	42c12083          	lw	ra,1068(sp)
    107e:	42812403          	lw	s0,1064(sp)
    1082:	42412483          	lw	s1,1060(sp)
    1086:	42012903          	lw	s2,1056(sp)
    108a:	4501                	li	a0,0
    108c:	43010113          	addi	sp,sp,1072
    1090:	8082                	ret
            resultkon[0] = 0xDEDEDEDE;
    1092:	c018                	sw	a4,0(s0)
    for(i = 0; i < 32; ++i){
    1094:	0791                	addi	a5,a5,4
    1096:	fcb795e3          	bne	a5,a1,1060 <main+0xfc>
    109a:	b7c5                	j	107a <main+0x116>

0000109c <__CTOR_LIST__>:
	...

000010a4 <__CTOR_END__>:
	...
