
NTRU_48_bitM.elf:     file format elf32-littleriscv


Disassembly of section .vectors:

00000000 <_stack_start-0x10000>:
  // external interrupts are handled by the same callback
  // until compiler supports IRQ routines
  .org 0x00
  .rept 31
  nop
  .endr
   0:	00000013          	nop
   4:	00000013          	nop
   8:	00000013          	nop
   c:	00000013          	nop
  10:	00000013          	nop
  14:	00000013          	nop
  18:	00000013          	nop
  1c:	00000013          	nop
  20:	00000013          	nop
  24:	00000013          	nop
  28:	00000013          	nop
  2c:	00000013          	nop
  30:	00000013          	nop
  34:	00000013          	nop
  38:	00000013          	nop
  3c:	00000013          	nop
  40:	00000013          	nop
  44:	00000013          	nop
  48:	00000013          	nop
  4c:	00000013          	nop
  50:	00000013          	nop
  54:	00000013          	nop
  58:	00000013          	nop
  5c:	00000013          	nop
  60:	00000013          	nop
  64:	00000013          	nop
  68:	00000013          	nop
  6c:	00000013          	nop
  70:	00000013          	nop
  74:	00000013          	nop
  78:	00000013          	nop
  jal x0, default_exc_handler
  7c:	54d0006f          	j	dc8 <default_exc_handler>

  // reset vector
  .org 0x80
  jal x0, reset_handler
  80:	54d0006f          	j	dcc <reset_handler>

  // illegal instruction exception
  .org 0x84
  jal x0, default_exc_handler
  84:	5450006f          	j	dc8 <default_exc_handler>

  // ecall handler
  .org 0x88
  jal x0, default_exc_handler
  88:	5410006f          	j	dc8 <default_exc_handler>

Disassembly of section .text:

0000008c <instr_add>:

//static unsigned int *a0;

//not: bu instructionda işleme girecek arraylerin boyutlarının eşit ve önceden bilindiği varsayılmaktadır...

    asm volatile(
      8c:	06b5750b          	0x6b5750b

    );
    return;


}
      90:	8082                	ret

00000092 <array_add>:
void array_add(int *a1, int *a2, int length) {
int i =0;
    switch(length%3) {
      92:	470d                	li	a4,3
      94:	02e667b3          	rem	a5,a2,a4
      98:	4685                	li	a3,1
      9a:	02d78f63          	beq	a5,a3,d8 <array_add+0x46>
      9e:	4689                	li	a3,2
      a0:	00d78963          	beq	a5,a3,b2 <array_add+0x20>
      a4:	ebb1                	bnez	a5,f8 <array_add+0x66>

        case 0:
            for (i = 0; i < (length / 3); i++) {
      a6:	02e64633          	div	a2,a2,a4
      aa:	4831                	li	a6,12
      ac:	04c7c763          	blt	a5,a2,fa <array_add+0x68>
      b0:	8082                	ret
                instr_add((unsigned int*)&a1[3 * i], (unsigned int*)&a2[3*i]);
            }
            a1[length-1] = a1[length-1] + a2[length-1];
	    break;      
	case 2:
            for (i = 0; i < ((length-2) / 3); i++) {
      b2:	ffe60693          	addi	a3,a2,-2
      b6:	02e6c6b3          	div	a3,a3,a4
      ba:	4781                	li	a5,0
      bc:	48b1                	li	a7,12
      be:	06d7c063          	blt	a5,a3,11e <array_add+0x8c>
                instr_add((unsigned int*)&a1[3 * i], (unsigned int*)&a2[3*i]);
            }
            a1[length-1] = a1[length-1] + a2[length-1];
      c2:	060a                	slli	a2,a2,0x2
      c4:	1671                	addi	a2,a2,-4
      c6:	00c50733          	add	a4,a0,a2
      ca:	00c586b3          	add	a3,a1,a2
      ce:	431c                	lw	a5,0(a4)
      d0:	4294                	lw	a3,0(a3)
      d2:	97b6                	add	a5,a5,a3
      d4:	c31c                	sw	a5,0(a4)
      d6:	a811                	j	ea <array_add+0x58>
            for (i = 0; i < ((length-1) / 3); i++) {
      d8:	fff60693          	addi	a3,a2,-1
      dc:	02e6c6b3          	div	a3,a3,a4
      e0:	4781                	li	a5,0
      e2:	48b1                	li	a7,12
      e4:	02d7c463          	blt	a5,a3,10c <array_add+0x7a>
            a1[length-1] = a1[length-1] + a2[length-1];
      e8:	060a                	slli	a2,a2,0x2
            a1[length-2] = a1[length-2] + a2[length-2];
      ea:	1671                	addi	a2,a2,-4
      ec:	9532                	add	a0,a0,a2
      ee:	962e                	add	a2,a2,a1
      f0:	411c                	lw	a5,0(a0)
      f2:	4218                	lw	a4,0(a2)
      f4:	97ba                	add	a5,a5,a4
      f6:	c11c                	sw	a5,0(a0)
	    break;
    } //end of switch case
} //end of function
      f8:	8082                	ret
                instr_add((unsigned int*)&a1[3 * i], (unsigned int*)&a2[3*i]);
      fa:	03078733          	mul	a4,a5,a6
    asm volatile(
      fe:	00e506b3          	add	a3,a0,a4
     102:	972e                	add	a4,a4,a1
     104:	06e6f70b          	0x6e6f70b
            for (i = 0; i < (length / 3); i++) {
     108:	0785                	addi	a5,a5,1
     10a:	b74d                	j	ac <array_add+0x1a>
                instr_add((unsigned int*)&a1[3 * i], (unsigned int*)&a2[3*i]);
     10c:	03178733          	mul	a4,a5,a7
    asm volatile(
     110:	00e50833          	add	a6,a0,a4
     114:	972e                	add	a4,a4,a1
     116:	06e8770b          	0x6e8770b
            for (i = 0; i < ((length-1) / 3); i++) {
     11a:	0785                	addi	a5,a5,1
     11c:	b7e1                	j	e4 <array_add+0x52>
                instr_add((unsigned int*)&a1[3 * i], (unsigned int*)&a2[3*i]);
     11e:	03178733          	mul	a4,a5,a7
    asm volatile(
     122:	00e50833          	add	a6,a0,a4
     126:	972e                	add	a4,a4,a1
     128:	06e8770b          	0x6e8770b
            for (i = 0; i < ((length-2) / 3); i++) {
     12c:	0785                	addi	a5,a5,1
     12e:	bf41                	j	be <array_add+0x2c>

00000130 <instr_mod>:



void instr_mod(unsigned int *a1, unsigned int mod) {

    asm volatile(
     130:	0cb5750b          	0xcb5750b
    : "=r"(&a1[0])				 // designation register => a0 variable'ına atılacak
    : "r"(&a1[0]), "r"(mod)			// a1 ve a2 variable'ları compiler tarafından uygun register'lara atılacak

    );
    return;
}
     134:	8082                	ret

00000136 <array_mod>:
    ////// bu kod arrayin uzunlugunu ücüncü instruction operand olarak gonderemedigimiz icin var. //////////
    ////// üc sayisi custom modülün dondürdügü eleman sayisindan geliyor. bizim ebob'umuz 3 oldugu icin 3 secildi./////
    ///// ebob(54(N+1),105(N+N-1)) = 3
int i = 0;

    switch(length%3) {
     136:	470d                	li	a4,3
     138:	02e667b3          	rem	a5,a2,a4
     13c:	4685                	li	a3,1
     13e:	02d78d63          	beq	a5,a3,178 <array_mod+0x42>
     142:	4689                	li	a3,2
     144:	00d78963          	beq	a5,a3,156 <array_mod+0x20>
     148:	e7b9                	bnez	a5,196 <array_mod+0x60>

        case 0:
            for (i = 0; i < (length / 3); i++) {
     14a:	02e64633          	div	a2,a2,a4
    asm volatile(
     14e:	46b1                	li	a3,12
            for (i = 0; i < (length / 3); i++) {
     150:	04c7c463          	blt	a5,a2,198 <array_mod+0x62>
     154:	8082                	ret
                instr_mod((unsigned int *) &a1[3 * i], (unsigned int) mod);
            }
            a1[length-1] = a1[length-1] % mod;
	    break;
        case 2:
            for (i = 0; i < ((length-2) / 3); i++) {
     156:	ffe60693          	addi	a3,a2,-2
     15a:	02e6c6b3          	div	a3,a3,a4
     15e:	4781                	li	a5,0
    asm volatile(
     160:	4831                	li	a6,12
            for (i = 0; i < ((length-2) / 3); i++) {
     162:	04d7c963          	blt	a5,a3,1b4 <array_mod+0x7e>
                instr_mod((unsigned int *) &a1[3 * i], (unsigned int) mod);
            }
            a1[length-1] = a1[length-1] % mod;
     166:	060a                	slli	a2,a2,0x2
     168:	1671                	addi	a2,a2,-4
     16a:	00c50733          	add	a4,a0,a2
     16e:	431c                	lw	a5,0(a4)
     170:	02b7e7b3          	rem	a5,a5,a1
     174:	c31c                	sw	a5,0(a4)
     176:	a811                	j	18a <array_mod+0x54>
            for (i = 0; i < ((length-1) / 3); i++) {
     178:	fff60693          	addi	a3,a2,-1
     17c:	02e6c6b3          	div	a3,a3,a4
     180:	4781                	li	a5,0
    asm volatile(
     182:	4831                	li	a6,12
            for (i = 0; i < ((length-1) / 3); i++) {
     184:	02d7c163          	blt	a5,a3,1a6 <array_mod+0x70>
            a1[length-1] = a1[length-1] % mod;
     188:	060a                	slli	a2,a2,0x2
            a1[length-2] = a1[length-2] % mod;
     18a:	1671                	addi	a2,a2,-4
     18c:	962a                	add	a2,a2,a0
     18e:	421c                	lw	a5,0(a2)
     190:	02b7e5b3          	rem	a1,a5,a1
     194:	c20c                	sw	a1,0(a2)
	    break;
    } //end of switch case
} //end of function
     196:	8082                	ret
    asm volatile(
     198:	02d78733          	mul	a4,a5,a3
     19c:	972a                	add	a4,a4,a0
     19e:	0cb7770b          	0xcb7770b
            for (i = 0; i < (length / 3); i++) {
     1a2:	0785                	addi	a5,a5,1
     1a4:	b775                	j	150 <array_mod+0x1a>
    asm volatile(
     1a6:	03078733          	mul	a4,a5,a6
     1aa:	972a                	add	a4,a4,a0
     1ac:	0cb7770b          	0xcb7770b
            for (i = 0; i < ((length-1) / 3); i++) {
     1b0:	0785                	addi	a5,a5,1
     1b2:	bfc9                	j	184 <array_mod+0x4e>
    asm volatile(
     1b4:	03078733          	mul	a4,a5,a6
     1b8:	972a                	add	a4,a4,a0
     1ba:	0cb7770b          	0xcb7770b
            for (i = 0; i < ((length-2) / 3); i++) {
     1be:	0785                	addi	a5,a5,1
     1c0:	b74d                	j	162 <array_mod+0x2c>

000001c2 <polymult>:

/////////////////////////////////////////////////



int *polymult(int *a, int size_a, int *b, int size_b, int mod, int star_mult){
     1c2:	715d                	addi	sp,sp,-80
     1c4:	c4a2                	sw	s0,72(sp)
     1c6:	c2a6                	sw	s1,68(sp)
     1c8:	c0ca                	sw	s2,64(sp)
     1ca:	de4e                	sw	s3,60(sp)
     1cc:	dc52                	sw	s4,56(sp)
     1ce:	da56                	sw	s5,52(sp)
     1d0:	d85a                	sw	s6,48(sp)
     1d2:	d65e                	sw	s7,44(sp)
     1d4:	d462                	sw	s8,40(sp)
     1d6:	d266                	sw	s9,36(sp)
     1d8:	d06a                	sw	s10,32(sp)
     1da:	ce6e                	sw	s11,28(sp)
     1dc:	0880                	addi	s0,sp,80
     1de:	c686                	sw	ra,76(sp)
     1e0:	00269993          	slli	s3,a3,0x2
     1e4:	faf42e23          	sw	a5,-68(s0)


    int line[size_b][size_a + size_b];
     1e8:	00d587b3          	add	a5,a1,a3
     1ec:	fff78b13          	addi	s6,a5,-1
     1f0:	00279a93          	slli	s5,a5,0x2
     1f4:	033787b3          	mul	a5,a5,s3
int *polymult(int *a, int size_a, int *b, int size_b, int mod, int star_mult){
     1f8:	8a3a                	mv	s4,a4
    int i,j,k;
    int *return_address1;
    int pola[size_a];
    int polb[size_b];
     1fa:	00f98713          	addi	a4,s3,15
     1fe:	9b41                	andi	a4,a4,-16
int *polymult(int *a, int size_a, int *b, int size_b, int mod, int star_mult){
     200:	8832                	mv	a6,a2
     202:	8936                	mv	s2,a3
    int line[size_b][size_a + size_b];
     204:	fff68d93          	addi	s11,a3,-1
    int pola[size_a];
     208:	fff58c13          	addi	s8,a1,-1

    //make all line vectors zero
    for (i = 0; i < size_b; ++i){
     20c:	4681                	li	a3,0
        for(j = 0; j < size_a + size_b -1; ++j){
            line[i][j] = 0;
            product[j] = 0;
     20e:	00001e17          	auipc	t3,0x1
     212:	042e0e13          	addi	t3,t3,66 # 1250 <_bss_start>
    int line[size_b][size_a + size_b];
     216:	07bd                	addi	a5,a5,15
     218:	9bc1                	andi	a5,a5,-16
     21a:	40f10133          	sub	sp,sp,a5
    int pola[size_a];
     21e:	00259793          	slli	a5,a1,0x2
     222:	07bd                	addi	a5,a5,15
     224:	9bc1                	andi	a5,a5,-16
    int line[size_b][size_a + size_b];
     226:	8c8a                	mv	s9,sp
    int pola[size_a];
     228:	40f10133          	sub	sp,sp,a5
     22c:	8d0a                	mv	s10,sp
    int polb[size_b];
     22e:	40e10133          	sub	sp,sp,a4
     232:	848a                	mv	s1,sp
    for (i = 0; i < size_b; ++i){
     234:	8be6                	mv	s7,s9
     236:	8666                	mv	a2,s9
     238:	0726c063          	blt	a3,s2,298 <polymult+0xd6>
        }
    }

    // make mod calculations
    for (i = 0; i < size_a; ++i){
     23c:	4701                	li	a4,0
     23e:	06b74063          	blt	a4,a1,29e <polymult+0xdc>
        pola[i] = a[i];
    }

    array_mod(pola,mod,size_a);
     242:	862e                	mv	a2,a1
     244:	856a                	mv	a0,s10
     246:	85d2                	mv	a1,s4
     248:	fb042c23          	sw	a6,-72(s0)
     24c:	35ed                	jal	136 <array_mod>

    for (i = 0; i < size_b; ++i){
     24e:	fb842803          	lw	a6,-72(s0)
     252:	4701                	li	a4,0
     254:	05274e63          	blt	a4,s2,2b0 <polymult+0xee>
        polb[i] = b[i];
    }

    array_mod(polb,mod,size_b);
     258:	8526                	mv	a0,s1
     25a:	864a                	mv	a2,s2
     25c:	85d2                	mv	a1,s4
     25e:	3de1                	jal	136 <array_mod>


    // make calculations for partial products, if need add mod calculations
    if(star_mult == 1){
     260:	fbc42783          	lw	a5,-68(s0)
     264:	4705                	li	a4,1
     266:	94ce                	add	s1,s1,s3
     268:	04e78d63          	beq	a5,a4,2c2 <polymult+0x100>
     26c:	19f1                	addi	s3,s3,-4
     26e:	ffca8613          	addi	a2,s5,-4
     272:	99e6                	add	s3,s3,s9
                line[size_b-1-j][k] = pola[k]*polb[j];
            }
        }
    }
    else{
        for (j = size_b -1; j >= 0; j = j-1){
     274:	040dca63          	bltz	s11,2c8 <polymult+0x106>
            for (k = size_a-1; k >= 0; k = k-1 ){
     278:	8762                	mv	a4,s8
     27a:	a8e9                	j	354 <polymult+0x192>
            product[j] = 0;
     27c:	00271313          	slli	t1,a4,0x2
     280:	9372                	add	t1,t1,t3
            line[i][j] = 0;
     282:	0008a023          	sw	zero,0(a7)
            product[j] = 0;
     286:	00032023          	sw	zero,0(t1)
        for(j = 0; j < size_a + size_b -1; ++j){
     28a:	0705                	addi	a4,a4,1
     28c:	0891                	addi	a7,a7,4
     28e:	ff6747e3          	blt	a4,s6,27c <polymult+0xba>
    for (i = 0; i < size_b; ++i){
     292:	0685                	addi	a3,a3,1
     294:	9656                	add	a2,a2,s5
     296:	b74d                	j	238 <polymult+0x76>
     298:	88b2                	mv	a7,a2
        for(j = 0; j < size_a + size_b -1; ++j){
     29a:	4701                	li	a4,0
     29c:	bfcd                	j	28e <polymult+0xcc>
        pola[i] = a[i];
     29e:	00271693          	slli	a3,a4,0x2
     2a2:	00dd0633          	add	a2,s10,a3
     2a6:	96aa                	add	a3,a3,a0
     2a8:	4294                	lw	a3,0(a3)
    for (i = 0; i < size_a; ++i){
     2aa:	0705                	addi	a4,a4,1
        pola[i] = a[i];
     2ac:	c214                	sw	a3,0(a2)
    for (i = 0; i < size_a; ++i){
     2ae:	bf41                	j	23e <polymult+0x7c>
        polb[i] = b[i];
     2b0:	00271693          	slli	a3,a4,0x2
     2b4:	00d48633          	add	a2,s1,a3
     2b8:	96c2                	add	a3,a3,a6
     2ba:	4294                	lw	a3,0(a3)
    for (i = 0; i < size_b; ++i){
     2bc:	0705                	addi	a4,a4,1
        polb[i] = b[i];
     2be:	c214                	sw	a3,0(a2)
    for (i = 0; i < size_b; ++i){
     2c0:	bf51                	j	254 <polymult+0x92>
    if(star_mult == 1){
     2c2:	8666                	mv	a2,s9
        for (j = size_b -1; j >= 0; j = j-1){
     2c4:	060dda63          	bgez	s11,338 <polymult+0x176>
            for (k = size_a-1; k >= 0; k = k-1 ){
     2c8:	4481                	li	s1,0
            }
        }
    }

    //mod calculations
    for (i = 0; i < size_b; ++i){
     2ca:	0924cb63          	blt	s1,s2,360 <polymult+0x19e>
        array_mod(line[i],mod,(size_a+size_b-1));
    }

    // construct product
   // for(j = 0; j < size_a + size_b -1; ++j){
        for(i = 0; i < size_b; ++i){
     2ce:	4481                	li	s1,0
            array_add(product,line[i],size_a+size_b-1);
     2d0:	00001997          	auipc	s3,0x1
     2d4:	f8098993          	addi	s3,s3,-128 # 1250 <_bss_start>
     2d8:	865a                	mv	a2,s6
        for(i = 0; i < size_b; ++i){
     2da:	0924ca63          	blt	s1,s2,36e <polymult+0x1ac>
//    //mod calculations
//    for(j = 0; j < size_a + size_b -1; ++j){
//        product[j] = product[j] % mod;
//    }

    array_mod(product,mod,(size_a+size_b-1));
     2de:	85d2                	mv	a1,s4
     2e0:	00001517          	auipc	a0,0x1
     2e4:	f7050513          	addi	a0,a0,-144 # 1250 <_bss_start>
     2e8:	35b9                	jal	136 <array_mod>

    return_address1 = &product[0];

    return return_address1;
}
     2ea:	fb040113          	addi	sp,s0,-80
     2ee:	40b6                	lw	ra,76(sp)
     2f0:	4426                	lw	s0,72(sp)
     2f2:	4496                	lw	s1,68(sp)
     2f4:	4906                	lw	s2,64(sp)
     2f6:	59f2                	lw	s3,60(sp)
     2f8:	5a62                	lw	s4,56(sp)
     2fa:	5ad2                	lw	s5,52(sp)
     2fc:	5b42                	lw	s6,48(sp)
     2fe:	5bb2                	lw	s7,44(sp)
     300:	5c22                	lw	s8,40(sp)
     302:	5c92                	lw	s9,36(sp)
     304:	5d02                	lw	s10,32(sp)
     306:	4df2                	lw	s11,28(sp)
     308:	00001517          	auipc	a0,0x1
     30c:	f4850513          	addi	a0,a0,-184 # 1250 <_bss_start>
     310:	6161                	addi	sp,sp,80
     312:	8082                	ret
                line[size_b-1-j][k] = pola[k]*polb[j];
     314:	00271693          	slli	a3,a4,0x2
     318:	00d605b3          	add	a1,a2,a3
     31c:	96ea                	add	a3,a3,s10
     31e:	4294                	lw	a3,0(a3)
     320:	ffc4a503          	lw	a0,-4(s1)
            for (k = size_a-1; k >= 0; k = k-1 ){
     324:	177d                	addi	a4,a4,-1
                line[size_b-1-j][k] = pola[k]*polb[j];
     326:	02a686b3          	mul	a3,a3,a0
     32a:	c194                	sw	a3,0(a1)
            for (k = size_a-1; k >= 0; k = k-1 ){
     32c:	fe0754e3          	bgez	a4,314 <polymult+0x152>
        for (j = size_b -1; j >= 0; j = j-1){
     330:	1dfd                	addi	s11,s11,-1
     332:	14f1                	addi	s1,s1,-4
     334:	9656                	add	a2,a2,s5
     336:	b779                	j	2c4 <polymult+0x102>
            for (k = size_a-1; k >= 0; k = k-1 ){
     338:	8762                	mv	a4,s8
     33a:	bfcd                	j	32c <polymult+0x16a>
                line[size_b-1-j][k + j] = pola[k]*polb[j];
     33c:	00271693          	slli	a3,a4,0x2
     340:	00d985b3          	add	a1,s3,a3
     344:	96ea                	add	a3,a3,s10
     346:	4294                	lw	a3,0(a3)
     348:	ffc4a503          	lw	a0,-4(s1)
            for (k = size_a-1; k >= 0; k = k-1 ){
     34c:	177d                	addi	a4,a4,-1
                line[size_b-1-j][k + j] = pola[k]*polb[j];
     34e:	02a686b3          	mul	a3,a3,a0
     352:	c194                	sw	a3,0(a1)
            for (k = size_a-1; k >= 0; k = k-1 ){
     354:	fe0754e3          	bgez	a4,33c <polymult+0x17a>
        for (j = size_b -1; j >= 0; j = j-1){
     358:	1dfd                	addi	s11,s11,-1
     35a:	14f1                	addi	s1,s1,-4
     35c:	99b2                	add	s3,s3,a2
     35e:	bf19                	j	274 <polymult+0xb2>
        array_mod(line[i],mod,(size_a+size_b-1));
     360:	8566                	mv	a0,s9
     362:	865a                	mv	a2,s6
     364:	85d2                	mv	a1,s4
     366:	3bc1                	jal	136 <array_mod>
    for (i = 0; i < size_b; ++i){
     368:	0485                	addi	s1,s1,1
     36a:	9cd6                	add	s9,s9,s5
     36c:	bfb9                	j	2ca <polymult+0x108>
            array_add(product,line[i],size_a+size_b-1);
     36e:	85de                	mv	a1,s7
     370:	854e                	mv	a0,s3
     372:	3305                	jal	92 <array_add>
        for(i = 0; i < size_b; ++i){
     374:	0485                	addi	s1,s1,1
     376:	9bd6                	add	s7,s7,s5
     378:	b785                	j	2d8 <polymult+0x116>

0000037a <polymult2>:

int *polymult2(int *a, int size_a, int *b, int size_b, int star_mult){
     37a:	1101                	addi	sp,sp,-32
     37c:	ca26                	sw	s1,20(sp)
     37e:	84b6                	mv	s1,a3

    int line[size_b][size_a + size_b];
     380:	00d587b3          	add	a5,a1,a3
     384:	00249893          	slli	a7,s1,0x2
int *polymult2(int *a, int size_a, int *b, int size_b, int star_mult){
     388:	c84a                	sw	s2,16(sp)
     38a:	c64e                	sw	s3,12(sp)
    int line[size_b][size_a + size_b];
     38c:	00279913          	slli	s2,a5,0x2
     390:	fff78993          	addi	s3,a5,-1
     394:	02f887b3          	mul	a5,a7,a5
int *polymult2(int *a, int size_a, int *b, int size_b, int star_mult){
     398:	cc22                	sw	s0,24(sp)
     39a:	c452                	sw	s4,8(sp)
     39c:	c256                	sw	s5,4(sp)
     39e:	ce06                	sw	ra,28(sp)
     3a0:	c05a                	sw	s6,0(sp)
     3a2:	1000                	addi	s0,sp,32
     3a4:	832e                	mv	t1,a1
    int i,j,k;
    int *return_address2;
    int pola[size_a];
     3a6:	fff58e13          	addi	t3,a1,-1
    int line[size_b][size_a + size_b];
     3aa:	07bd                	addi	a5,a5,15
     3ac:	9bc1                	andi	a5,a5,-16
     3ae:	40f10133          	sub	sp,sp,a5
    int pola[size_a];
     3b2:	00259793          	slli	a5,a1,0x2
     3b6:	07bd                	addi	a5,a5,15
     3b8:	9bc1                	andi	a5,a5,-16
    int line[size_b][size_a + size_b];
     3ba:	880a                	mv	a6,sp
    int pola[size_a];
     3bc:	40f10133          	sub	sp,sp,a5
    int polb[size_b];
     3c0:	00f88793          	addi	a5,a7,15
     3c4:	9bc1                	andi	a5,a5,-16
    int pola[size_a];
     3c6:	858a                	mv	a1,sp
    int polb[size_b];
     3c8:	40f10133          	sub	sp,sp,a5
    int line[size_b][size_a + size_b];
     3cc:	16fd                	addi	a3,a3,-1
    int polb[size_b];
     3ce:	878a                	mv	a5,sp

    //make all line vectors zero
    for (i = 0; i < size_b; ++i){
     3d0:	8a42                	mv	s4,a6
     3d2:	8fc2                	mv	t6,a6
     3d4:	4f01                	li	t5,0
        for(j = 0; j < size_a + size_b -1; ++j){
            line[i][j] = 0;
            product2[j] = 0;
     3d6:	00001a97          	auipc	s5,0x1
     3da:	0d2a8a93          	addi	s5,s5,210 # 14a8 <product2>
    for (i = 0; i < size_b; ++i){
     3de:	049f4263          	blt	t5,s1,422 <polymult2+0xa8>
        }
    }

    for(i = 0; i < size_a; ++i){
     3e2:	4e81                	li	t4,0
     3e4:	046ec263          	blt	t4,t1,428 <polymult2+0xae>
        pola[i] = a[i];
    }

    for(i = 0; i < size_b; ++i){
     3e8:	4501                	li	a0,0
     3ea:	04954a63          	blt	a0,s1,43e <polymult2+0xc4>
        polb[i] = b[i];
    }


    // make calculations for partial products, if need add mod calculations
    if(star_mult == 1){
     3ee:	4605                	li	a2,1
     3f0:	97c6                	add	a5,a5,a7
     3f2:	08c70263          	beq	a4,a2,476 <polymult2+0xfc>
     3f6:	18f1                	addi	a7,a7,-4
     3f8:	ffc90313          	addi	t1,s2,-4
     3fc:	9846                	add	a6,a6,a7
                line[size_b-1-j][k] = pola[k]*polb[j];
            }
        }
    }
    else{
        for (j = size_b -1; j >= 0; j = j-1){
     3fe:	0606ce63          	bltz	a3,47a <polymult2+0x100>
            for (k = size_a-1; k >= 0; k = k-1 ){
     402:	8772                	mv	a4,t3
     404:	a0c9                	j	4c6 <polymult2+0x14c>
            product2[j] = 0;
     406:	002e9393          	slli	t2,t4,0x2
     40a:	93d6                	add	t2,t2,s5
            line[i][j] = 0;
     40c:	0002a023          	sw	zero,0(t0)
            product2[j] = 0;
     410:	0003a023          	sw	zero,0(t2)
        for(j = 0; j < size_a + size_b -1; ++j){
     414:	0e85                	addi	t4,t4,1
     416:	0291                	addi	t0,t0,4
     418:	ff3ec7e3          	blt	t4,s3,406 <polymult2+0x8c>
    for (i = 0; i < size_b; ++i){
     41c:	0f05                	addi	t5,t5,1
     41e:	9fca                	add	t6,t6,s2
     420:	bf7d                	j	3de <polymult2+0x64>
     422:	82fe                	mv	t0,t6
        for(j = 0; j < size_a + size_b -1; ++j){
     424:	4e81                	li	t4,0
     426:	bfcd                	j	418 <polymult2+0x9e>
        pola[i] = a[i];
     428:	002e9f13          	slli	t5,t4,0x2
     42c:	01e58fb3          	add	t6,a1,t5
     430:	9f2a                	add	t5,t5,a0
     432:	000f2f03          	lw	t5,0(t5)
    for(i = 0; i < size_a; ++i){
     436:	0e85                	addi	t4,t4,1
        pola[i] = a[i];
     438:	01efa023          	sw	t5,0(t6)
    for(i = 0; i < size_a; ++i){
     43c:	b765                	j	3e4 <polymult2+0x6a>
        polb[i] = b[i];
     43e:	00251313          	slli	t1,a0,0x2
     442:	00678eb3          	add	t4,a5,t1
     446:	9332                	add	t1,t1,a2
     448:	00032303          	lw	t1,0(t1)
    for(i = 0; i < size_b; ++i){
     44c:	0505                	addi	a0,a0,1
        polb[i] = b[i];
     44e:	006ea023          	sw	t1,0(t4)
    for(i = 0; i < size_b; ++i){
     452:	bf61                	j	3ea <polymult2+0x70>
                line[size_b-1-j][k] = pola[k]*polb[j];
     454:	00271613          	slli	a2,a4,0x2
     458:	00c80533          	add	a0,a6,a2
     45c:	962e                	add	a2,a2,a1
     45e:	4210                	lw	a2,0(a2)
     460:	ffc7a883          	lw	a7,-4(a5)
            for (k = size_a-1; k >= 0; k = k-1 ){
     464:	177d                	addi	a4,a4,-1
                line[size_b-1-j][k] = pola[k]*polb[j];
     466:	03160633          	mul	a2,a2,a7
     46a:	c110                	sw	a2,0(a0)
            for (k = size_a-1; k >= 0; k = k-1 ){
     46c:	fe0754e3          	bgez	a4,454 <polymult2+0xda>
        for (j = size_b -1; j >= 0; j = j-1){
     470:	16fd                	addi	a3,a3,-1
     472:	17f1                	addi	a5,a5,-4
     474:	984a                	add	a6,a6,s2
     476:	0206d963          	bgez	a3,4a8 <polymult2+0x12e>
            for (k = size_a-1; k >= 0; k = k-1 ){
     47a:	4a81                	li	s5,0

    // construct product
    for(i=0;i<size_b;++i){
        //for(j=0;j<size_a+size_b-1;++j){
         //   product2[j] += line[i][j];
        array_add(product2,line[i],size_a+size_b-1);
     47c:	00001b17          	auipc	s6,0x1
     480:	02cb0b13          	addi	s6,s6,44 # 14a8 <product2>
    for(i=0;i<size_b;++i){
     484:	049ac763          	blt	s5,s1,4d2 <polymult2+0x158>
    }

    return_address2 = &product2[0];

    return return_address2;
}
     488:	fe040113          	addi	sp,s0,-32
     48c:	40f2                	lw	ra,28(sp)
     48e:	4462                	lw	s0,24(sp)
     490:	44d2                	lw	s1,20(sp)
     492:	4942                	lw	s2,16(sp)
     494:	49b2                	lw	s3,12(sp)
     496:	4a22                	lw	s4,8(sp)
     498:	4a92                	lw	s5,4(sp)
     49a:	4b02                	lw	s6,0(sp)
     49c:	00001517          	auipc	a0,0x1
     4a0:	00c50513          	addi	a0,a0,12 # 14a8 <product2>
     4a4:	6105                	addi	sp,sp,32
     4a6:	8082                	ret
            for (k = size_a-1; k >= 0; k = k-1 ){
     4a8:	8772                	mv	a4,t3
     4aa:	b7c9                	j	46c <polymult2+0xf2>
                line[size_b-1-j][k + j] = pola[k]*polb[j];
     4ac:	00271513          	slli	a0,a4,0x2
     4b0:	00a808b3          	add	a7,a6,a0
     4b4:	952e                	add	a0,a0,a1
     4b6:	4110                	lw	a2,0(a0)
     4b8:	ffc7a503          	lw	a0,-4(a5)
            for (k = size_a-1; k >= 0; k = k-1 ){
     4bc:	177d                	addi	a4,a4,-1
                line[size_b-1-j][k + j] = pola[k]*polb[j];
     4be:	02a60633          	mul	a2,a2,a0
     4c2:	00c8a023          	sw	a2,0(a7)
            for (k = size_a-1; k >= 0; k = k-1 ){
     4c6:	fe0753e3          	bgez	a4,4ac <polymult2+0x132>
        for (j = size_b -1; j >= 0; j = j-1){
     4ca:	16fd                	addi	a3,a3,-1
     4cc:	17f1                	addi	a5,a5,-4
     4ce:	981a                	add	a6,a6,t1
     4d0:	b73d                	j	3fe <polymult2+0x84>
        array_add(product2,line[i],size_a+size_b-1);
     4d2:	85d2                	mv	a1,s4
     4d4:	864e                	mv	a2,s3
     4d6:	855a                	mv	a0,s6
     4d8:	3e6d                	jal	92 <array_add>
    for(i=0;i<size_b;++i){
     4da:	0a85                	addi	s5,s5,1
     4dc:	9a4a                	add	s4,s4,s2
     4de:	b75d                	j	484 <polymult2+0x10a>

000004e0 <polydiv>:
int *polydiv(int *num, int size_N, int*denum, int size_D, int mod){

    int u,d,d2,i,b_N,r_d;
    int *return_address3;

    int v[size_N];
     4e0:	00259793          	slli	a5,a1,0x2
int *polydiv(int *num, int size_N, int*denum, int size_D, int mod){
     4e4:	7139                	addi	sp,sp,-64
    int v[size_N];
     4e6:	07bd                	addi	a5,a5,15
     4e8:	9bc1                	andi	a5,a5,-16
int *polydiv(int *num, int size_N, int*denum, int size_D, int mod){
     4ea:	dc22                	sw	s0,56(sp)
     4ec:	da26                	sw	s1,52(sp)
     4ee:	d84a                	sw	s2,48(sp)
     4f0:	d64e                	sw	s3,44(sp)
     4f2:	d452                	sw	s4,40(sp)
     4f4:	d256                	sw	s5,36(sp)
     4f6:	d05a                	sw	s6,32(sp)
     4f8:	ce5e                	sw	s7,28(sp)
     4fa:	cc62                	sw	s8,24(sp)
     4fc:	ca66                	sw	s9,20(sp)
     4fe:	c86a                	sw	s10,16(sp)
     500:	de06                	sw	ra,60(sp)
     502:	c66e                	sw	s11,12(sp)
     504:	0080                	addi	s0,sp,64
    int v[size_N];
     506:	40f10133          	sub	sp,sp,a5
     50a:	8a8a                	mv	s5,sp
    int q[size_N];
     50c:	40f10133          	sub	sp,sp,a5
     510:	8b0a                	mv	s6,sp
    int *product;
    int num_temp[size_N];
     512:	40f10133          	sub	sp,sp,a5
    int denum_temp[size_D];
     516:	00269793          	slli	a5,a3,0x2
     51a:	07bd                	addi	a5,a5,15
     51c:	9bc1                	andi	a5,a5,-16
    int num_temp[size_N];
     51e:	8c8a                	mv	s9,sp
    int denum_temp[size_D];
     520:	40f10133          	sub	sp,sp,a5
int *polydiv(int *num, int size_N, int*denum, int size_D, int mod){
     524:	84ae                	mv	s1,a1
     526:	8d32                	mv	s10,a2
     528:	89b6                	mv	s3,a3
     52a:	893a                	mv	s2,a4
    int v[size_N];
     52c:	fff58c13          	addi	s8,a1,-1
    int denum_temp[size_D];
     530:	fff68a13          	addi	s4,a3,-1
     534:	8b8a                	mv	s7,sp


    // make mod calculation for coefficents
    for (i = 0; i < size_N; ++i){
     536:	4781                	li	a5,0
     538:	0297cd63          	blt	a5,s1,572 <polydiv+0x92>
        num_temp[i] = num[i];
    }

   
    array_mod(num_temp, mod, size_N);
     53c:	8626                	mv	a2,s1
     53e:	85ca                	mv	a1,s2
     540:	8566                	mv	a0,s9
     542:	3ed5                	jal	136 <array_mod>
    

    // make mod calculation for coefficents
    for (i = 0; i < size_D; ++i) {
     544:	4781                	li	a5,0
     546:	0337cf63          	blt	a5,s3,584 <polydiv+0xa4>
        denum_temp[i] = denum[i];
    }

    array_mod(denum_temp,mod,size_D);
     54a:	864e                	mv	a2,s3
     54c:	85ca                	mv	a1,s2
     54e:	855e                	mv	a0,s7
     550:	36dd                	jal	136 <array_mod>

    for (i = 0; i < size_N; ++i){
     552:	4781                	li	a5,0
     554:	0497c163          	blt	a5,s1,596 <polydiv+0xb6>
        q[i] = 0;
        v[i] = 0;
    }

    //find b_N (denum) and degree denum
    for (i = size_D-1; i >= 0; i = i-1){
     558:	002a1793          	slli	a5,s4,0x2
     55c:	97de                	add	a5,a5,s7
     55e:	4398                	lw	a4,0(a5)
     560:	040a5663          	bgez	s4,5ac <polydiv+0xcc>
    for (i = 0; i < size_N; ++i){
     564:	4781                	li	a5,0
     566:	4d01                	li	s10,0
    d2 = i; //f'in derecesi
    b_N = denum_temp[i];

    // Set u := (b_N)^–1 mod p (denum) //
    for (u = 0; u < mod; ++u){
        if ( (b_N*u)%mod == 1 )
     568:	4685                	li	a3,1
    for (u = 0; u < mod; ++u){
     56a:	052d4463          	blt	s10,s2,5b2 <polydiv+0xd2>
     56e:	87e2                	mv	a5,s8
     570:	a891                	j	5c4 <polydiv+0xe4>
        num_temp[i] = num[i];
     572:	00279713          	slli	a4,a5,0x2
     576:	00ec86b3          	add	a3,s9,a4
     57a:	972a                	add	a4,a4,a0
     57c:	4318                	lw	a4,0(a4)
    for (i = 0; i < size_N; ++i){
     57e:	0785                	addi	a5,a5,1
        num_temp[i] = num[i];
     580:	c298                	sw	a4,0(a3)
    for (i = 0; i < size_N; ++i){
     582:	bf5d                	j	538 <polydiv+0x58>
        denum_temp[i] = denum[i];
     584:	00279713          	slli	a4,a5,0x2
     588:	00eb86b3          	add	a3,s7,a4
     58c:	976a                	add	a4,a4,s10
     58e:	4318                	lw	a4,0(a4)
    for (i = 0; i < size_D; ++i) {
     590:	0785                	addi	a5,a5,1
        denum_temp[i] = denum[i];
     592:	c298                	sw	a4,0(a3)
    for (i = 0; i < size_D; ++i) {
     594:	bf4d                	j	546 <polydiv+0x66>
        q[i] = 0;
     596:	00279713          	slli	a4,a5,0x2
     59a:	00eb06b3          	add	a3,s6,a4
        v[i] = 0;
     59e:	9756                	add	a4,a4,s5
        q[i] = 0;
     5a0:	0006a023          	sw	zero,0(a3)
        v[i] = 0;
     5a4:	00072023          	sw	zero,0(a4)
    for (i = 0; i < size_N; ++i){
     5a8:	0785                	addi	a5,a5,1
     5aa:	b76d                	j	554 <polydiv+0x74>
        if( denum_temp[i] != 0 )
     5ac:	ff45                	bnez	a4,564 <polydiv+0x84>
    for (i = size_D-1; i >= 0; i = i-1){
     5ae:	1a7d                	addi	s4,s4,-1
     5b0:	b765                	j	558 <polydiv+0x78>
        if ( (b_N*u)%mod == 1 )
     5b2:	0327e633          	rem	a2,a5,s2
     5b6:	97ba                	add	a5,a5,a4
     5b8:	fad60be3          	beq	a2,a3,56e <polydiv+0x8e>
    for (u = 0; u < mod; ++u){
     5bc:	0d05                	addi	s10,s10,1
     5be:	b775                	j	56a <polydiv+0x8a>
            break;
    }

    // find degree num and r_d
    for (i = size_N-1; i >= 0; i = i-1){
        if( num_temp[i] != 0 )
     5c0:	eb01                	bnez	a4,5d0 <polydiv+0xf0>
    for (i = size_N-1; i >= 0; i = i-1){
     5c2:	17fd                	addi	a5,a5,-1
     5c4:	00279713          	slli	a4,a5,0x2
     5c8:	9766                	add	a4,a4,s9
     5ca:	4318                	lw	a4,0(a4)
     5cc:	fe07dae3          	bgez	a5,5c0 <polydiv+0xe0>

    //printf("\nSİL-3\n");
    //printf("\nd2 = %d, d = %d\n",d2,d);

    // While-1 deg num >= deg denum do
    while (d >= d2){
     5d0:	0547d663          	bge	a5,s4,61c <polydiv+0x13c>
        }


    } //End While-1

    for(i = 0; i < size_N; ++i){
     5d4:	4781                	li	a5,0
        result[i] = q[i];
     5d6:	00001697          	auipc	a3,0x1
     5da:	12a68693          	addi	a3,a3,298 # 1700 <result>
    for(i = 0; i < size_N; ++i){
     5de:	0c97c563          	blt	a5,s1,6a8 <polydiv+0x1c8>
    }


    for(i = size_N; i < (2*size_N); ++i){
     5e2:	00149713          	slli	a4,s1,0x1
        result[i] = num_temp[i-size_N];
     5e6:	00001697          	auipc	a3,0x1
     5ea:	11a68693          	addi	a3,a3,282 # 1700 <result>
    for(i = size_N; i < (2*size_N); ++i){
     5ee:	0ce4c663          	blt	s1,a4,6ba <polydiv+0x1da>
    }

    return_address3 = &result[0];

    return return_address3;
}
     5f2:	fc040113          	addi	sp,s0,-64
     5f6:	50f2                	lw	ra,60(sp)
     5f8:	5462                	lw	s0,56(sp)
     5fa:	54d2                	lw	s1,52(sp)
     5fc:	5942                	lw	s2,48(sp)
     5fe:	59b2                	lw	s3,44(sp)
     600:	5a22                	lw	s4,40(sp)
     602:	5a92                	lw	s5,36(sp)
     604:	5b02                	lw	s6,32(sp)
     606:	4bf2                	lw	s7,28(sp)
     608:	4c62                	lw	s8,24(sp)
     60a:	4cd2                	lw	s9,20(sp)
     60c:	4d42                	lw	s10,16(sp)
     60e:	4db2                	lw	s11,12(sp)
     610:	00001517          	auipc	a0,0x1
     614:	0f050513          	addi	a0,a0,240 # 1700 <result>
     618:	6121                	addi	sp,sp,64
     61a:	8082                	ret
        v[(d-d2)] = u*r_d;
     61c:	03a70733          	mul	a4,a4,s10
     620:	414787b3          	sub	a5,a5,s4
     624:	078a                	slli	a5,a5,0x2
     626:	97d6                	add	a5,a5,s5
        array_mod(v, mod, size_N);
     628:	8626                	mv	a2,s1
     62a:	85ca                	mv	a1,s2
     62c:	8556                	mv	a0,s5
        v[(d-d2)] = u*r_d;
     62e:	c398                	sw	a4,0(a5)
        array_mod(v, mod, size_N);
     630:	3619                	jal	136 <array_mod>
        product = polymult(denum_temp,size_D,v,size_D,mod,0);
     632:	4781                	li	a5,0
     634:	874a                	mv	a4,s2
     636:	86ce                	mv	a3,s3
     638:	8656                	mv	a2,s5
     63a:	85ce                	mv	a1,s3
     63c:	855e                	mv	a0,s7
     63e:	3651                	jal	1c2 <polymult>
         array_mod(product, mod, size_N);
     640:	8626                	mv	a2,s1
     642:	85ca                	mv	a1,s2
        product = polymult(denum_temp,size_D,v,size_D,mod,0);
     644:	8daa                	mv	s11,a0
         array_mod(product, mod, size_N);
     646:	3cc5                	jal	136 <array_mod>
        for (i = 0; i < size_N; ++i){
     648:	8766                	mv	a4,s9
     64a:	4781                	li	a5,0
     64c:	0297c763          	blt	a5,s1,67a <polydiv+0x19a>
         array_mod(num_temp, mod, size_N);
     650:	8626                	mv	a2,s1
     652:	85ca                	mv	a1,s2
     654:	8566                	mv	a0,s9
     656:	34c5                	jal	136 <array_mod>
        array_add(q, v, size_N);
     658:	8626                	mv	a2,s1
     65a:	85d6                	mv	a1,s5
     65c:	855a                	mv	a0,s6
     65e:	3c15                	jal	92 <array_add>
        array_mod(q, mod, size_N);
     660:	8626                	mv	a2,s1
     662:	85ca                	mv	a1,s2
     664:	855a                	mv	a0,s6
     666:	3cc1                	jal	136 <array_mod>
        for (i = size_N-1; i >= 0; i = i-1){
     668:	87e2                	mv	a5,s8
     66a:	00279713          	slli	a4,a5,0x2
     66e:	9766                	add	a4,a4,s9
     670:	4318                	lw	a4,0(a4)
     672:	0007df63          	bgez	a5,690 <polydiv+0x1b0>
     676:	4681                	li	a3,0
     678:	a02d                	j	6a2 <polydiv+0x1c2>
            num_temp[i] = num_temp[i] - product[i];
     67a:	00279613          	slli	a2,a5,0x2
     67e:	966e                	add	a2,a2,s11
     680:	4314                	lw	a3,0(a4)
     682:	4210                	lw	a2,0(a2)
        for (i = 0; i < size_N; ++i){
     684:	0785                	addi	a5,a5,1
     686:	0711                	addi	a4,a4,4
            num_temp[i] = num_temp[i] - product[i];
     688:	8e91                	sub	a3,a3,a2
     68a:	fed72e23          	sw	a3,-4(a4)
        for (i = 0; i < size_N; ++i){
     68e:	bf7d                	j	64c <polydiv+0x16c>
            if( num_temp[i] != 0 )
     690:	f37d                	bnez	a4,676 <polydiv+0x196>
        for (i = size_N-1; i >= 0; i = i-1){
     692:	17fd                	addi	a5,a5,-1
     694:	bfd9                	j	66a <polydiv+0x18a>
            v[i] = 0;
     696:	00269613          	slli	a2,a3,0x2
     69a:	9656                	add	a2,a2,s5
     69c:	00062023          	sw	zero,0(a2)
        for (i = 0; i < size_N; ++i){
     6a0:	0685                	addi	a3,a3,1
     6a2:	fe96cae3          	blt	a3,s1,696 <polydiv+0x1b6>
     6a6:	b72d                	j	5d0 <polydiv+0xf0>
        result[i] = q[i];
     6a8:	00279713          	slli	a4,a5,0x2
     6ac:	00e68633          	add	a2,a3,a4
     6b0:	975a                	add	a4,a4,s6
     6b2:	4318                	lw	a4,0(a4)
    for(i = 0; i < size_N; ++i){
     6b4:	0785                	addi	a5,a5,1
        result[i] = q[i];
     6b6:	c218                	sw	a4,0(a2)
    for(i = 0; i < size_N; ++i){
     6b8:	b71d                	j	5de <polydiv+0xfe>
        result[i] = num_temp[i-size_N];
     6ba:	000ca603          	lw	a2,0(s9)
     6be:	00249793          	slli	a5,s1,0x2
     6c2:	97b6                	add	a5,a5,a3
     6c4:	c390                	sw	a2,0(a5)
    for(i = size_N; i < (2*size_N); ++i){
     6c6:	0485                	addi	s1,s1,1
     6c8:	0c91                	addi	s9,s9,4
     6ca:	b715                	j	5ee <polydiv+0x10e>

000006cc <ext_euclid>:

int* ext_euclid(int* polyR, int* polyf, int size, int mod) {

    int *return_address4;
    int N, i, j;
    int ri_2[size]; // MX-ring poly, a
     6cc:	00261793          	slli	a5,a2,0x2
int* ext_euclid(int* polyR, int* polyf, int size, int mod) {
     6d0:	715d                	addi	sp,sp,-80
    int ri_2[size]; // MX-ring poly, a
     6d2:	07bd                	addi	a5,a5,15
     6d4:	9bc1                	andi	a5,a5,-16
int* ext_euclid(int* polyR, int* polyf, int size, int mod) {
     6d6:	c4a2                	sw	s0,72(sp)
     6d8:	c2a6                	sw	s1,68(sp)
     6da:	c0ca                	sw	s2,64(sp)
     6dc:	de4e                	sw	s3,60(sp)
     6de:	dc52                	sw	s4,56(sp)
     6e0:	da56                	sw	s5,52(sp)
     6e2:	d85a                	sw	s6,48(sp)
     6e4:	d65e                	sw	s7,44(sp)
     6e6:	d462                	sw	s8,40(sp)
     6e8:	d266                	sw	s9,36(sp)
     6ea:	ce6e                	sw	s11,28(sp)
     6ec:	c686                	sw	ra,76(sp)
     6ee:	d06a                	sw	s10,32(sp)
     6f0:	0880                	addi	s0,sp,80
    int ri_2[size]; // MX-ring poly, a
     6f2:	40f10133          	sub	sp,sp,a5
     6f6:	898a                	mv	s3,sp
    int ri_1[size]; // f-random poly, f[N] = 0, b
     6f8:	40f10133          	sub	sp,sp,a5
     6fc:	8a8a                	mv	s5,sp
    int ri[size];
     6fe:	40f10133          	sub	sp,sp,a5
     702:	8c0a                	mv	s8,sp

    int ti_1[size]; // ti_1[0] = 1
     704:	40f10133          	sub	sp,sp,a5
     708:	8b0a                	mv	s6,sp
    int ti[size];
     70a:	40f10133          	sub	sp,sp,a5
     70e:	8c8a                	mv	s9,sp
    int qi_1[size];
     710:	40f10133          	sub	sp,sp,a5
     714:	8b8a                	mv	s7,sp
    int temp[size];
     716:	40f10133          	sub	sp,sp,a5
int* ext_euclid(int* polyR, int* polyf, int size, int mod) {
     71a:	84b6                	mv	s1,a3
     71c:	8db2                	mv	s11,a2
    int ri_2[size]; // MX-ring poly, a
     71e:	fff60913          	addi	s2,a2,-1
    int temp[size];
     722:	8a0a                	mv	s4,sp
    int *res1;
    int *res2;
    int controlR = 1;

    N = size - 1;
    for (i = 0; i < size; ++i) {
     724:	4781                	li	a5,0
     726:	4701                	li	a4,0
        ri_2[i] = polyR[i];
        ri_1[i] = polyf[i];
        ti_2[i] = 0;
     728:	00001697          	auipc	a3,0x1
     72c:	23068693          	addi	a3,a3,560 # 1958 <ti_2>
    for (i = 0; i < size; ++i) {
     730:	0fb74163          	blt	a4,s11,812 <ext_euclid+0x146>

///// ri_2 = polyR      ///////
///// ri_1 = f         //////////
///// ti_2 = ti_1 = 0 /////////

    ti_1[0] = 1;
     734:	4785                	li	a5,1
     736:	00fb2023          	sw	a5,0(s6)
//            ri_1[i] = ri_1[i] % mod;
//        }
    array_mod(ri_1,mod,size);

        res = polydiv(ri_2, N + 1, ri_1, N + 1, mod);
        for (i = N + 1; i < (2 * N + 2); ++i) {
     73a:	001d9793          	slli	a5,s11,0x1
     73e:	faf42e23          	sw	a5,-68(s0)
//            temp[i] = temp[i] % mod;
//        }
    array_mod(temp,mod,size);

        for (i = 0; i < N + 1; ++i) {
            ti[i] = ti_2[i] - temp[i];
     742:	00001d17          	auipc	s10,0x1
     746:	216d0d13          	addi	s10,s10,534 # 1958 <ti_2>
    array_mod(ri_2,mod,size);
     74a:	866e                	mv	a2,s11
     74c:	85a6                	mv	a1,s1
     74e:	854e                	mv	a0,s3
     750:	32dd                	jal	136 <array_mod>
    array_mod(ri_1,mod,size);
     752:	866e                	mv	a2,s11
     754:	85a6                	mv	a1,s1
     756:	8556                	mv	a0,s5
     758:	3af9                	jal	136 <array_mod>
        res = polydiv(ri_2, N + 1, ri_1, N + 1, mod);
     75a:	8726                	mv	a4,s1
     75c:	86ee                	mv	a3,s11
     75e:	8656                	mv	a2,s5
     760:	85ee                	mv	a1,s11
     762:	854e                	mv	a0,s3
     764:	3bb5                	jal	4e0 <polydiv>
        for (i = N + 1; i < (2 * N + 2); ++i) {
     766:	8762                	mv	a4,s8
     768:	87ee                	mv	a5,s11
     76a:	fbc42683          	lw	a3,-68(s0)
     76e:	0cd7cd63          	blt	a5,a3,848 <ext_euclid+0x17c>
     772:	4781                	li	a5,0
        for (i = 0; i < N + 1; ++i) {
     774:	4701                	li	a4,0
     776:	0ee95263          	bge	s2,a4,85a <ext_euclid+0x18e>
    array_mod(temp,mod,size);
     77a:	866e                	mv	a2,s11
     77c:	85a6                	mv	a1,s1
     77e:	8552                	mv	a0,s4
     780:	3a5d                	jal	136 <array_mod>
        res1 = polydiv(temp, N + 1, ri_1, N + 1, mod);
     782:	8726                	mv	a4,s1
     784:	86ee                	mv	a3,s11
     786:	8656                	mv	a2,s5
     788:	85ee                	mv	a1,s11
     78a:	8552                	mv	a0,s4
     78c:	3b91                	jal	4e0 <polydiv>
        for (i = 0; i < N + 1; ++i) {
     78e:	4781                	li	a5,0
     790:	0ef95263          	bge	s2,a5,874 <ext_euclid+0x1a8>
    array_mod(qi_1,mod,size);
     794:	866e                	mv	a2,s11
     796:	85a6                	mv	a1,s1
     798:	855e                	mv	a0,s7
     79a:	3a71                	jal	136 <array_mod>
        res2 = polymult(qi_1, N + 1, ti_1, N + 1, mod, 0);
     79c:	4781                	li	a5,0
     79e:	8726                	mv	a4,s1
     7a0:	86ee                	mv	a3,s11
     7a2:	865a                	mv	a2,s6
     7a4:	85ee                	mv	a1,s11
     7a6:	855e                	mv	a0,s7
     7a8:	3c29                	jal	1c2 <polymult>
        for (i = 0; i < N + 1; ++i) {
     7aa:	4781                	li	a5,0
     7ac:	0cf95d63          	bge	s2,a5,886 <ext_euclid+0x1ba>
    array_mod(temp,mod,size);
     7b0:	866e                	mv	a2,s11
     7b2:	85a6                	mv	a1,s1
     7b4:	8552                	mv	a0,s4
     7b6:	3241                	jal	136 <array_mod>
        for (i = 0; i < N + 1; ++i) {
     7b8:	4781                	li	a5,0
     7ba:	4701                	li	a4,0
     7bc:	0ce95e63          	bge	s2,a4,898 <ext_euclid+0x1cc>
//            while (ti[i] < 0) {
//                ti[i] = ti[i] + mod;
//            }
//            ti[i] = ti[i] % mod;
//        }
    array_mod(ti,mod,size);
     7c0:	866e                	mv	a2,s11
     7c2:	85a6                	mv	a1,s1
     7c4:	8566                	mv	a0,s9
     7c6:	3a85                	jal	136 <array_mod>

/// ri_2 = ri_1; ri_1 = ri; ti_2 = ti_1; ti_1 = ti; ///


        for (i = 0; i < N + 1; ++i) {
     7c8:	4781                	li	a5,0
        controlR = 0;
     7ca:	4701                	li	a4,0
        for (i = 0; i < N + 1; ++i) {
     7cc:	4681                	li	a3,0
     7ce:	0ed95263          	bge	s2,a3,8b2 <ext_euclid+0x1e6>
    while (controlR != 0) {
     7d2:	ff25                	bnez	a4,74a <ext_euclid+0x7e>
            controlR += ri[i];
        }
    }


        for (j = 0; j < mod; ++j) {
     7d4:	4781                	li	a5,0
            if (((ri_2[0] * j) % mod) == 1)
     7d6:	4605                	li	a2,1
        for (j = 0; j < mod; ++j) {
     7d8:	1097cb63          	blt	a5,s1,8ee <ext_euclid+0x222>
     7dc:	00001617          	auipc	a2,0x1
     7e0:	17c60613          	addi	a2,a2,380 # 1958 <ti_2>
            if (ri_2[i] != 0)
                //	printf("**** GCD of SECRET POL and POLYR is not 1 !! OPERATION INVALID!! PICK ANOTHER RANDOM VALUE !! *****\n");
                break;
        }

        for (i = 0; i < N + 1; ++i) {
     7e4:	10e95f63          	bge	s2,a4,902 <ext_euclid+0x236>
        }


        return_address4 = &ti_2[0];
        return return_address4;
    }
     7e8:	fb040113          	addi	sp,s0,-80
     7ec:	40b6                	lw	ra,76(sp)
     7ee:	4426                	lw	s0,72(sp)
     7f0:	4496                	lw	s1,68(sp)
     7f2:	4906                	lw	s2,64(sp)
     7f4:	59f2                	lw	s3,60(sp)
     7f6:	5a62                	lw	s4,56(sp)
     7f8:	5ad2                	lw	s5,52(sp)
     7fa:	5b42                	lw	s6,48(sp)
     7fc:	5bb2                	lw	s7,44(sp)
     7fe:	5c22                	lw	s8,40(sp)
     800:	5c92                	lw	s9,36(sp)
     802:	5d02                	lw	s10,32(sp)
     804:	4df2                	lw	s11,28(sp)
     806:	00001517          	auipc	a0,0x1
     80a:	15250513          	addi	a0,a0,338 # 1958 <ti_2>
     80e:	6161                	addi	sp,sp,80
     810:	8082                	ret
        ri_2[i] = polyR[i];
     812:	00f508b3          	add	a7,a0,a5
     816:	0008a883          	lw	a7,0(a7)
     81a:	00f98633          	add	a2,s3,a5
    for (i = 0; i < size; ++i) {
     81e:	0705                	addi	a4,a4,1
        ri_2[i] = polyR[i];
     820:	01162023          	sw	a7,0(a2)
        ri_1[i] = polyf[i];
     824:	00f588b3          	add	a7,a1,a5
     828:	0008a883          	lw	a7,0(a7)
     82c:	00fa8633          	add	a2,s5,a5
     830:	01162023          	sw	a7,0(a2)
        ti_2[i] = 0;
     834:	00f68633          	add	a2,a3,a5
     838:	00062023          	sw	zero,0(a2)
        ti_1[i] = 0;
     83c:	00fb0633          	add	a2,s6,a5
     840:	00062023          	sw	zero,0(a2)
    for (i = 0; i < size; ++i) {
     844:	0791                	addi	a5,a5,4
     846:	b5ed                	j	730 <ext_euclid+0x64>
            ri[i - (N + 1)] = res[i];
     848:	00279693          	slli	a3,a5,0x2
     84c:	96aa                	add	a3,a3,a0
     84e:	4294                	lw	a3,0(a3)
        for (i = N + 1; i < (2 * N + 2); ++i) {
     850:	0785                	addi	a5,a5,1
     852:	0711                	addi	a4,a4,4
            ri[i - (N + 1)] = res[i];
     854:	fed72e23          	sw	a3,-4(a4)
        for (i = N + 1; i < (2 * N + 2); ++i) {
     858:	bf09                	j	76a <ext_euclid+0x9e>
            temp[i] = ri_2[i] - ri[i];
     85a:	00f986b3          	add	a3,s3,a5
     85e:	00fc05b3          	add	a1,s8,a5
     862:	4294                	lw	a3,0(a3)
     864:	418c                	lw	a1,0(a1)
     866:	00fa0633          	add	a2,s4,a5
        for (i = 0; i < N + 1; ++i) {
     86a:	0705                	addi	a4,a4,1
            temp[i] = ri_2[i] - ri[i];
     86c:	8e8d                	sub	a3,a3,a1
     86e:	c214                	sw	a3,0(a2)
        for (i = 0; i < N + 1; ++i) {
     870:	0791                	addi	a5,a5,4
     872:	b711                	j	776 <ext_euclid+0xaa>
            qi_1[i] = res1[i];
     874:	00279713          	slli	a4,a5,0x2
     878:	00e506b3          	add	a3,a0,a4
     87c:	4294                	lw	a3,0(a3)
     87e:	975e                	add	a4,a4,s7
        for (i = 0; i < N + 1; ++i) {
     880:	0785                	addi	a5,a5,1
            qi_1[i] = res1[i];
     882:	c314                	sw	a3,0(a4)
        for (i = 0; i < N + 1; ++i) {
     884:	b731                	j	790 <ext_euclid+0xc4>
            temp[i] = res2[i];
     886:	00279713          	slli	a4,a5,0x2
     88a:	00e506b3          	add	a3,a0,a4
     88e:	4294                	lw	a3,0(a3)
     890:	9752                	add	a4,a4,s4
        for (i = 0; i < N + 1; ++i) {
     892:	0785                	addi	a5,a5,1
            temp[i] = res2[i];
     894:	c314                	sw	a3,0(a4)
        for (i = 0; i < N + 1; ++i) {
     896:	bf19                	j	7ac <ext_euclid+0xe0>
            ti[i] = ti_2[i] - temp[i];
     898:	00fd06b3          	add	a3,s10,a5
     89c:	00fa05b3          	add	a1,s4,a5
     8a0:	4294                	lw	a3,0(a3)
     8a2:	418c                	lw	a1,0(a1)
     8a4:	00fc8633          	add	a2,s9,a5
        for (i = 0; i < N + 1; ++i) {
     8a8:	0705                	addi	a4,a4,1
            ti[i] = ti_2[i] - temp[i];
     8aa:	8e8d                	sub	a3,a3,a1
     8ac:	c214                	sw	a3,0(a2)
        for (i = 0; i < N + 1; ++i) {
     8ae:	0791                	addi	a5,a5,4
     8b0:	b731                	j	7bc <ext_euclid+0xf0>
            ri_2[i] = ri_1[i];
     8b2:	00fa85b3          	add	a1,s5,a5
     8b6:	4188                	lw	a0,0(a1)
     8b8:	00f98633          	add	a2,s3,a5
        for (i = 0; i < N + 1; ++i) {
     8bc:	0685                	addi	a3,a3,1
            ri_2[i] = ri_1[i];
     8be:	c208                	sw	a0,0(a2)
            ri_1[i] = ri[i];
     8c0:	00fc0633          	add	a2,s8,a5
     8c4:	4210                	lw	a2,0(a2)
            ti_2[i] = ti_1[i];
     8c6:	00fd0533          	add	a0,s10,a5
            ri_1[i] = ri[i];
     8ca:	c190                	sw	a2,0(a1)
            ti_2[i] = ti_1[i];
     8cc:	00fb05b3          	add	a1,s6,a5
     8d0:	0005a883          	lw	a7,0(a1)
            controlR += ri[i];
     8d4:	9732                	add	a4,a4,a2
            ti_2[i] = ti_1[i];
     8d6:	01152023          	sw	a7,0(a0)
            ti_1[i] = ti[i];
     8da:	00fc8533          	add	a0,s9,a5
     8de:	4108                	lw	a0,0(a0)
     8e0:	c188                	sw	a0,0(a1)
              qi_1[i] = 0;
     8e2:	00fb85b3          	add	a1,s7,a5
     8e6:	0005a023          	sw	zero,0(a1)
        for (i = 0; i < N + 1; ++i) {
     8ea:	0791                	addi	a5,a5,4
     8ec:	b5cd                	j	7ce <ext_euclid+0x102>
            if (((ri_2[0] * j) % mod) == 1)
     8ee:	0009a683          	lw	a3,0(s3)
     8f2:	02d786b3          	mul	a3,a5,a3
     8f6:	0296e6b3          	rem	a3,a3,s1
     8fa:	eec681e3          	beq	a3,a2,7dc <ext_euclid+0x110>
        for (j = 0; j < mod; ++j) {
     8fe:	0785                	addi	a5,a5,1
     900:	bde1                	j	7d8 <ext_euclid+0x10c>
            ti_2[i] = (ti_2[i] * j) % mod;
     902:	4214                	lw	a3,0(a2)
        for (i = 0; i < N + 1; ++i) {
     904:	0705                	addi	a4,a4,1
     906:	0611                	addi	a2,a2,4
            ti_2[i] = (ti_2[i] * j) % mod;
     908:	02d786b3          	mul	a3,a5,a3
     90c:	0296e6b3          	rem	a3,a3,s1
     910:	fed62e23          	sw	a3,-4(a2)
        for (i = 0; i < N + 1; ++i) {
     914:	bdc1                	j	7e4 <ext_euclid+0x118>

00000916 <generate_keys>:




int* generate_keys(int N, int p, int q){
     916:	7101                	addi	sp,sp,-512
     918:	1e112e23          	sw	ra,508(sp)
     91c:	1e812c23          	sw	s0,504(sp)
     920:	1e912a23          	sw	s1,500(sp)
     924:	0400                	addi	s0,sp,512
     926:	1f212823          	sw	s2,496(sp)
     92a:	1f312623          	sw	s3,492(sp)
     92e:	1f412423          	sw	s4,488(sp)
     932:	1f512223          	sw	s5,484(sp)
     936:	1f612023          	sw	s6,480(sp)
     93a:	1d712e23          	sw	s7,476(sp)
     93e:	1d812c23          	sw	s8,472(sp)
     942:	1db12623          	sw	s11,460(sp)
     946:	1d912a23          	sw	s9,468(sp)
     94a:	1da12823          	sw	s10,464(sp)
    resultkon[0] = 0xaaaaaaa0;
     94e:	aaaab7b7          	lui	a5,0xaaaab
     952:	aa078793          	addi	a5,a5,-1376 # aaaaaaa0 <_stack_start+0xaaa9aaa0>
int* generate_keys(int N, int p, int q){
     956:	892a                	mv	s2,a0
     958:	8c2e                	mv	s8,a1
     95a:	8bb2                	mv	s7,a2
    int f[55] = {-1, 1, 1, 0, -1, 0, 1, 0, 0, 1, -1, -1, 0, 1, 0, -1, 0, 1, 1, 0, 0,  -1, 0, 1, 0, 0, 1, 1, 1,  -1, 0, 1, 0, 0, 1, 1, 1,    -1, 0, 1, 0, 0, 1, 1, 1};
     95c:	4581                	li	a1,0
     95e:	0d000613          	li	a2,208
    resultkon[0] = 0xaaaaaaa0;
     962:	00001a97          	auipc	s5,0x1
     966:	8eaa8a93          	addi	s5,s5,-1814 # 124c <_edata>
    int f[55] = {-1, 1, 1, 0, -1, 0, 1, 0, 0, 1, -1, -1, 0, 1, 0, -1, 0, 1, 1, 0, 0,  -1, 0, 1, 0, 0, 1, 1, 1,  -1, 0, 1, 0, 0, 1, 1, 1,    -1, 0, 1, 0, 0, 1, 1, 1};
     96a:	e1440513          	addi	a0,s0,-492
    resultkon[0] = 0xaaaaaaa0;
     96e:	00faa023          	sw	a5,0(s5)
    int f[55] = {-1, 1, 1, 0, -1, 0, 1, 0, 0, 1, -1, -1, 0, 1, 0, -1, 0, 1, 1, 0, 0,  -1, 0, 1, 0, 0, 1, 1, 1,  -1, 0, 1, 0, 0, 1, 1, 1,    -1, 0, 1, 0, 0, 1, 1, 1};
     972:	236d                	jal	f1c <memset>
     974:	4485                	li	s1,1
     976:	59fd                	li	s3,-1
    int g[55] = {-1, 0, 1, 1, 0, 1, 0, 0, -1, 0, -1, -1, 0, 1, 0, -1, 0, 1, 0, 0, 1, -1, 0, 1, 0, 0, 1, -1, 0, 1, 0, 0, 1, -1, 0, 1, 0, 1,   1, 0, 0, 1, -1, 0, 1, 0, 1};
     978:	0d800613          	li	a2,216
     97c:	4581                	li	a1,0
     97e:	ee840513          	addi	a0,s0,-280
    int f[55] = {-1, 1, 1, 0, -1, 0, 1, 0, 0, 1, -1, -1, 0, 1, 0, -1, 0, 1, 1, 0, 0,  -1, 0, 1, 0, 0, 1, 1, 1,  -1, 0, 1, 0, 0, 1, 1, 1,    -1, 0, 1, 0, 0, 1, 1, 1};
     982:	e1342423          	sw	s3,-504(s0)
     986:	e0942623          	sw	s1,-500(s0)
     98a:	e0942823          	sw	s1,-496(s0)
     98e:	e1342c23          	sw	s3,-488(s0)
     992:	e2942023          	sw	s1,-480(s0)
     996:	e2942623          	sw	s1,-468(s0)
     99a:	e3342823          	sw	s3,-464(s0)
     99e:	e3342a23          	sw	s3,-460(s0)
     9a2:	e2942e23          	sw	s1,-452(s0)
     9a6:	e5342223          	sw	s3,-444(s0)
     9aa:	e4942623          	sw	s1,-436(s0)
     9ae:	e4942823          	sw	s1,-432(s0)
     9b2:	e5342e23          	sw	s3,-420(s0)
     9b6:	e6942223          	sw	s1,-412(s0)
     9ba:	e6942823          	sw	s1,-400(s0)
     9be:	e6942a23          	sw	s1,-396(s0)
     9c2:	e6942c23          	sw	s1,-392(s0)
     9c6:	e7342e23          	sw	s3,-388(s0)
     9ca:	e8942223          	sw	s1,-380(s0)
     9ce:	e8942823          	sw	s1,-368(s0)
     9d2:	e8942a23          	sw	s1,-364(s0)
     9d6:	e8942c23          	sw	s1,-360(s0)
     9da:	e9342e23          	sw	s3,-356(s0)
     9de:	ea942223          	sw	s1,-348(s0)
     9e2:	ea942823          	sw	s1,-336(s0)
     9e6:	ea942a23          	sw	s1,-332(s0)
     9ea:	ea942c23          	sw	s1,-328(s0)

    int *fp;
    int *fq;
    int *fg;
    int *pk;
    int polyR[N+1];
     9ee:	00190b13          	addi	s6,s2,1
    int g[55] = {-1, 0, 1, 1, 0, 1, 0, 0, -1, 0, -1, -1, 0, 1, 0, -1, 0, 1, 0, 0, 1, -1, 0, 1, 0, 0, 1, -1, 0, 1, 0, 0, 1, -1, 0, 1, 0, 1,   1, 0, 0, 1, -1, 0, 1, 0, 1};
     9f2:	232d                	jal	f1c <memset>
    int polyR[N+1];
     9f4:	002b1793          	slli	a5,s6,0x2
     9f8:	07bd                	addi	a5,a5,15
     9fa:	9bc1                	andi	a5,a5,-16
     9fc:	40f10133          	sub	sp,sp,a5
     a00:	8a0a                	mv	s4,sp
    int i;
    int* return_address5;


    polyR[N] = 1;
     a02:	00291d93          	slli	s11,s2,0x2
     a06:	01ba07b3          	add	a5,s4,s11
     a0a:	c384                	sw	s1,0(a5)
    int g[55] = {-1, 0, 1, 1, 0, 1, 0, 0, -1, 0, -1, -1, 0, 1, 0, -1, 0, 1, 0, 0, 1, -1, 0, 1, 0, 0, 1, -1, 0, 1, 0, 0, 1, -1, 0, 1, 0, 1,   1, 0, 0, 1, -1, 0, 1, 0, 1};
     a0c:	ef342223          	sw	s3,-284(s0)
     a10:	ee942623          	sw	s1,-276(s0)
     a14:	ee942823          	sw	s1,-272(s0)
     a18:	ee942c23          	sw	s1,-264(s0)
     a1c:	f1342223          	sw	s3,-252(s0)
     a20:	f1342623          	sw	s3,-244(s0)
     a24:	f1342823          	sw	s3,-240(s0)
     a28:	f0942c23          	sw	s1,-232(s0)
     a2c:	f3342023          	sw	s3,-224(s0)
     a30:	f2942423          	sw	s1,-216(s0)
     a34:	f2942a23          	sw	s1,-204(s0)
     a38:	f3342c23          	sw	s3,-200(s0)
     a3c:	f4942023          	sw	s1,-192(s0)
     a40:	f4942623          	sw	s1,-180(s0)
     a44:	f5342823          	sw	s3,-176(s0)
     a48:	f4942c23          	sw	s1,-168(s0)
     a4c:	f6942223          	sw	s1,-156(s0)
     a50:	f7342423          	sw	s3,-152(s0)
     a54:	f6942823          	sw	s1,-144(s0)
     a58:	f6942c23          	sw	s1,-136(s0)
     a5c:	f6942e23          	sw	s1,-132(s0)
     a60:	f8942423          	sw	s1,-120(s0)
     a64:	f9342623          	sw	s3,-116(s0)
     a68:	f8942a23          	sw	s1,-108(s0)
     a6c:	f8942e23          	sw	s1,-100(s0)
    polyR[0] = -1;
     a70:	013a2023          	sw	s3,0(s4)

    for(i = 1; i < N; ++i){
     a74:	4785                	li	a5,1
     a76:	1127ca63          	blt	a5,s2,b8a <generate_keys+0x274>
     a7a:	87ca                	mv	a5,s2
        polyR[i] = 0;
    }



    for (i = N; i < 55; ++i ){
     a7c:	03600693          	li	a3,54
     a80:	10f6dc63          	bge	a3,a5,b98 <generate_keys+0x282>
        g[i] = 0;
    }
///// F VE G ARRAYLERİNİN SONLARI SIFIRLANDI //////


    for(i = 0; i < N; ++i){
     a84:	4781                	li	a5,0
        random_keys[i] = f[i];
     a86:	00001697          	auipc	a3,0x1
     a8a:	06268693          	addi	a3,a3,98 # 1ae8 <random_keys>
    for(i = 0; i < N; ++i){
     a8e:	1327c363          	blt	a5,s2,bb4 <generate_keys+0x29e>
     a92:	ee440713          	addi	a4,s0,-284
    }
    ////RANDOM_KEYS 0-52 ARASI F////

    for(i = N; i < (2*N); ++i){
     a96:	00191993          	slli	s3,s2,0x1
     a9a:	87ca                	mv	a5,s2
     a9c:	8cba                	mv	s9,a4
        random_keys[i] = g[i-N];
     a9e:	00001617          	auipc	a2,0x1
     aa2:	04a60613          	addi	a2,a2,74 # 1ae8 <random_keys>
    for(i = N; i < (2*N); ++i){
     aa6:	1337c263          	blt	a5,s3,bca <generate_keys+0x2b4>
    ////RANDOM_KEYS 53-105 ARASI G////

    fp = ext_euclid(polyR, f, (N+1), p);
    ////FP HESAPLANDI////

    for(i = (2*N); i < (3*N); ++i){
     aaa:	448d                	li	s1,3
     aac:	029904b3          	mul	s1,s2,s1
    fp = ext_euclid(polyR, f, (N+1), p);
     ab0:	86e2                	mv	a3,s8
     ab2:	865a                	mv	a2,s6
     ab4:	e0840593          	addi	a1,s0,-504
     ab8:	8552                	mv	a0,s4
     aba:	3909                	jal	6cc <ext_euclid>
    for(i = (2*N); i < (3*N); ++i){
     abc:	87ce                	mv	a5,s3
        random_keys[i] = fp[i-(2*N)];
     abe:	00001697          	auipc	a3,0x1
     ac2:	02a68693          	addi	a3,a3,42 # 1ae8 <random_keys>
    for(i = (2*N); i < (3*N); ++i){
     ac6:	1097ca63          	blt	a5,s1,bda <generate_keys+0x2c4>
    }
    ////RANDOM_KEYS 106-158 ARASI FP////


    fq = ext_euclid(polyR, f, (N+1), q);
     aca:	865a                	mv	a2,s6
     acc:	86de                	mv	a3,s7
     ace:	e0840593          	addi	a1,s0,-504
     ad2:	8552                	mv	a0,s4
     ad4:	3ee5                	jal	6cc <ext_euclid>
    ////FQ HESAPLANDI ////


    for(i = (3*N); i < (4*N); ++i){
     ad6:	5751                	li	a4,-12
     ad8:	02e90733          	mul	a4,s2,a4
     adc:	8d6e                	mv	s10,s11
        random_keys[i] = fq[i-(3*N)];
     ade:	00001617          	auipc	a2,0x1
     ae2:	00a60613          	addi	a2,a2,10 # 1ae8 <random_keys>
    for(i = (3*N); i < (4*N); ++i){
     ae6:	11b4c263          	blt	s1,s11,bea <generate_keys+0x2d4>
    }
    ////RANDOM KEYS 159-211 ARASI FQ ////

    fg = polymult2(fq, N, g, N, 0);
     aea:	4701                	li	a4,0
     aec:	85ca                	mv	a1,s2
     aee:	86ca                	mv	a3,s2
     af0:	8666                	mv	a2,s9
     af2:	3061                	jal	37a <polymult2>
    //// FG HESAPLANDI ////

    for(i = 0; i < (2*N-1); ++i){
     af4:	87aa                	mv	a5,a0
     af6:	4701                	li	a4,0
     af8:	fff98593          	addi	a1,s3,-1
     afc:	10b74163          	blt	a4,a1,bfe <generate_keys+0x2e8>
        fg[i] = fg[i]*p;
    }

    //// FG = 3FG ////

    pk = polydiv(fg, (2*N-1), polyR, (N+1), q);
     b00:	86da                	mv	a3,s6
     b02:	875e                	mv	a4,s7
     b04:	8652                	mv	a2,s4
     b06:	3ae9                	jal	4e0 <polydiv>

    ////PK HESAPLANDI////

    for(i = (4*N); i < (5*N); ++i){
     b08:	4795                	li	a5,5
     b0a:	02f907b3          	mul	a5,s2,a5
     b0e:	098a                	slli	s3,s3,0x2
     b10:	99aa                	add	s3,s3,a0
        random_keys[i] = pk[i-(4*N)+(2*N-1)];
     b12:	00001697          	auipc	a3,0x1
     b16:	fd668693          	addi	a3,a3,-42 # 1ae8 <random_keys>
    for(i = (4*N); i < (5*N); ++i){
     b1a:	0991                	addi	s3,s3,4
     b1c:	0efd4963          	blt	s10,a5,c0e <generate_keys+0x2f8>
    }
    //////// RANDOM KEYS SONU PK  ////////

    for(i = (5*N); i < (6*N+1); ++i){
     b20:	4699                	li	a3,6
     b22:	5531                	li	a0,-20
        random_keys[i] = polyR[i-(5*N)];
     b24:	00001617          	auipc	a2,0x1
     b28:	fc460613          	addi	a2,a2,-60 # 1ae8 <random_keys>
    for(i = (5*N); i < (6*N+1); ++i){
     b2c:	02d906b3          	mul	a3,s2,a3
     b30:	02a90933          	mul	s2,s2,a0
     b34:	0ef6d563          	bge	a3,a5,c1e <generate_keys+0x308>
    //////// RANDOM KEYS TAŞTI? ARRAY 300LÜK YERE SAHİP AMA 318'E KADAR DOLDURULUYOR? ///////


    return_address5 = &random_keys[0];

    resultkon[0] = 0xaaaaaaa1;
     b38:	aaaab7b7          	lui	a5,0xaaaab
     b3c:	aa178793          	addi	a5,a5,-1375 # aaaaaaa1 <_stack_start+0xaaa9aaa1>
     b40:	00faa023          	sw	a5,0(s5)

    return return_address5;
}
     b44:	e0040113          	addi	sp,s0,-512
     b48:	1fc12083          	lw	ra,508(sp)
     b4c:	1f812403          	lw	s0,504(sp)
     b50:	1f412483          	lw	s1,500(sp)
     b54:	1f012903          	lw	s2,496(sp)
     b58:	1ec12983          	lw	s3,492(sp)
     b5c:	1e812a03          	lw	s4,488(sp)
     b60:	1e412a83          	lw	s5,484(sp)
     b64:	1e012b03          	lw	s6,480(sp)
     b68:	1dc12b83          	lw	s7,476(sp)
     b6c:	1d812c03          	lw	s8,472(sp)
     b70:	1d412c83          	lw	s9,468(sp)
     b74:	1d012d03          	lw	s10,464(sp)
     b78:	1cc12d83          	lw	s11,460(sp)
     b7c:	00001517          	auipc	a0,0x1
     b80:	f6c50513          	addi	a0,a0,-148 # 1ae8 <random_keys>
     b84:	20010113          	addi	sp,sp,512
     b88:	8082                	ret
        polyR[i] = 0;
     b8a:	00279713          	slli	a4,a5,0x2
     b8e:	9752                	add	a4,a4,s4
     b90:	00072023          	sw	zero,0(a4)
    for(i = 1; i < N; ++i){
     b94:	0785                	addi	a5,a5,1
     b96:	b5c5                	j	a76 <generate_keys+0x160>
        f[i] = 0;
     b98:	00279713          	slli	a4,a5,0x2
     b9c:	e0840613          	addi	a2,s0,-504
     ba0:	963a                	add	a2,a2,a4
     ba2:	00062023          	sw	zero,0(a2)
        g[i] = 0;
     ba6:	ee440613          	addi	a2,s0,-284
     baa:	9732                	add	a4,a4,a2
     bac:	00072023          	sw	zero,0(a4)
    for (i = N; i < 55; ++i ){
     bb0:	0785                	addi	a5,a5,1
     bb2:	b5f9                	j	a80 <generate_keys+0x16a>
        random_keys[i] = f[i];
     bb4:	00279713          	slli	a4,a5,0x2
     bb8:	e0840593          	addi	a1,s0,-504
     bbc:	00e68633          	add	a2,a3,a4
     bc0:	972e                	add	a4,a4,a1
     bc2:	4318                	lw	a4,0(a4)
    for(i = 0; i < N; ++i){
     bc4:	0785                	addi	a5,a5,1
        random_keys[i] = f[i];
     bc6:	c218                	sw	a4,0(a2)
    for(i = 0; i < N; ++i){
     bc8:	b5d9                	j	a8e <generate_keys+0x178>
        random_keys[i] = g[i-N];
     bca:	430c                	lw	a1,0(a4)
     bcc:	00279693          	slli	a3,a5,0x2
     bd0:	96b2                	add	a3,a3,a2
     bd2:	c28c                	sw	a1,0(a3)
    for(i = N; i < (2*N); ++i){
     bd4:	0785                	addi	a5,a5,1
     bd6:	0711                	addi	a4,a4,4
     bd8:	b5f9                	j	aa6 <generate_keys+0x190>
        random_keys[i] = fp[i-(2*N)];
     bda:	4110                	lw	a2,0(a0)
     bdc:	00279713          	slli	a4,a5,0x2
     be0:	9736                	add	a4,a4,a3
     be2:	c310                	sw	a2,0(a4)
    for(i = (2*N); i < (3*N); ++i){
     be4:	0785                	addi	a5,a5,1
     be6:	0511                	addi	a0,a0,4
     be8:	bdf9                	j	ac6 <generate_keys+0x1b0>
        random_keys[i] = fq[i-(3*N)];
     bea:	00249793          	slli	a5,s1,0x2
     bee:	00f706b3          	add	a3,a4,a5
     bf2:	96aa                	add	a3,a3,a0
     bf4:	4294                	lw	a3,0(a3)
     bf6:	97b2                	add	a5,a5,a2
    for(i = (3*N); i < (4*N); ++i){
     bf8:	0485                	addi	s1,s1,1
        random_keys[i] = fq[i-(3*N)];
     bfa:	c394                	sw	a3,0(a5)
    for(i = (3*N); i < (4*N); ++i){
     bfc:	b5ed                	j	ae6 <generate_keys+0x1d0>
        fg[i] = fg[i]*p;
     bfe:	4394                	lw	a3,0(a5)
    for(i = 0; i < (2*N-1); ++i){
     c00:	0705                	addi	a4,a4,1
     c02:	0791                	addi	a5,a5,4
        fg[i] = fg[i]*p;
     c04:	038686b3          	mul	a3,a3,s8
     c08:	fed7ae23          	sw	a3,-4(a5)
    for(i = 0; i < (2*N-1); ++i){
     c0c:	bdc5                	j	afc <generate_keys+0x1e6>
        random_keys[i] = pk[i-(4*N)+(2*N-1)];
     c0e:	ff89a603          	lw	a2,-8(s3)
     c12:	002d1713          	slli	a4,s10,0x2
     c16:	9736                	add	a4,a4,a3
     c18:	c310                	sw	a2,0(a4)
    for(i = (4*N); i < (5*N); ++i){
     c1a:	0d05                	addi	s10,s10,1
     c1c:	bdfd                	j	b1a <generate_keys+0x204>
        random_keys[i] = polyR[i-(5*N)];
     c1e:	00279713          	slli	a4,a5,0x2
     c22:	00e605b3          	add	a1,a2,a4
     c26:	974a                	add	a4,a4,s2
     c28:	9752                	add	a4,a4,s4
     c2a:	4318                	lw	a4,0(a4)
    for(i = (5*N); i < (6*N+1); ++i){
     c2c:	0785                	addi	a5,a5,1
        random_keys[i] = polyR[i-(5*N)];
     c2e:	c198                	sw	a4,0(a1)
    for(i = (5*N); i < (6*N+1); ++i){
     c30:	b711                	j	b34 <generate_keys+0x21e>

00000c32 <ntru_encyrpt>:


int* ntru_encyrpt(int N, int q, int* message, int* public_key, int* polyR){
     c32:	7115                	addi	sp,sp,-224
    resultkon[0] = 0xbbbbbbb0;
     c34:	bbbbc7b7          	lui	a5,0xbbbbc
     c38:	bb078793          	addi	a5,a5,-1104 # bbbbbbb0 <_stack_start+0xbbbabbb0>
int* ntru_encyrpt(int N, int q, int* message, int* public_key, int* polyR){
     c3c:	cda2                	sw	s0,216(sp)
     c3e:	cba6                	sw	s1,212(sp)
     c40:	842a                	mv	s0,a0
     c42:	84b2                	mv	s1,a2
     c44:	c9ca                	sw	s2,208(sp)
     c46:	c7ce                	sw	s3,204(sp)
    int *return_address6;
    int *CT;

    int random_val[48] = { 1, -1, 0, 1, -1, 1, -1, 0,1, 1, 0, -1, 1, -1, 1, 0,1, 1, 0, -1, 1, -1, 1, 0,1, 1, 0, 1, -1, 1, -1, 0, 1, -1, 0, 1, -1, 1, -1, 0,1, 1, 0, -1, 1, -1, 1, 0};
     c48:	0c000613          	li	a2,192
int* ntru_encyrpt(int N, int q, int* message, int* public_key, int* polyR){
     c4c:	89ae                	mv	s3,a1
    resultkon[0] = 0xbbbbbbb0;
     c4e:	00000917          	auipc	s2,0x0
     c52:	5fe90913          	addi	s2,s2,1534 # 124c <_edata>
    int random_val[48] = { 1, -1, 0, 1, -1, 1, -1, 0,1, 1, 0, -1, 1, -1, 1, 0,1, 1, 0, -1, 1, -1, 1, 0,1, 1, 0, 1, -1, 1, -1, 0, 1, -1, 0, 1, -1, 1, -1, 0,1, 1, 0, -1, 1, -1, 1, 0};
     c56:	00000597          	auipc	a1,0x0
     c5a:	47658593          	addi	a1,a1,1142 # 10cc <__DTOR_END__>
     c5e:	850a                	mv	a0,sp
int* ntru_encyrpt(int N, int q, int* message, int* public_key, int* polyR){
     c60:	cf86                	sw	ra,220(sp)
     c62:	c5d2                	sw	s4,200(sp)
     c64:	c3d6                	sw	s5,196(sp)
     c66:	8a36                	mv	s4,a3
     c68:	8aba                	mv	s5,a4
    resultkon[0] = 0xbbbbbbb0;
     c6a:	00f92023          	sw	a5,0(s2)
    int random_val[48] = { 1, -1, 0, 1, -1, 1, -1, 0,1, 1, 0, -1, 1, -1, 1, 0,1, 1, 0, -1, 1, -1, 1, 0,1, 1, 0, 1, -1, 1, -1, 0, 1, -1, 0, 1, -1, 1, -1, 0,1, 1, 0, -1, 1, -1, 1, 0};
     c6e:	2ac1                	jal	e3e <memcpy>
    int *temp;
    int i;


    temp = polymult(public_key,N,random_val,48,q,0);
     c70:	4781                	li	a5,0
     c72:	874e                	mv	a4,s3
     c74:	03000693          	li	a3,48
     c78:	85a2                	mv	a1,s0
     c7a:	860a                	mv	a2,sp
     c7c:	8552                	mv	a0,s4
     c7e:	d44ff0ef          	jal	ra,1c2 <polymult>
    /////// PUBLIC_KEY*RANDOM_VALUE ///////
//
//    for(i = 0; i < 48; ++i){
//        temp[i] = temp[i] + message[i];
//    }
array_add(temp,message,48);
     c82:	85a6                	mv	a1,s1
     c84:	03000613          	li	a2,48
    temp = polymult(public_key,N,random_val,48,q,0);
     c88:	8a2a                	mv	s4,a0
    ////// PUBLIC_KEY*RANDOM_VALUE + MESSAGE ///////

    CT = polydiv(temp,(2*N),polyR,(N+1),q);
     c8a:	00141493          	slli	s1,s0,0x1
array_add(temp,message,48);
     c8e:	c04ff0ef          	jal	ra,92 <array_add>
    CT = polydiv(temp,(2*N),polyR,(N+1),q);
     c92:	00140693          	addi	a3,s0,1
     c96:	874e                	mv	a4,s3
     c98:	8656                	mv	a2,s5
     c9a:	85a6                	mv	a1,s1
     c9c:	8552                	mv	a0,s4
     c9e:	3089                	jal	4e0 <polydiv>

    for(i = (2*N); i < (3*N); ++i){
     ca0:	478d                	li	a5,3
     ca2:	02f40433          	mul	s0,s0,a5
     ca6:	87aa                	mv	a5,a0
     ca8:	0284c163          	blt	s1,s0,cca <ntru_encyrpt+0x98>


    return_address6 = &CT[0];
    resultkon[0] = 0xbbbbbbb1;
    return return_address6;
}
     cac:	40fe                	lw	ra,220(sp)
     cae:	446e                	lw	s0,216(sp)
    resultkon[0] = 0xbbbbbbb1;
     cb0:	bbbbc7b7          	lui	a5,0xbbbbc
     cb4:	bb178793          	addi	a5,a5,-1103 # bbbbbbb1 <_stack_start+0xbbbabbb1>
     cb8:	00f92023          	sw	a5,0(s2)
}
     cbc:	44de                	lw	s1,212(sp)
     cbe:	494e                	lw	s2,208(sp)
     cc0:	49be                	lw	s3,204(sp)
     cc2:	4a2e                	lw	s4,200(sp)
     cc4:	4a9e                	lw	s5,196(sp)
     cc6:	612d                	addi	sp,sp,224
     cc8:	8082                	ret
        CT[i-(2*N)] = CT[i];
     cca:	00249713          	slli	a4,s1,0x2
     cce:	972a                	add	a4,a4,a0
     cd0:	4318                	lw	a4,0(a4)
    for(i = (2*N); i < (3*N); ++i){
     cd2:	0485                	addi	s1,s1,1
     cd4:	0791                	addi	a5,a5,4
        CT[i-(2*N)] = CT[i];
     cd6:	fee7ae23          	sw	a4,-4(a5)
    for(i = (2*N); i < (3*N); ++i){
     cda:	b7f9                	j	ca8 <ntru_encyrpt+0x76>

00000cdc <ntru_deceypt>:


int* ntru_deceypt(int N, int p, int q, int* secret_key_f, int* secret_key_fp, int* Enc_Message, int* polyR){
     cdc:	7179                	addi	sp,sp,-48
     cde:	d422                	sw	s0,40(sp)
     ce0:	cc52                	sw	s4,24(sp)
     ce2:	842a                	mv	s0,a0


    a2 = polydiv(a,(2*N),polyR,(N+1),q);
/////////// Vector a2 (f.e modq) /////////

    for(i = (2*N); i < ((2*N)+N); ++i){
     ce4:	4a0d                	li	s4,3
     ce6:	03440a33          	mul	s4,s0,s4
int* ntru_deceypt(int N, int p, int q, int* secret_key_f, int* secret_key_fp, int* Enc_Message, int* polyR){
     cea:	c462                	sw	s8,8(sp)
     cec:	8c3a                	mv	s8,a4
    resultkon[0] = 0xccccccc0;
     cee:	ccccd737          	lui	a4,0xccccd
int* ntru_deceypt(int N, int p, int q, int* secret_key_f, int* secret_key_fp, int* Enc_Message, int* polyR){
     cf2:	ce4e                	sw	s3,28(sp)
    resultkon[0] = 0xccccccc0;
     cf4:	cc070713          	addi	a4,a4,-832 # ccccccc0 <_stack_start+0xcccbccc0>
     cf8:	00000997          	auipc	s3,0x0
     cfc:	55498993          	addi	s3,s3,1364 # 124c <_edata>
int* ntru_deceypt(int N, int p, int q, int* secret_key_f, int* secret_key_fp, int* Enc_Message, int* polyR){
     d00:	d04a                	sw	s2,32(sp)
     d02:	c85a                	sw	s6,16(sp)
     d04:	8932                	mv	s2,a2
     d06:	8536                	mv	a0,a3
    a = polymult2(secret_key_f,N,Enc_Message,N,0);
     d08:	863e                	mv	a2,a5
    resultkon[0] = 0xccccccc0;
     d0a:	00e9a023          	sw	a4,0(s3)
    a = polymult2(secret_key_f,N,Enc_Message,N,0);
     d0e:	86a2                	mv	a3,s0
     d10:	4701                	li	a4,0
int* ntru_deceypt(int N, int p, int q, int* secret_key_f, int* secret_key_fp, int* Enc_Message, int* polyR){
     d12:	8b2e                	mv	s6,a1
    a = polymult2(secret_key_f,N,Enc_Message,N,0);
     d14:	85a2                	mv	a1,s0
int* ntru_deceypt(int N, int p, int q, int* secret_key_f, int* secret_key_fp, int* Enc_Message, int* polyR){
     d16:	d606                	sw	ra,44(sp)
     d18:	d226                	sw	s1,36(sp)
     d1a:	ca56                	sw	s5,20(sp)
     d1c:	c65e                	sw	s7,12(sp)
     d1e:	8ac2                	mv	s5,a6
    a2 = polydiv(a,(2*N),polyR,(N+1),q);
     d20:	00141493          	slli	s1,s0,0x1
    a = polymult2(secret_key_f,N,Enc_Message,N,0);
     d24:	e56ff0ef          	jal	ra,37a <polymult2>
    a2 = polydiv(a,(2*N),polyR,(N+1),q);
     d28:	00140b93          	addi	s7,s0,1
     d2c:	874a                	mv	a4,s2
     d2e:	86de                	mv	a3,s7
     d30:	8656                	mv	a2,s5
     d32:	85a6                	mv	a1,s1
     d34:	facff0ef          	jal	ra,4e0 <polydiv>
     d38:	862a                	mv	a2,a0
    for(i = (2*N); i < ((2*N)+N); ++i){
     d3a:	87aa                	mv	a5,a0
     d3c:	872a                	mv	a4,a0
     d3e:	86a6                	mv	a3,s1
     d40:	0546c963          	blt	a3,s4,d92 <ntru_deceypt+0xb6>
        a2[i-(2*N)] = a2[i];
    }

    //centerlifting a2
    for (i = 0; i < N; ++i){
        if(a2[i] <= q/2)
     d44:	4589                	li	a1,2
     d46:	02b945b3          	div	a1,s2,a1
    for (i = 0; i < N; ++i){
     d4a:	4701                	li	a4,0
     d4c:	04874c63          	blt	a4,s0,da4 <ntru_deceypt+0xc8>
        else
            a2[i] = (-1)*(q-a2[i]);
    }


    c = polymult2(secret_key_fp,N,a2,N,0);
     d50:	4701                	li	a4,0
     d52:	86a2                	mv	a3,s0
     d54:	85a2                	mv	a1,s0
     d56:	8562                	mv	a0,s8
     d58:	e22ff0ef          	jal	ra,37a <polymult2>
/////////"Vector c(fp*a2)//////////


    c2 = polydiv(c,(2*N),polyR,(N+1),p);
     d5c:	875a                	mv	a4,s6
     d5e:	86de                	mv	a3,s7
     d60:	8656                	mv	a2,s5
     d62:	85a6                	mv	a1,s1
     d64:	f7cff0ef          	jal	ra,4e0 <polydiv>
    for(i = (2*N); i < ((2*N)+N); ++i){
     d68:	87aa                	mv	a5,a0
     d6a:	0544c663          	blt	s1,s4,db6 <ntru_deceypt+0xda>
    ////////"Vector c2 (decrypted message)/////////

    return_address7 = &c2[0];
    resultkon[0] = 0xccccccc1;
    return return_address7;
}
     d6e:	50b2                	lw	ra,44(sp)
     d70:	5422                	lw	s0,40(sp)
    resultkon[0] = 0xccccccc1;
     d72:	ccccd7b7          	lui	a5,0xccccd
     d76:	cc178793          	addi	a5,a5,-831 # ccccccc1 <_stack_start+0xcccbccc1>
     d7a:	00f9a023          	sw	a5,0(s3)
}
     d7e:	5492                	lw	s1,36(sp)
     d80:	5902                	lw	s2,32(sp)
     d82:	49f2                	lw	s3,28(sp)
     d84:	4a62                	lw	s4,24(sp)
     d86:	4ad2                	lw	s5,20(sp)
     d88:	4b42                	lw	s6,16(sp)
     d8a:	4bb2                	lw	s7,12(sp)
     d8c:	4c22                	lw	s8,8(sp)
     d8e:	6145                	addi	sp,sp,48
     d90:	8082                	ret
        a2[i-(2*N)] = a2[i];
     d92:	00269593          	slli	a1,a3,0x2
     d96:	95b2                	add	a1,a1,a2
     d98:	418c                	lw	a1,0(a1)
    for(i = (2*N); i < ((2*N)+N); ++i){
     d9a:	0685                	addi	a3,a3,1
     d9c:	0711                	addi	a4,a4,4
        a2[i-(2*N)] = a2[i];
     d9e:	feb72e23          	sw	a1,-4(a4)
    for(i = (2*N); i < ((2*N)+N); ++i){
     da2:	bf79                	j	d40 <ntru_deceypt+0x64>
        if(a2[i] <= q/2)
     da4:	4394                	lw	a3,0(a5)
     da6:	00d5d563          	bge	a1,a3,db0 <ntru_deceypt+0xd4>
            a2[i] = (-1)*(q-a2[i]);
     daa:	412686b3          	sub	a3,a3,s2
     dae:	c394                	sw	a3,0(a5)
    for (i = 0; i < N; ++i){
     db0:	0705                	addi	a4,a4,1
     db2:	0791                	addi	a5,a5,4
     db4:	bf61                	j	d4c <ntru_deceypt+0x70>
        c2[i-(2*N)] = c2[i];
     db6:	00249713          	slli	a4,s1,0x2
     dba:	972a                	add	a4,a4,a0
     dbc:	4318                	lw	a4,0(a4)
    for(i = (2*N); i < ((2*N)+N); ++i){
     dbe:	0485                	addi	s1,s1,1
     dc0:	0791                	addi	a5,a5,4
        c2[i-(2*N)] = c2[i];
     dc2:	fee7ae23          	sw	a4,-4(a5)
    for(i = (2*N); i < ((2*N)+N); ++i){
     dc6:	b755                	j	d6a <ntru_deceypt+0x8e>

00000dc8 <default_exc_handler>:
  jal x0, default_exc_handler
     dc8:	0000006f          	j	dc8 <default_exc_handler>

00000dcc <reset_handler>:
  mv  x1, x0
     dcc:	00000093          	li	ra,0
  mv  x2, x1
     dd0:	8106                	mv	sp,ra
  mv  x3, x1
     dd2:	8186                	mv	gp,ra
  mv  x4, x1
     dd4:	8206                	mv	tp,ra
  mv  x5, x1
     dd6:	8286                	mv	t0,ra
  mv  x6, x1
     dd8:	8306                	mv	t1,ra
  mv  x7, x1
     dda:	8386                	mv	t2,ra
  mv  x8, x1
     ddc:	8406                	mv	s0,ra
  mv  x9, x1
     dde:	8486                	mv	s1,ra
  mv x10, x1
     de0:	8506                	mv	a0,ra
  mv x11, x1
     de2:	8586                	mv	a1,ra
  mv x12, x1
     de4:	8606                	mv	a2,ra
  mv x13, x1
     de6:	8686                	mv	a3,ra
  mv x14, x1
     de8:	8706                	mv	a4,ra
  mv x15, x1
     dea:	8786                	mv	a5,ra
  mv x16, x1
     dec:	8806                	mv	a6,ra
  mv x17, x1
     dee:	8886                	mv	a7,ra
  mv x18, x1
     df0:	8906                	mv	s2,ra
  mv x19, x1
     df2:	8986                	mv	s3,ra
  mv x20, x1
     df4:	8a06                	mv	s4,ra
  mv x21, x1
     df6:	8a86                	mv	s5,ra
  mv x22, x1
     df8:	8b06                	mv	s6,ra
  mv x23, x1
     dfa:	8b86                	mv	s7,ra
  mv x24, x1
     dfc:	8c06                	mv	s8,ra
  mv x25, x1
     dfe:	8c86                	mv	s9,ra
  mv x26, x1
     e00:	8d06                	mv	s10,ra
  mv x27, x1
     e02:	8d86                	mv	s11,ra
  mv x28, x1
     e04:	8e06                	mv	t3,ra
  mv x29, x1
     e06:	8e86                	mv	t4,ra
  mv x30, x1
     e08:	8f06                	mv	t5,ra
  mv x31, x1
     e0a:	8f86                	mv	t6,ra
  la   x2, _stack_start
     e0c:	0000f117          	auipc	sp,0xf
     e10:	1f410113          	addi	sp,sp,500 # 10000 <_stack_start>

00000e14 <_start>:
  la x26, _bss_start
     e14:	00000d17          	auipc	s10,0x0
     e18:	43cd0d13          	addi	s10,s10,1084 # 1250 <_bss_start>
  la x27, _bss_end
     e1c:	00001d97          	auipc	s11,0x1
     e20:	1c4d8d93          	addi	s11,s11,452 # 1fe0 <_bss_end>
  bge x26, x27, zero_loop_end
     e24:	01bd5763          	bge	s10,s11,e32 <main_entry>

00000e28 <zero_loop>:
  sw x0, 0(x26)
     e28:	000d2023          	sw	zero,0(s10)
  addi x26, x26, 4
     e2c:	0d11                	addi	s10,s10,4
  ble x26, x27, zero_loop
     e2e:	ffaddde3          	bge	s11,s10,e28 <zero_loop>

00000e32 <main_entry>:
  addi x10, x0, 0
     e32:	00000513          	li	a0,0
  addi x11, x0, 0
     e36:	00000593          	li	a1,0
  jal x1, main
     e3a:	18a000ef          	jal	ra,fc4 <main>

00000e3e <memcpy>:
     e3e:	00a5c7b3          	xor	a5,a1,a0
     e42:	8b8d                	andi	a5,a5,3
     e44:	00c508b3          	add	a7,a0,a2
     e48:	e7a1                	bnez	a5,e90 <memcpy+0x52>
     e4a:	478d                	li	a5,3
     e4c:	04c7f263          	bgeu	a5,a2,e90 <memcpy+0x52>
     e50:	00357793          	andi	a5,a0,3
     e54:	872a                	mv	a4,a0
     e56:	eba9                	bnez	a5,ea8 <memcpy+0x6a>
     e58:	ffc8f613          	andi	a2,a7,-4
     e5c:	fe060793          	addi	a5,a2,-32
     e60:	06f76763          	bltu	a4,a5,ece <memcpy+0x90>
     e64:	02c77363          	bgeu	a4,a2,e8a <memcpy+0x4c>
     e68:	86ae                	mv	a3,a1
     e6a:	87ba                	mv	a5,a4
     e6c:	0006a803          	lw	a6,0(a3)
     e70:	0791                	addi	a5,a5,4
     e72:	0691                	addi	a3,a3,4
     e74:	ff07ae23          	sw	a6,-4(a5)
     e78:	fec7eae3          	bltu	a5,a2,e6c <memcpy+0x2e>
     e7c:	fff60793          	addi	a5,a2,-1
     e80:	8f99                	sub	a5,a5,a4
     e82:	9bf1                	andi	a5,a5,-4
     e84:	0791                	addi	a5,a5,4
     e86:	973e                	add	a4,a4,a5
     e88:	95be                	add	a1,a1,a5
     e8a:	01176663          	bltu	a4,a7,e96 <memcpy+0x58>
     e8e:	8082                	ret
     e90:	872a                	mv	a4,a0
     e92:	ff157ee3          	bgeu	a0,a7,e8e <memcpy+0x50>
     e96:	0005c783          	lbu	a5,0(a1)
     e9a:	0705                	addi	a4,a4,1
     e9c:	0585                	addi	a1,a1,1
     e9e:	fef70fa3          	sb	a5,-1(a4)
     ea2:	ff176ae3          	bltu	a4,a7,e96 <memcpy+0x58>
     ea6:	8082                	ret
     ea8:	0005c683          	lbu	a3,0(a1)
     eac:	0705                	addi	a4,a4,1
     eae:	00377793          	andi	a5,a4,3
     eb2:	fed70fa3          	sb	a3,-1(a4)
     eb6:	0585                	addi	a1,a1,1
     eb8:	d3c5                	beqz	a5,e58 <memcpy+0x1a>
     eba:	0005c683          	lbu	a3,0(a1)
     ebe:	0705                	addi	a4,a4,1
     ec0:	00377793          	andi	a5,a4,3
     ec4:	fed70fa3          	sb	a3,-1(a4)
     ec8:	0585                	addi	a1,a1,1
     eca:	fff9                	bnez	a5,ea8 <memcpy+0x6a>
     ecc:	b771                	j	e58 <memcpy+0x1a>
     ece:	41d4                	lw	a3,4(a1)
     ed0:	0005a283          	lw	t0,0(a1)
     ed4:	0085af83          	lw	t6,8(a1)
     ed8:	00c5af03          	lw	t5,12(a1)
     edc:	0105ae83          	lw	t4,16(a1)
     ee0:	0145ae03          	lw	t3,20(a1)
     ee4:	0185a303          	lw	t1,24(a1)
     ee8:	01c5a803          	lw	a6,28(a1)
     eec:	c354                	sw	a3,4(a4)
     eee:	5194                	lw	a3,32(a1)
     ef0:	00572023          	sw	t0,0(a4)
     ef4:	01f72423          	sw	t6,8(a4)
     ef8:	01e72623          	sw	t5,12(a4)
     efc:	01d72823          	sw	t4,16(a4)
     f00:	01c72a23          	sw	t3,20(a4)
     f04:	00672c23          	sw	t1,24(a4)
     f08:	01072e23          	sw	a6,28(a4)
     f0c:	d314                	sw	a3,32(a4)
     f0e:	02470713          	addi	a4,a4,36
     f12:	02458593          	addi	a1,a1,36
     f16:	faf76ce3          	bltu	a4,a5,ece <memcpy+0x90>
     f1a:	b7a9                	j	e64 <memcpy+0x26>

00000f1c <memset>:
     f1c:	433d                	li	t1,15
     f1e:	872a                	mv	a4,a0
     f20:	02c37363          	bgeu	t1,a2,f46 <memset+0x2a>
     f24:	00f77793          	andi	a5,a4,15
     f28:	efbd                	bnez	a5,fa6 <memset+0x8a>
     f2a:	e5ad                	bnez	a1,f94 <memset+0x78>
     f2c:	ff067693          	andi	a3,a2,-16
     f30:	8a3d                	andi	a2,a2,15
     f32:	96ba                	add	a3,a3,a4
     f34:	c30c                	sw	a1,0(a4)
     f36:	c34c                	sw	a1,4(a4)
     f38:	c70c                	sw	a1,8(a4)
     f3a:	c74c                	sw	a1,12(a4)
     f3c:	0741                	addi	a4,a4,16
     f3e:	fed76be3          	bltu	a4,a3,f34 <memset+0x18>
     f42:	e211                	bnez	a2,f46 <memset+0x2a>
     f44:	8082                	ret
     f46:	40c306b3          	sub	a3,t1,a2
     f4a:	068a                	slli	a3,a3,0x2
     f4c:	00000297          	auipc	t0,0x0
     f50:	9696                	add	a3,a3,t0
     f52:	00a68067          	jr	10(a3)
     f56:	00b70723          	sb	a1,14(a4)
     f5a:	00b706a3          	sb	a1,13(a4)
     f5e:	00b70623          	sb	a1,12(a4)
     f62:	00b705a3          	sb	a1,11(a4)
     f66:	00b70523          	sb	a1,10(a4)
     f6a:	00b704a3          	sb	a1,9(a4)
     f6e:	00b70423          	sb	a1,8(a4)
     f72:	00b703a3          	sb	a1,7(a4)
     f76:	00b70323          	sb	a1,6(a4)
     f7a:	00b702a3          	sb	a1,5(a4)
     f7e:	00b70223          	sb	a1,4(a4)
     f82:	00b701a3          	sb	a1,3(a4)
     f86:	00b70123          	sb	a1,2(a4)
     f8a:	00b700a3          	sb	a1,1(a4)
     f8e:	00b70023          	sb	a1,0(a4)
     f92:	8082                	ret
     f94:	0ff5f593          	andi	a1,a1,255
     f98:	00859693          	slli	a3,a1,0x8
     f9c:	8dd5                	or	a1,a1,a3
     f9e:	01059693          	slli	a3,a1,0x10
     fa2:	8dd5                	or	a1,a1,a3
     fa4:	b761                	j	f2c <memset+0x10>
     fa6:	00279693          	slli	a3,a5,0x2
     faa:	00000297          	auipc	t0,0x0
     fae:	9696                	add	a3,a3,t0
     fb0:	8286                	mv	t0,ra
     fb2:	fa8680e7          	jalr	-88(a3)
     fb6:	8096                	mv	ra,t0
     fb8:	17c1                	addi	a5,a5,-16
     fba:	8f1d                	sub	a4,a4,a5
     fbc:	963e                	add	a2,a2,a5
     fbe:	f8c374e3          	bgeu	t1,a2,f46 <memset+0x2a>
     fc2:	b7a5                	j	f2a <memset+0xe>

00000fc4 <main>:


int main(){
     fc4:	bd010113          	addi	sp,sp,-1072
    int* keys;
    int N = 53;
    int p = 3;
    int q = 101;

    int message[48] = {1, 1, 2, 1, 1, 1, 1, 2,1, 1, 0, 1, 1, 2, 1, 0,1, 2, 0, 1, 1, 1, 1, 0,1, 1, 0, 2, 1, 2, 1, 0, 1, 1, 2, 1, 1, 1, 1, 2, 1, 1, 2, 1, 1, 1, 1, 2};
     fc8:	0c000613          	li	a2,192
     fcc:	00000597          	auipc	a1,0x0
     fd0:	1c058593          	addi	a1,a1,448 # 118c <__DTOR_END__+0xc0>
     fd4:	0068                	addi	a0,sp,12
int main(){
     fd6:	42112623          	sw	ra,1068(sp)
     fda:	42812423          	sw	s0,1064(sp)
    int message[48] = {1, 1, 2, 1, 1, 1, 1, 2,1, 1, 0, 1, 1, 2, 1, 0,1, 2, 0, 1, 1, 1, 1, 0,1, 1, 0, 2, 1, 2, 1, 0, 1, 1, 2, 1, 1, 1, 1, 2, 1, 1, 2, 1, 1, 1, 1, 2};
     fde:	3585                	jal	e3e <memcpy>
    // Alice generates public key from her randomly created secret keys.
  //  printf("\nKEY GENERATION STARTED \n");

 //   start = clock();

    keys = generate_keys(N, p, q);
     fe0:	06500613          	li	a2,101
     fe4:	458d                	li	a1,3
     fe6:	03500513          	li	a0,53
     fea:	3235                	jal	916 <generate_keys>
     fec:	4781                	li	a5,0

   // printf("Secret Key f = ");
    for(i = 0; i < N; ++i){
     fee:	0d400713          	li	a4,212
  //      printf(" %d ", keys[i]);
        secret_key_f[i] = keys[i];
     ff2:	00f506b3          	add	a3,a0,a5
     ff6:	4290                	lw	a2,0(a3)
     ff8:	1314                	addi	a3,sp,416
     ffa:	96be                	add	a3,a3,a5
     ffc:	c290                	sw	a2,0(a3)
    for(i = 0; i < N; ++i){
     ffe:	0791                	addi	a5,a5,4
    1000:	fee799e3          	bne	a5,a4,ff2 <main+0x2e>
    }
  //  printf("\n");

 //   printf("Secret Key g = ");
    for(i = N; i < (2*N); ++i){
    1004:	1cd8                	addi	a4,sp,628
    1006:	1a850793          	addi	a5,a0,424
    100a:	27c50693          	addi	a3,a0,636
    100e:	843a                	mv	s0,a4
  //  printf("\n");

  //  printf("Secret Key fp = ");
    for(i = (2*N); i < (3*N); ++i){
  //      printf(" %d ", keys[i]);
        secret_key_fp[i-(2*N)] = keys[i];
    1010:	4390                	lw	a2,0(a5)
    1012:	0791                	addi	a5,a5,4
    1014:	0711                	addi	a4,a4,4
    1016:	fec72e23          	sw	a2,-4(a4)
    for(i = (2*N); i < (3*N); ++i){
    101a:	fed79be3          	bne	a5,a3,1010 <main+0x4c>
    }
  //  printf("\n");

 //   printf("Secret Key fq = ");
    for(i = (3*N); i < (4*N); ++i){
    101e:	01f8                	addi	a4,sp,204
    1020:	35050793          	addi	a5,a0,848
    1024:	42450613          	addi	a2,a0,1060
    1028:	86ba                	mv	a3,a4
 //   printf("\n");

//    printf("Public Key h = ");
    for(i = (4*N); i < (5*N); ++i){
//        printf(" %d ", keys[i]);
        public_key[i-(4*N)] = keys[i];
    102a:	438c                	lw	a1,0(a5)
    102c:	0791                	addi	a5,a5,4
    102e:	0711                	addi	a4,a4,4
    1030:	feb72e23          	sw	a1,-4(a4)
    for(i = (4*N); i < (5*N); ++i){
    1034:	fec79be3          	bne	a5,a2,102a <main+0x66>
    1038:	06b0                	addi	a2,sp,840
    103a:	4fc50513          	addi	a0,a0,1276
    103e:	8832                	mv	a6,a2
 //   printf("\n");

 //   printf("Ring Poly = ");
    for(i = (5*N); i < (6*N+1); ++i){
  //      printf(" %d ", keys[i]);
        ring_poly[i-(5*N)] = keys[i];
    1040:	4398                	lw	a4,0(a5)
    1042:	0791                	addi	a5,a5,4
    1044:	0611                	addi	a2,a2,4
    1046:	fee62e23          	sw	a4,-4(a2)
    for(i = (5*N); i < (6*N+1); ++i){
    104a:	fea79be3          	bne	a5,a0,1040 <main+0x7c>
 //   printf("\nKEY GENERATION FINISHED \n");

    // Bob encrypts message using Alice's public key and sends it to Alice.
  //  printf("\nENCRYPTION STARTED\n");

    Enc_Message = ntru_encyrpt(N, q, message, public_key, ring_poly);
    104e:	8742                	mv	a4,a6
    1050:	0070                	addi	a2,sp,12
    1052:	06500593          	li	a1,101
    1056:	03500513          	li	a0,53
    105a:	3ee1                	jal	c32 <ntru_encyrpt>
    105c:	87aa                	mv	a5,a0
//    printf("\nENCRYPTION FINISHED\n");

    // Alice decrypts the message using her secret keys.
 //   printf("\nDECRYPTION STARTED\n");

    Dec_Message = ntru_deceypt(N, p, q, secret_key_f, secret_key_fp, Enc_Message, ring_poly);
    105e:	34810813          	addi	a6,sp,840
    1062:	8722                	mv	a4,s0
    1064:	458d                	li	a1,3
    1066:	1314                	addi	a3,sp,416
    1068:	06500613          	li	a2,101
    106c:	03500513          	li	a0,53
    1070:	31b5                	jal	cdc <ntru_deceypt>
            resultkon[0] = 0xBABABABA;
 	   
            break;	}
        else{
  //          printf("*OPERATION SUCCCESSFUL*\n");
            resultkon[0] = 0xDEDEDEDE;
    1072:	dedee737          	lui	a4,0xdedee
    Dec_Message = ntru_deceypt(N, p, q, secret_key_f, secret_key_fp, Enc_Message, ring_poly);
    1076:	4781                	li	a5,0
    1078:	00000597          	auipc	a1,0x0
    107c:	1d458593          	addi	a1,a1,468 # 124c <_edata>
            resultkon[0] = 0xDEDEDEDE;
    1080:	ede70713          	addi	a4,a4,-290 # dededede <_stack_start+0xdedddede>
    for(i = 0; i < 32; ++i){
    1084:	08000813          	li	a6,128
        if(!(message[i] == Dec_Message[i])){
    1088:	0070                	addi	a2,sp,12
    108a:	00f506b3          	add	a3,a0,a5
    108e:	963e                	add	a2,a2,a5
    1090:	4210                	lw	a2,0(a2)
    1092:	4294                	lw	a3,0(a3)
    1094:	00d60f63          	beq	a2,a3,10b2 <main+0xee>
            resultkon[0] = 0xBABABABA;
    1098:	babac7b7          	lui	a5,0xbabac
    109c:	aba78793          	addi	a5,a5,-1350 # babababa <_stack_start+0xbab9baba>
    10a0:	c19c                	sw	a5,0(a1)
		}
    }
			

    return 0;
}
    10a2:	42c12083          	lw	ra,1068(sp)
    10a6:	42812403          	lw	s0,1064(sp)
    10aa:	4501                	li	a0,0
    10ac:	43010113          	addi	sp,sp,1072
    10b0:	8082                	ret
            resultkon[0] = 0xDEDEDEDE;
    10b2:	c198                	sw	a4,0(a1)
    for(i = 0; i < 32; ++i){
    10b4:	0791                	addi	a5,a5,4
    10b6:	fd0799e3          	bne	a5,a6,1088 <main+0xc4>
    10ba:	b7e5                	j	10a2 <main+0xde>

000010bc <__CTOR_LIST__>:
	...

000010c4 <__CTOR_END__>:
	...
