
NTRU_48_bitM.elf:     file format elf32-littleriscv


Disassembly of section .vectors:

00000000 <_stack_start-0x10000>:
   0:	00000013          	nop
   4:	00000013          	nop
   8:	00000013          	nop
   c:	00000013          	nop
  10:	00000013          	nop
  14:	00000013          	nop
  18:	00000013          	nop
  1c:	00000013          	nop
  20:	00000013          	nop
  24:	00000013          	nop
  28:	00000013          	nop
  2c:	00000013          	nop
  30:	00000013          	nop
  34:	00000013          	nop
  38:	00000013          	nop
  3c:	00000013          	nop
  40:	00000013          	nop
  44:	00000013          	nop
  48:	00000013          	nop
  4c:	00000013          	nop
  50:	00000013          	nop
  54:	00000013          	nop
  58:	00000013          	nop
  5c:	00000013          	nop
  60:	00000013          	nop
  64:	00000013          	nop
  68:	00000013          	nop
  6c:	00000013          	nop
  70:	00000013          	nop
  74:	00000013          	nop
  78:	00000013          	nop
  7c:	4890006f          	j	d04 <default_exc_handler>
  80:	4890006f          	j	d08 <reset_handler>
  84:	4810006f          	j	d04 <default_exc_handler>
  88:	47d0006f          	j	d04 <default_exc_handler>

Disassembly of section .text:

0000008c <instr_mod>:
////////////////CUSTOM INSTRUCTION SET///////////////


void instr_mod(unsigned int *a1, unsigned int mod) {

    asm volatile(
      8c:	0cb5750b          	0xcb5750b
    : "=r"(&a1[0])				 // designation register => a0 variable'ına atılacak
    : "r"(&a1[0]), "r"(mod)			// a1 ve a2 variable'ları compiler tarafından uygun register'lara atılacak

    );
    return;
}
      90:	8082                	ret

00000092 <array_mod>:
    ////// bu kod arrayin uzunlugunu ücüncü instruction operand olarak gonderemedigimiz icin var. //////////
    ////// üc sayisi custom modülün dondürdügü eleman sayisindan geliyor. bizim ebob'umuz 3 oldugu icin 3 secildi./////
    ///// ebob(54(N+1),105(N+N-1)) = 3
int i = 0;

    switch(length%3) {
      92:	470d                	li	a4,3
      94:	02e667b3          	rem	a5,a2,a4
      98:	4685                	li	a3,1
      9a:	02d78d63          	beq	a5,a3,d4 <array_mod+0x42>
      9e:	4689                	li	a3,2
      a0:	00d78963          	beq	a5,a3,b2 <array_mod+0x20>
      a4:	e7b9                	bnez	a5,f2 <array_mod+0x60>

        case 0:
            for (i = 0; i < (length / 3); i++) {
      a6:	02e64633          	div	a2,a2,a4
    asm volatile(
      aa:	46b1                	li	a3,12
            for (i = 0; i < (length / 3); i++) {
      ac:	04c7c463          	blt	a5,a2,f4 <array_mod+0x62>
      b0:	8082                	ret
                instr_mod((unsigned int *) &a1[3 * i], (unsigned int) mod);
            }
            a1[length-1] = a1[length-1] % mod;
	    break;
        case 2:
            for (i = 0; i < ((length-2) / 3); i++) {
      b2:	ffe60693          	addi	a3,a2,-2
      b6:	02e6c6b3          	div	a3,a3,a4
      ba:	4781                	li	a5,0
    asm volatile(
      bc:	4831                	li	a6,12
            for (i = 0; i < ((length-2) / 3); i++) {
      be:	04d7c963          	blt	a5,a3,110 <array_mod+0x7e>
                instr_mod((unsigned int *) &a1[3 * i], (unsigned int) mod);
            }
            a1[length-1] = a1[length-1] % mod;
      c2:	060a                	slli	a2,a2,0x2
      c4:	1671                	addi	a2,a2,-4
      c6:	00c50733          	add	a4,a0,a2
      ca:	431c                	lw	a5,0(a4)
      cc:	02b7e7b3          	rem	a5,a5,a1
      d0:	c31c                	sw	a5,0(a4)
      d2:	a811                	j	e6 <array_mod+0x54>
            for (i = 0; i < ((length-1) / 3); i++) {
      d4:	fff60693          	addi	a3,a2,-1
      d8:	02e6c6b3          	div	a3,a3,a4
      dc:	4781                	li	a5,0
    asm volatile(
      de:	4831                	li	a6,12
            for (i = 0; i < ((length-1) / 3); i++) {
      e0:	02d7c163          	blt	a5,a3,102 <array_mod+0x70>
            a1[length-1] = a1[length-1] % mod;
      e4:	060a                	slli	a2,a2,0x2
            a1[length-2] = a1[length-2] % mod;
      e6:	1671                	addi	a2,a2,-4
      e8:	962a                	add	a2,a2,a0
      ea:	421c                	lw	a5,0(a2)
      ec:	02b7e5b3          	rem	a1,a5,a1
      f0:	c20c                	sw	a1,0(a2)
	    break;
    } //end of switch case
} //end of function
      f2:	8082                	ret
    asm volatile(
      f4:	02d78733          	mul	a4,a5,a3
      f8:	972a                	add	a4,a4,a0
      fa:	0cb7770b          	0xcb7770b
            for (i = 0; i < (length / 3); i++) {
      fe:	0785                	addi	a5,a5,1
     100:	b775                	j	ac <array_mod+0x1a>
    asm volatile(
     102:	03078733          	mul	a4,a5,a6
     106:	972a                	add	a4,a4,a0
     108:	0cb7770b          	0xcb7770b
            for (i = 0; i < ((length-1) / 3); i++) {
     10c:	0785                	addi	a5,a5,1
     10e:	bfc9                	j	e0 <array_mod+0x4e>
    asm volatile(
     110:	03078733          	mul	a4,a5,a6
     114:	972a                	add	a4,a4,a0
     116:	0cb7770b          	0xcb7770b
            for (i = 0; i < ((length-2) / 3); i++) {
     11a:	0785                	addi	a5,a5,1
     11c:	b74d                	j	be <array_mod+0x2c>

0000011e <polymult>:

/////////////////////////////////////////////////


int *polymult(int *a, int size_a, int *b, int size_b, int mod, int star_mult){
     11e:	715d                	addi	sp,sp,-80
     120:	de4e                	sw	s3,60(sp)
     122:	d462                	sw	s8,40(sp)
     124:	00269993          	slli	s3,a3,0x2
     128:	8c3a                	mv	s8,a4

    int line[size_b][size_a + size_b];
     12a:	00d58733          	add	a4,a1,a3
int *polymult(int *a, int size_a, int *b, int size_b, int mod, int star_mult){
     12e:	dc52                	sw	s4,56(sp)
     130:	d65e                	sw	s7,44(sp)
    int line[size_b][size_a + size_b];
     132:	fff70a13          	addi	s4,a4,-1
     136:	00271b93          	slli	s7,a4,0x2
     13a:	03370733          	mul	a4,a4,s3
int *polymult(int *a, int size_a, int *b, int size_b, int mod, int star_mult){
     13e:	c4a2                	sw	s0,72(sp)
     140:	c2a6                	sw	s1,68(sp)
     142:	0880                	addi	s0,sp,80
     144:	c0ca                	sw	s2,64(sp)
     146:	da56                	sw	s5,52(sp)
     148:	d85a                	sw	s6,48(sp)
     14a:	d266                	sw	s9,36(sp)
     14c:	d06a                	sw	s10,32(sp)
     14e:	ce6e                	sw	s11,28(sp)
    int line[size_b][size_a + size_b];
     150:	073d                	addi	a4,a4,15
int *polymult(int *a, int size_a, int *b, int size_b, int mod, int star_mult){
     152:	c686                	sw	ra,76(sp)
    int line[size_b][size_a + size_b];
     154:	9b41                	andi	a4,a4,-16
     156:	40e10133          	sub	sp,sp,a4
    int i,j,k;
    int *return_address1;
    int pola[size_a];
     15a:	00259713          	slli	a4,a1,0x2
     15e:	073d                	addi	a4,a4,15
int *polymult(int *a, int size_a, int *b, int size_b, int mod, int star_mult){
     160:	8936                	mv	s2,a3
    int line[size_b][size_a + size_b];
     162:	fff68d13          	addi	s10,a3,-1
    int pola[size_a];
     166:	9b41                	andi	a4,a4,-16
    int polb[size_b];
     168:	00f98693          	addi	a3,s3,15
    int line[size_b][size_a + size_b];
     16c:	8d8a                	mv	s11,sp
    int polb[size_b];
     16e:	9ac1                	andi	a3,a3,-16
    int pola[size_a];
     170:	40e10133          	sub	sp,sp,a4
int *polymult(int *a, int size_a, int *b, int size_b, int mod, int star_mult){
     174:	faf42c23          	sw	a5,-72(s0)
    int pola[size_a];
     178:	8c8a                	mv	s9,sp

    //make all line vectors zero
    for (i = 0; i < size_b; ++i){
        for(j = 0; j < size_a + size_b -1; ++j){
            line[i][j] = 0;
     17a:	002bd793          	srli	a5,s7,0x2
    int polb[size_b];
     17e:	40d10133          	sub	sp,sp,a3
int *polymult(int *a, int size_a, int *b, int size_b, int mod, int star_mult){
     182:	8832                	mv	a6,a2
    int pola[size_a];
     184:	fff58b13          	addi	s6,a1,-1
    int polb[size_b];
     188:	848a                	mv	s1,sp
            line[i][j] = 0;
     18a:	faf42e23          	sw	a5,-68(s0)
     18e:	8aee                	mv	s5,s11
    for (i = 0; i < size_b; ++i){
     190:	88ee                	mv	a7,s11
     192:	4601                	li	a2,0
            product[j] = 0;
     194:	00001e97          	auipc	t4,0x1
     198:	038e8e93          	addi	t4,t4,56 # 11cc <_bss_start>
    for (i = 0; i < size_b; ++i){
     19c:	07264063          	blt	a2,s2,1fc <polymult+0xde>
        }
    }

    // make mod calculations
    for (i = 0; i < size_a; ++i){
     1a0:	4681                	li	a3,0
     1a2:	06b6c063          	blt	a3,a1,202 <polymult+0xe4>
        pola[i] = a[i];
    }

	array_mod(pola,mod,size_a);
     1a6:	862e                	mv	a2,a1
     1a8:	8566                	mv	a0,s9
     1aa:	85e2                	mv	a1,s8
     1ac:	fb042a23          	sw	a6,-76(s0)
     1b0:	35cd                	jal	92 <array_mod>

    for (i = 0; i < size_b; ++i){
     1b2:	fb442803          	lw	a6,-76(s0)
     1b6:	4681                	li	a3,0
     1b8:	0526cf63          	blt	a3,s2,216 <polymult+0xf8>
        polb[i] = b[i];
    }

	array_mod(polb,mod,size_b);
     1bc:	8526                	mv	a0,s1
     1be:	864a                	mv	a2,s2
     1c0:	85e2                	mv	a1,s8
     1c2:	3dc1                	jal	92 <array_mod>

    // make calculations for partial products, if need add mod calculations
    if(star_mult == 1){
     1c4:	fb842783          	lw	a5,-72(s0)
     1c8:	4685                	li	a3,1
     1ca:	94ce                	add	s1,s1,s3
     1cc:	04d78e63          	beq	a5,a3,228 <polymult+0x10a>
     1d0:	19f1                	addi	s3,s3,-4
     1d2:	ffcb8593          	addi	a1,s7,-4
     1d6:	99ee                	add	s3,s3,s11
                line[size_b-1-j][k] = pola[k]*polb[j];
            }
        }
    }
    else{
        for (j = size_b -1; j >= 0; j = j-1){
     1d8:	040d4b63          	bltz	s10,22e <polymult+0x110>
            for (k = size_a-1; k >= 0; k = k-1 ){
     1dc:	86da                	mv	a3,s6
     1de:	a8f1                	j	2ba <polymult+0x19c>
            product[j] = 0;
     1e0:	00269e13          	slli	t3,a3,0x2
     1e4:	9e76                	add	t3,t3,t4
            line[i][j] = 0;
     1e6:	00032023          	sw	zero,0(t1)
            product[j] = 0;
     1ea:	000e2023          	sw	zero,0(t3)
        for(j = 0; j < size_a + size_b -1; ++j){
     1ee:	0685                	addi	a3,a3,1
     1f0:	0311                	addi	t1,t1,4
     1f2:	ff46c7e3          	blt	a3,s4,1e0 <polymult+0xc2>
    for (i = 0; i < size_b; ++i){
     1f6:	0605                	addi	a2,a2,1
     1f8:	98de                	add	a7,a7,s7
     1fa:	b74d                	j	19c <polymult+0x7e>
     1fc:	8346                	mv	t1,a7
        for(j = 0; j < size_a + size_b -1; ++j){
     1fe:	4681                	li	a3,0
     200:	bfcd                	j	1f2 <polymult+0xd4>
        pola[i] = a[i];
     202:	00269613          	slli	a2,a3,0x2
     206:	00cc88b3          	add	a7,s9,a2
     20a:	962a                	add	a2,a2,a0
     20c:	4210                	lw	a2,0(a2)
    for (i = 0; i < size_a; ++i){
     20e:	0685                	addi	a3,a3,1
        pola[i] = a[i];
     210:	00c8a023          	sw	a2,0(a7)
    for (i = 0; i < size_a; ++i){
     214:	b779                	j	1a2 <polymult+0x84>
        polb[i] = b[i];
     216:	00269613          	slli	a2,a3,0x2
     21a:	00c485b3          	add	a1,s1,a2
     21e:	9642                	add	a2,a2,a6
     220:	4210                	lw	a2,0(a2)
    for (i = 0; i < size_b; ++i){
     222:	0685                	addi	a3,a3,1
        polb[i] = b[i];
     224:	c190                	sw	a2,0(a1)
    for (i = 0; i < size_b; ++i){
     226:	bf49                	j	1b8 <polymult+0x9a>
    if(star_mult == 1){
     228:	85ee                	mv	a1,s11
        for (j = size_b -1; j >= 0; j = j-1){
     22a:	060d5a63          	bgez	s10,29e <polymult+0x180>
            for (k = size_a-1; k >= 0; k = k-1 ){
     22e:	4481                	li	s1,0
            }
        }
    }

    //mod calculations
    for (i = 0; i < size_b; ++i){
     230:	0924cb63          	blt	s1,s2,2c6 <polymult+0x1a8>
     234:	00001697          	auipc	a3,0x1
     238:	f9868693          	addi	a3,a3,-104 # 11cc <_bss_start>
        array_mod(line[i],mod,(size_a+size_b-1));
    }

    // construct product
    for(j = 0; j < size_a + size_b -1; ++j){
     23c:	4701                	li	a4,0
     23e:	0b474c63          	blt	a4,s4,2f6 <polymult+0x1d8>
            product[j] += line[i][j];
        }
    }

    //mod calculations
    array_mod(product,mod,size_a+size_b-1);
     242:	8652                	mv	a2,s4
     244:	85e2                	mv	a1,s8
     246:	00001517          	auipc	a0,0x1
     24a:	f8650513          	addi	a0,a0,-122 # 11cc <_bss_start>
     24e:	3591                	jal	92 <array_mod>

    return_address1 = &product[0];

    return return_address1;
}
     250:	fb040113          	addi	sp,s0,-80
     254:	40b6                	lw	ra,76(sp)
     256:	4426                	lw	s0,72(sp)
     258:	4496                	lw	s1,68(sp)
     25a:	4906                	lw	s2,64(sp)
     25c:	59f2                	lw	s3,60(sp)
     25e:	5a62                	lw	s4,56(sp)
     260:	5ad2                	lw	s5,52(sp)
     262:	5b42                	lw	s6,48(sp)
     264:	5bb2                	lw	s7,44(sp)
     266:	5c22                	lw	s8,40(sp)
     268:	5c92                	lw	s9,36(sp)
     26a:	5d02                	lw	s10,32(sp)
     26c:	4df2                	lw	s11,28(sp)
     26e:	00001517          	auipc	a0,0x1
     272:	f5e50513          	addi	a0,a0,-162 # 11cc <_bss_start>
     276:	6161                	addi	sp,sp,80
     278:	8082                	ret
                line[size_b-1-j][k] = pola[k]*polb[j];
     27a:	00269613          	slli	a2,a3,0x2
     27e:	00c58533          	add	a0,a1,a2
     282:	9666                	add	a2,a2,s9
     284:	4210                	lw	a2,0(a2)
     286:	ffc4a803          	lw	a6,-4(s1)
            for (k = size_a-1; k >= 0; k = k-1 ){
     28a:	16fd                	addi	a3,a3,-1
                line[size_b-1-j][k] = pola[k]*polb[j];
     28c:	03060633          	mul	a2,a2,a6
     290:	c110                	sw	a2,0(a0)
            for (k = size_a-1; k >= 0; k = k-1 ){
     292:	fe06d4e3          	bgez	a3,27a <polymult+0x15c>
        for (j = size_b -1; j >= 0; j = j-1){
     296:	1d7d                	addi	s10,s10,-1
     298:	14f1                	addi	s1,s1,-4
     29a:	95de                	add	a1,a1,s7
     29c:	b779                	j	22a <polymult+0x10c>
            for (k = size_a-1; k >= 0; k = k-1 ){
     29e:	86da                	mv	a3,s6
     2a0:	bfcd                	j	292 <polymult+0x174>
                line[size_b-1-j][k + j] = pola[k]*polb[j];
     2a2:	00269613          	slli	a2,a3,0x2
     2a6:	00c98533          	add	a0,s3,a2
     2aa:	9666                	add	a2,a2,s9
     2ac:	4210                	lw	a2,0(a2)
     2ae:	ffc4a803          	lw	a6,-4(s1)
            for (k = size_a-1; k >= 0; k = k-1 ){
     2b2:	16fd                	addi	a3,a3,-1
                line[size_b-1-j][k + j] = pola[k]*polb[j];
     2b4:	03060633          	mul	a2,a2,a6
     2b8:	c110                	sw	a2,0(a0)
            for (k = size_a-1; k >= 0; k = k-1 ){
     2ba:	fe06d4e3          	bgez	a3,2a2 <polymult+0x184>
        for (j = size_b -1; j >= 0; j = j-1){
     2be:	1d7d                	addi	s10,s10,-1
     2c0:	14f1                	addi	s1,s1,-4
     2c2:	99ae                	add	s3,s3,a1
     2c4:	bf11                	j	1d8 <polymult+0xba>
        array_mod(line[i],mod,(size_a+size_b-1));
     2c6:	8556                	mv	a0,s5
     2c8:	8652                	mv	a2,s4
     2ca:	85e2                	mv	a1,s8
     2cc:	33d9                	jal	92 <array_mod>
    for (i = 0; i < size_b; ++i){
     2ce:	0485                	addi	s1,s1,1
     2d0:	9ade                	add	s5,s5,s7
     2d2:	bfb9                	j	230 <polymult+0x112>
            product[j] += line[i][j];
     2d4:	fbc42783          	lw	a5,-68(s0)
     2d8:	428c                	lw	a1,0(a3)
     2da:	02f607b3          	mul	a5,a2,a5
        for(i = 0; i < size_b; ++i){
     2de:	0605                	addi	a2,a2,1
            product[j] += line[i][j];
     2e0:	97ba                	add	a5,a5,a4
     2e2:	078a                	slli	a5,a5,0x2
     2e4:	97ee                	add	a5,a5,s11
     2e6:	439c                	lw	a5,0(a5)
     2e8:	97ae                	add	a5,a5,a1
     2ea:	c29c                	sw	a5,0(a3)
        for(i = 0; i < size_b; ++i){
     2ec:	ff2644e3          	blt	a2,s2,2d4 <polymult+0x1b6>
    for(j = 0; j < size_a + size_b -1; ++j){
     2f0:	0705                	addi	a4,a4,1
     2f2:	0691                	addi	a3,a3,4
     2f4:	b7a9                	j	23e <polymult+0x120>
        for(i = 0; i < size_b; ++i){
     2f6:	4601                	li	a2,0
     2f8:	bfd5                	j	2ec <polymult+0x1ce>

000002fa <polymult2>:

int *polymult2(int *a, int size_a, int *b, int size_b, int star_mult){
   

    int line[size_b][size_a + size_b];
     2fa:	00d587b3          	add	a5,a1,a3
     2fe:	00269813          	slli	a6,a3,0x2
     302:	00279313          	slli	t1,a5,0x2
     306:	fff78e93          	addi	t4,a5,-1
     30a:	030787b3          	mul	a5,a5,a6
int *polymult2(int *a, int size_a, int *b, int size_b, int star_mult){
     30e:	1101                	addi	sp,sp,-32
     310:	ce22                	sw	s0,28(sp)
     312:	cc26                	sw	s1,24(sp)
     314:	ca4a                	sw	s2,20(sp)
     316:	c84e                	sw	s3,16(sp)
     318:	c25a                	sw	s6,4(sp)
     31a:	c652                	sw	s4,12(sp)
     31c:	c456                	sw	s5,8(sp)
     31e:	1000                	addi	s0,sp,32
    int line[size_b][size_a + size_b];
     320:	07bd                	addi	a5,a5,15
     322:	9bc1                	andi	a5,a5,-16
     324:	40f10133          	sub	sp,sp,a5
    int i,j,k;
    int *return_address2;
    int pola[size_a];
     328:	00259793          	slli	a5,a1,0x2
     32c:	07bd                	addi	a5,a5,15
     32e:	9bc1                	andi	a5,a5,-16
    int line[size_b][size_a + size_b];
     330:	8e0a                	mv	t3,sp
    int pola[size_a];
     332:	40f10133          	sub	sp,sp,a5
    int polb[size_b];
     336:	00f80793          	addi	a5,a6,15
     33a:	9bc1                	andi	a5,a5,-16
    int pola[size_a];
     33c:	828a                	mv	t0,sp
    int polb[size_b];
     33e:	40f10133          	sub	sp,sp,a5
    int line[size_b][size_a + size_b];
     342:	fff68893          	addi	a7,a3,-1
    int pola[size_a];
     346:	fff58f93          	addi	t6,a1,-1
    int polb[size_b];
     34a:	878a                	mv	a5,sp

    //make all line vectors zero
    for (i = 0; i < size_b; ++i){
        for(j = 0; j < size_a + size_b -1; ++j){
            line[i][j] = 0;
     34c:	00235f13          	srli	t5,t1,0x2
     350:	8972                	mv	s2,t3
    for (i = 0; i < size_b; ++i){
     352:	89f2                	mv	s3,t3
     354:	4481                	li	s1,0
            product2[j] = 0;
     356:	00001b17          	auipc	s6,0x1
     35a:	0ceb0b13          	addi	s6,s6,206 # 1424 <product2>
    for (i = 0; i < size_b; ++i){
     35e:	04d4c163          	blt	s1,a3,3a0 <polymult2+0xa6>
        }
    }

    for(i = 0; i < size_a; ++i){
     362:	4381                	li	t2,0
     364:	04b3c163          	blt	t2,a1,3a6 <polymult2+0xac>
        pola[i] = a[i];
    }


    for(i = 0; i < size_b; ++i){
     368:	4581                	li	a1,0
     36a:	04d5c863          	blt	a1,a3,3ba <polymult2+0xc0>
        polb[i] = b[i];
    }


    // make calculations for partial products, if need add mod calculations
    if(star_mult == 1){
     36e:	4605                	li	a2,1
     370:	97c2                	add	a5,a5,a6
     372:	06c70f63          	beq	a4,a2,3f0 <polymult2+0xf6>
     376:	1871                	addi	a6,a6,-4
     378:	1371                	addi	t1,t1,-4
     37a:	9872                	add	a6,a6,t3
                line[size_b-1-j][k] = pola[k]*polb[j];
            }
        }
    }
    else{
        for (j = size_b -1; j >= 0; j = j-1){
     37c:	0608cc63          	bltz	a7,3f4 <polymult2+0xfa>
            for (k = size_a-1; k >= 0; k = k-1 ){
     380:	877e                	mv	a4,t6
     382:	a86d                	j	43c <polymult2+0x142>
            product2[j] = 0;
     384:	00239a93          	slli	s5,t2,0x2
     388:	9ada                	add	s5,s5,s6
            line[i][j] = 0;
     38a:	000a2023          	sw	zero,0(s4)
            product2[j] = 0;
     38e:	000aa023          	sw	zero,0(s5)
        for(j = 0; j < size_a + size_b -1; ++j){
     392:	0385                	addi	t2,t2,1
     394:	0a11                	addi	s4,s4,4
     396:	ffd3c7e3          	blt	t2,t4,384 <polymult2+0x8a>
    for (i = 0; i < size_b; ++i){
     39a:	0485                	addi	s1,s1,1
     39c:	999a                	add	s3,s3,t1
     39e:	b7c1                	j	35e <polymult2+0x64>
     3a0:	8a4e                	mv	s4,s3
        for(j = 0; j < size_a + size_b -1; ++j){
     3a2:	4381                	li	t2,0
     3a4:	bfcd                	j	396 <polymult2+0x9c>
        pola[i] = a[i];
     3a6:	00239493          	slli	s1,t2,0x2
     3aa:	009289b3          	add	s3,t0,s1
     3ae:	94aa                	add	s1,s1,a0
     3b0:	4084                	lw	s1,0(s1)
    for(i = 0; i < size_a; ++i){
     3b2:	0385                	addi	t2,t2,1
        pola[i] = a[i];
     3b4:	0099a023          	sw	s1,0(s3)
    for(i = 0; i < size_a; ++i){
     3b8:	b775                	j	364 <polymult2+0x6a>
        polb[i] = b[i];
     3ba:	00259513          	slli	a0,a1,0x2
     3be:	00a783b3          	add	t2,a5,a0
     3c2:	9532                	add	a0,a0,a2
     3c4:	4108                	lw	a0,0(a0)
    for(i = 0; i < size_b; ++i){
     3c6:	0585                	addi	a1,a1,1
        polb[i] = b[i];
     3c8:	00a3a023          	sw	a0,0(t2)
    for(i = 0; i < size_b; ++i){
     3cc:	bf79                	j	36a <polymult2+0x70>
                line[size_b-1-j][k] = pola[k]*polb[j];
     3ce:	00271613          	slli	a2,a4,0x2
     3d2:	00c905b3          	add	a1,s2,a2
     3d6:	9616                	add	a2,a2,t0
     3d8:	4210                	lw	a2,0(a2)
     3da:	ffc7a503          	lw	a0,-4(a5)
            for (k = size_a-1; k >= 0; k = k-1 ){
     3de:	177d                	addi	a4,a4,-1
                line[size_b-1-j][k] = pola[k]*polb[j];
     3e0:	02a60633          	mul	a2,a2,a0
     3e4:	c190                	sw	a2,0(a1)
            for (k = size_a-1; k >= 0; k = k-1 ){
     3e6:	fe0754e3          	bgez	a4,3ce <polymult2+0xd4>
        for (j = size_b -1; j >= 0; j = j-1){
     3ea:	18fd                	addi	a7,a7,-1
     3ec:	17f1                	addi	a5,a5,-4
     3ee:	991a                	add	s2,s2,t1
     3f0:	0208d863          	bgez	a7,420 <polymult2+0x126>
     3f4:	00001617          	auipc	a2,0x1
     3f8:	03060613          	addi	a2,a2,48 # 1424 <product2>
        }
    }

    // construct product
    for(j = 0; j < size_a + size_b -1; ++j){
        for(i = 0; i < size_b; ++i){
     3fc:	4701                	li	a4,0
    for(j = 0; j < size_a + size_b -1; ++j){
     3fe:	07d74463          	blt	a4,t4,466 <polymult2+0x16c>


    return_address2 = &product2[0];

    return return_address2;
}
     402:	fe040113          	addi	sp,s0,-32
     406:	4472                	lw	s0,28(sp)
     408:	44e2                	lw	s1,24(sp)
     40a:	4952                	lw	s2,20(sp)
     40c:	49c2                	lw	s3,16(sp)
     40e:	4a32                	lw	s4,12(sp)
     410:	4aa2                	lw	s5,8(sp)
     412:	4b12                	lw	s6,4(sp)
     414:	00001517          	auipc	a0,0x1
     418:	01050513          	addi	a0,a0,16 # 1424 <product2>
     41c:	6105                	addi	sp,sp,32
     41e:	8082                	ret
            for (k = size_a-1; k >= 0; k = k-1 ){
     420:	877e                	mv	a4,t6
     422:	b7d1                	j	3e6 <polymult2+0xec>
                line[size_b-1-j][k + j] = pola[k]*polb[j];
     424:	00271613          	slli	a2,a4,0x2
     428:	00c805b3          	add	a1,a6,a2
     42c:	9616                	add	a2,a2,t0
     42e:	4210                	lw	a2,0(a2)
     430:	ffc7a503          	lw	a0,-4(a5)
            for (k = size_a-1; k >= 0; k = k-1 ){
     434:	177d                	addi	a4,a4,-1
                line[size_b-1-j][k + j] = pola[k]*polb[j];
     436:	02a60633          	mul	a2,a2,a0
     43a:	c190                	sw	a2,0(a1)
            for (k = size_a-1; k >= 0; k = k-1 ){
     43c:	fe0754e3          	bgez	a4,424 <polymult2+0x12a>
        for (j = size_b -1; j >= 0; j = j-1){
     440:	18fd                	addi	a7,a7,-1
     442:	17f1                	addi	a5,a5,-4
     444:	981a                	add	a6,a6,t1
     446:	bf1d                	j	37c <polymult2+0x82>
            product2[j] += line[i][j];
     448:	03e587b3          	mul	a5,a1,t5
     44c:	4208                	lw	a0,0(a2)
        for(i = 0; i < size_b; ++i){
     44e:	0585                	addi	a1,a1,1
            product2[j] += line[i][j];
     450:	97ba                	add	a5,a5,a4
     452:	078a                	slli	a5,a5,0x2
     454:	97f2                	add	a5,a5,t3
     456:	439c                	lw	a5,0(a5)
     458:	97aa                	add	a5,a5,a0
     45a:	c21c                	sw	a5,0(a2)
        for(i = 0; i < size_b; ++i){
     45c:	fed5c6e3          	blt	a1,a3,448 <polymult2+0x14e>
    for(j = 0; j < size_a + size_b -1; ++j){
     460:	0705                	addi	a4,a4,1
     462:	0611                	addi	a2,a2,4
     464:	bf69                	j	3fe <polymult2+0x104>
        for(i = 0; i < size_b; ++i){
     466:	4581                	li	a1,0
     468:	bfd5                	j	45c <polymult2+0x162>

0000046a <polydiv>:
 

    int u,d,d2,i,b_N,r_d;
    int *return_address3;

    int v[size_N];
     46a:	00259793          	slli	a5,a1,0x2
int *polydiv(int *num, int size_N, int*denum, int size_D, int mod){
     46e:	7139                	addi	sp,sp,-64
    int v[size_N];
     470:	07bd                	addi	a5,a5,15
     472:	9bc1                	andi	a5,a5,-16
int *polydiv(int *num, int size_N, int*denum, int size_D, int mod){
     474:	dc22                	sw	s0,56(sp)
     476:	da26                	sw	s1,52(sp)
     478:	d84a                	sw	s2,48(sp)
     47a:	d64e                	sw	s3,44(sp)
     47c:	d452                	sw	s4,40(sp)
     47e:	d256                	sw	s5,36(sp)
     480:	d05a                	sw	s6,32(sp)
     482:	ce5e                	sw	s7,28(sp)
     484:	cc62                	sw	s8,24(sp)
     486:	ca66                	sw	s9,20(sp)
     488:	c86a                	sw	s10,16(sp)
     48a:	de06                	sw	ra,60(sp)
     48c:	c66e                	sw	s11,12(sp)
     48e:	0080                	addi	s0,sp,64
    int v[size_N];
     490:	40f10133          	sub	sp,sp,a5
     494:	8b0a                	mv	s6,sp
    int q[size_N];
     496:	40f10133          	sub	sp,sp,a5
     49a:	8b8a                	mv	s7,sp
    int *product;
    int num_temp[size_N];
     49c:	40f10133          	sub	sp,sp,a5
    int denum_temp[size_D];
     4a0:	00269793          	slli	a5,a3,0x2
     4a4:	07bd                	addi	a5,a5,15
     4a6:	9bc1                	andi	a5,a5,-16
    int num_temp[size_N];
     4a8:	890a                	mv	s2,sp
    int denum_temp[size_D];
     4aa:	40f10133          	sub	sp,sp,a5
int *polydiv(int *num, int size_N, int*denum, int size_D, int mod){
     4ae:	84ae                	mv	s1,a1
     4b0:	8c32                	mv	s8,a2
     4b2:	8a36                	mv	s4,a3
     4b4:	89ba                	mv	s3,a4
    int v[size_N];
     4b6:	fff58d13          	addi	s10,a1,-1
    int denum_temp[size_D];
     4ba:	fff68a93          	addi	s5,a3,-1
     4be:	8c8a                	mv	s9,sp


    // make mod calculation for coefficents
    for (i = 0; i < size_N; ++i){
     4c0:	4781                	li	a5,0
     4c2:	0297cd63          	blt	a5,s1,4fc <polydiv+0x92>
        num_temp[i] = num[i];
    }
    
    
        array_mod(num_temp, mod, size_N);
     4c6:	8626                	mv	a2,s1
     4c8:	85ce                	mv	a1,s3
     4ca:	854a                	mv	a0,s2
     4cc:	36d9                	jal	92 <array_mod>
    


    // make mod calculation for coefficents
    for (i = 0; i < size_D; ++i) {
     4ce:	4781                	li	a5,0
     4d0:	0347cf63          	blt	a5,s4,50e <polydiv+0xa4>
        denum_temp[i] = denum[i];
    }

	array_mod(denum_temp,mod,size_D);
     4d4:	8652                	mv	a2,s4
     4d6:	85ce                	mv	a1,s3
     4d8:	8566                	mv	a0,s9
     4da:	3e65                	jal	92 <array_mod>

    for (i = 0; i < size_N; ++i){
     4dc:	4781                	li	a5,0
     4de:	0497c163          	blt	a5,s1,520 <polydiv+0xb6>
        q[i] = 0;
        v[i] = 0;
    }

    //find b_N (denum) and degree denum
    for (i = size_D-1; i >= 0; i = i-1){
     4e2:	002a9793          	slli	a5,s5,0x2
     4e6:	97e6                	add	a5,a5,s9
     4e8:	4398                	lw	a4,0(a5)
     4ea:	040ad663          	bgez	s5,536 <polydiv+0xcc>
    for (i = 0; i < size_N; ++i){
     4ee:	4781                	li	a5,0
     4f0:	4c01                	li	s8,0
    d2 = i; //f'in derecesi
    b_N = denum_temp[i];

    // Set u := (b_N)^–1 mod p (denum) //
    for (u = 0; u < mod; ++u){
        if ( (b_N*u)%mod == 1 )
     4f2:	4685                	li	a3,1
    for (u = 0; u < mod; ++u){
     4f4:	053c4463          	blt	s8,s3,53c <polydiv+0xd2>
     4f8:	87ea                	mv	a5,s10
     4fa:	a891                	j	54e <polydiv+0xe4>
        num_temp[i] = num[i];
     4fc:	00279713          	slli	a4,a5,0x2
     500:	00e906b3          	add	a3,s2,a4
     504:	972a                	add	a4,a4,a0
     506:	4318                	lw	a4,0(a4)
    for (i = 0; i < size_N; ++i){
     508:	0785                	addi	a5,a5,1
        num_temp[i] = num[i];
     50a:	c298                	sw	a4,0(a3)
    for (i = 0; i < size_N; ++i){
     50c:	bf5d                	j	4c2 <polydiv+0x58>
        denum_temp[i] = denum[i];
     50e:	00279713          	slli	a4,a5,0x2
     512:	00ec86b3          	add	a3,s9,a4
     516:	9762                	add	a4,a4,s8
     518:	4318                	lw	a4,0(a4)
    for (i = 0; i < size_D; ++i) {
     51a:	0785                	addi	a5,a5,1
        denum_temp[i] = denum[i];
     51c:	c298                	sw	a4,0(a3)
    for (i = 0; i < size_D; ++i) {
     51e:	bf4d                	j	4d0 <polydiv+0x66>
        q[i] = 0;
     520:	00279713          	slli	a4,a5,0x2
     524:	00eb86b3          	add	a3,s7,a4
        v[i] = 0;
     528:	975a                	add	a4,a4,s6
        q[i] = 0;
     52a:	0006a023          	sw	zero,0(a3)
        v[i] = 0;
     52e:	00072023          	sw	zero,0(a4)
    for (i = 0; i < size_N; ++i){
     532:	0785                	addi	a5,a5,1
     534:	b76d                	j	4de <polydiv+0x74>
        if( denum_temp[i] != 0 )
     536:	ff45                	bnez	a4,4ee <polydiv+0x84>
    for (i = size_D-1; i >= 0; i = i-1){
     538:	1afd                	addi	s5,s5,-1
     53a:	b765                	j	4e2 <polydiv+0x78>
        if ( (b_N*u)%mod == 1 )
     53c:	0337e633          	rem	a2,a5,s3
     540:	97ba                	add	a5,a5,a4
     542:	fad60be3          	beq	a2,a3,4f8 <polydiv+0x8e>
    for (u = 0; u < mod; ++u){
     546:	0c05                	addi	s8,s8,1
     548:	b775                	j	4f4 <polydiv+0x8a>
            break;
    }

    // find degree num and r_d
    for (i = size_N-1; i >= 0; i = i-1){
        if( num_temp[i] != 0 )
     54a:	eb01                	bnez	a4,55a <polydiv+0xf0>
    for (i = size_N-1; i >= 0; i = i-1){
     54c:	17fd                	addi	a5,a5,-1
     54e:	00279713          	slli	a4,a5,0x2
     552:	974a                	add	a4,a4,s2
     554:	4318                	lw	a4,0(a4)
     556:	fe07dae3          	bgez	a5,54a <polydiv+0xe0>

    //printf("\nSİL-3\n");
    //printf("\nd2 = %d, d = %d\n",d2,d);

    // While-1 deg num >= deg denum do
    while (d >= d2){
     55a:	0557d663          	bge	a5,s5,5a6 <polydiv+0x13c>
        }


    } //End While-1

    for(i = 0; i < size_N; ++i){
     55e:	4781                	li	a5,0
        result[i] = q[i];
     560:	00001697          	auipc	a3,0x1
     564:	11c68693          	addi	a3,a3,284 # 167c <result>
    for(i = 0; i < size_N; ++i){
     568:	0e97c063          	blt	a5,s1,648 <polydiv+0x1de>
    }
    for(i = size_N; i < (2*size_N); ++i){
     56c:	00149713          	slli	a4,s1,0x1
        result[i] = num_temp[i-size_N];
     570:	00001697          	auipc	a3,0x1
     574:	10c68693          	addi	a3,a3,268 # 167c <result>
    for(i = size_N; i < (2*size_N); ++i){
     578:	0ee4c163          	blt	s1,a4,65a <polydiv+0x1f0>
    }

    return_address3 = &result[0];

    return return_address3;
}
     57c:	fc040113          	addi	sp,s0,-64
     580:	50f2                	lw	ra,60(sp)
     582:	5462                	lw	s0,56(sp)
     584:	54d2                	lw	s1,52(sp)
     586:	5942                	lw	s2,48(sp)
     588:	59b2                	lw	s3,44(sp)
     58a:	5a22                	lw	s4,40(sp)
     58c:	5a92                	lw	s5,36(sp)
     58e:	5b02                	lw	s6,32(sp)
     590:	4bf2                	lw	s7,28(sp)
     592:	4c62                	lw	s8,24(sp)
     594:	4cd2                	lw	s9,20(sp)
     596:	4d42                	lw	s10,16(sp)
     598:	4db2                	lw	s11,12(sp)
     59a:	00001517          	auipc	a0,0x1
     59e:	0e250513          	addi	a0,a0,226 # 167c <result>
     5a2:	6121                	addi	sp,sp,64
     5a4:	8082                	ret
        v[(d-d2)] = u*r_d;
     5a6:	03870733          	mul	a4,a4,s8
     5aa:	415787b3          	sub	a5,a5,s5
     5ae:	078a                	slli	a5,a5,0x2
     5b0:	97da                	add	a5,a5,s6
        array_mod(v, mod, size_N);
     5b2:	8626                	mv	a2,s1
     5b4:	85ce                	mv	a1,s3
     5b6:	855a                	mv	a0,s6
        v[(d-d2)] = u*r_d;
     5b8:	c398                	sw	a4,0(a5)
        array_mod(v, mod, size_N);
     5ba:	3ce1                	jal	92 <array_mod>
        product = polymult(denum_temp,size_D,v,size_D,mod,0);
     5bc:	4781                	li	a5,0
     5be:	874e                	mv	a4,s3
     5c0:	86d2                	mv	a3,s4
     5c2:	865a                	mv	a2,s6
     5c4:	85d2                	mv	a1,s4
     5c6:	8566                	mv	a0,s9
     5c8:	3e99                	jal	11e <polymult>
        array_mod(product, mod, size_N);
     5ca:	8626                	mv	a2,s1
     5cc:	85ce                	mv	a1,s3
        product = polymult(denum_temp,size_D,v,size_D,mod,0);
     5ce:	8daa                	mv	s11,a0
        array_mod(product, mod, size_N);
     5d0:	34c9                	jal	92 <array_mod>
        for (i = 0; i < size_N; ++i){
     5d2:	874a                	mv	a4,s2
     5d4:	4781                	li	a5,0
     5d6:	0297c763          	blt	a5,s1,604 <polydiv+0x19a>
        array_mod(num_temp, mod, size_N);
     5da:	8626                	mv	a2,s1
     5dc:	85ce                	mv	a1,s3
     5de:	854a                	mv	a0,s2
     5e0:	3c4d                	jal	92 <array_mod>
        for(i = 0; i < size_N; ++i){
     5e2:	875e                	mv	a4,s7
     5e4:	4781                	li	a5,0
     5e6:	0297ca63          	blt	a5,s1,61a <polydiv+0x1b0>
        array_mod(q, mod, size_N);
     5ea:	8626                	mv	a2,s1
     5ec:	85ce                	mv	a1,s3
     5ee:	855e                	mv	a0,s7
     5f0:	344d                	jal	92 <array_mod>
        for (i = size_N-1; i >= 0; i = i-1){
     5f2:	87ea                	mv	a5,s10
     5f4:	00279713          	slli	a4,a5,0x2
     5f8:	974a                	add	a4,a4,s2
     5fa:	4318                	lw	a4,0(a4)
     5fc:	0207da63          	bgez	a5,630 <polydiv+0x1c6>
     600:	4681                	li	a3,0
     602:	a081                	j	642 <polydiv+0x1d8>
            num_temp[i] = num_temp[i] - product[i];
     604:	00279613          	slli	a2,a5,0x2
     608:	966e                	add	a2,a2,s11
     60a:	4314                	lw	a3,0(a4)
     60c:	4210                	lw	a2,0(a2)
        for (i = 0; i < size_N; ++i){
     60e:	0785                	addi	a5,a5,1
     610:	0711                	addi	a4,a4,4
            num_temp[i] = num_temp[i] - product[i];
     612:	8e91                	sub	a3,a3,a2
     614:	fed72e23          	sw	a3,-4(a4)
        for (i = 0; i < size_N; ++i){
     618:	bf7d                	j	5d6 <polydiv+0x16c>
            q[i] = q[i] + v[i];
     61a:	00279613          	slli	a2,a5,0x2
     61e:	965a                	add	a2,a2,s6
     620:	4314                	lw	a3,0(a4)
     622:	4210                	lw	a2,0(a2)
        for(i = 0; i < size_N; ++i){
     624:	0785                	addi	a5,a5,1
     626:	0711                	addi	a4,a4,4
            q[i] = q[i] + v[i];
     628:	96b2                	add	a3,a3,a2
     62a:	fed72e23          	sw	a3,-4(a4)
        for(i = 0; i < size_N; ++i){
     62e:	bf65                	j	5e6 <polydiv+0x17c>
            if( num_temp[i] != 0 )
     630:	fb61                	bnez	a4,600 <polydiv+0x196>
        for (i = size_N-1; i >= 0; i = i-1){
     632:	17fd                	addi	a5,a5,-1
     634:	b7c1                	j	5f4 <polydiv+0x18a>
            v[i] = 0;
     636:	00269613          	slli	a2,a3,0x2
     63a:	965a                	add	a2,a2,s6
     63c:	00062023          	sw	zero,0(a2)
        for (i = 0; i < size_N; ++i){
     640:	0685                	addi	a3,a3,1
     642:	fe96cae3          	blt	a3,s1,636 <polydiv+0x1cc>
     646:	bf11                	j	55a <polydiv+0xf0>
        result[i] = q[i];
     648:	00279713          	slli	a4,a5,0x2
     64c:	00e68633          	add	a2,a3,a4
     650:	975e                	add	a4,a4,s7
     652:	4318                	lw	a4,0(a4)
    for(i = 0; i < size_N; ++i){
     654:	0785                	addi	a5,a5,1
        result[i] = q[i];
     656:	c218                	sw	a4,0(a2)
    for(i = 0; i < size_N; ++i){
     658:	bf01                	j	568 <polydiv+0xfe>
        result[i] = num_temp[i-size_N];
     65a:	00092603          	lw	a2,0(s2)
     65e:	00249793          	slli	a5,s1,0x2
     662:	97b6                	add	a5,a5,a3
     664:	c390                	sw	a2,0(a5)
    for(i = size_N; i < (2*size_N); ++i){
     666:	0485                	addi	s1,s1,1
     668:	0911                	addi	s2,s2,4
     66a:	b739                	j	578 <polydiv+0x10e>

0000066c <ext_euclid>:
int* ext_euclid(int* polyR, int* polyf, int size, int mod) {
   

    int *return_address4;
    int N, i, j;
    int ri_2[size]; // MX-ring poly, a
     66c:	00261793          	slli	a5,a2,0x2
int* ext_euclid(int* polyR, int* polyf, int size, int mod) {
     670:	715d                	addi	sp,sp,-80
    int ri_2[size]; // MX-ring poly, a
     672:	07bd                	addi	a5,a5,15
     674:	9bc1                	andi	a5,a5,-16
int* ext_euclid(int* polyR, int* polyf, int size, int mod) {
     676:	c4a2                	sw	s0,72(sp)
     678:	c2a6                	sw	s1,68(sp)
     67a:	c0ca                	sw	s2,64(sp)
     67c:	de4e                	sw	s3,60(sp)
     67e:	dc52                	sw	s4,56(sp)
     680:	da56                	sw	s5,52(sp)
     682:	d85a                	sw	s6,48(sp)
     684:	d65e                	sw	s7,44(sp)
     686:	d462                	sw	s8,40(sp)
     688:	d266                	sw	s9,36(sp)
     68a:	ce6e                	sw	s11,28(sp)
     68c:	c686                	sw	ra,76(sp)
     68e:	d06a                	sw	s10,32(sp)
     690:	0880                	addi	s0,sp,80
    int ri_2[size]; // MX-ring poly, a
     692:	40f10133          	sub	sp,sp,a5
     696:	898a                	mv	s3,sp
    int ri_1[size]; // f-random poly, f[N] = 0, b
     698:	40f10133          	sub	sp,sp,a5
     69c:	8a8a                	mv	s5,sp
    int ri[size];
     69e:	40f10133          	sub	sp,sp,a5
     6a2:	8c0a                	mv	s8,sp

    int ti_1[size]; // ti_1[0] = 1
     6a4:	40f10133          	sub	sp,sp,a5
     6a8:	8b0a                	mv	s6,sp
    int ti[size];
     6aa:	40f10133          	sub	sp,sp,a5
     6ae:	8c8a                	mv	s9,sp
    int qi_1[size];
     6b0:	40f10133          	sub	sp,sp,a5
     6b4:	8b8a                	mv	s7,sp
    int temp[size];
     6b6:	40f10133          	sub	sp,sp,a5
int* ext_euclid(int* polyR, int* polyf, int size, int mod) {
     6ba:	84b6                	mv	s1,a3
     6bc:	8db2                	mv	s11,a2
    int ri_2[size]; // MX-ring poly, a
     6be:	fff60913          	addi	s2,a2,-1
    int temp[size];
     6c2:	8a0a                	mv	s4,sp
    int *res1;
    int *res2;
    int controlR = 1;

    N = size - 1;
    for (i = 0; i < size; ++i) {
     6c4:	4781                	li	a5,0
     6c6:	4701                	li	a4,0
        ri_2[i] = polyR[i];
        ri_1[i] = polyf[i];
        ti_2[i] = 0;
     6c8:	00001697          	auipc	a3,0x1
     6cc:	20c68693          	addi	a3,a3,524 # 18d4 <ti_2>
    for (i = 0; i < size; ++i) {
     6d0:	0fb74163          	blt	a4,s11,7b2 <ext_euclid+0x146>
    }
///// ri_2 = polyR      ///////
///// ri_1 = f         //////////
///// ti_2 = ti_1 = 0 /////////

    ti_1[0] = 1;
     6d4:	4785                	li	a5,1
     6d6:	00fb2023          	sw	a5,0(s6)
        // make mod for ri_1
	array_mod(ri_1,mod,N+1);


        res = polydiv(ri_2, N + 1, ri_1, N + 1, mod);
        for (i = N + 1; i < (2 * N + 2); ++i) {
     6da:	001d9793          	slli	a5,s11,0x1
     6de:	faf42e23          	sw	a5,-68(s0)
	
	array_mod(temp,mod,size);


        for (i = 0; i < N + 1; ++i) {
            ti[i] = ti_2[i] - temp[i];
     6e2:	00001d17          	auipc	s10,0x1
     6e6:	1f2d0d13          	addi	s10,s10,498 # 18d4 <ti_2>
	array_mod(ri_2,mod,N+1);
     6ea:	866e                	mv	a2,s11
     6ec:	85a6                	mv	a1,s1
     6ee:	854e                	mv	a0,s3
     6f0:	324d                	jal	92 <array_mod>
	array_mod(ri_1,mod,N+1);
     6f2:	866e                	mv	a2,s11
     6f4:	85a6                	mv	a1,s1
     6f6:	8556                	mv	a0,s5
     6f8:	3a69                	jal	92 <array_mod>
        res = polydiv(ri_2, N + 1, ri_1, N + 1, mod);
     6fa:	8726                	mv	a4,s1
     6fc:	86ee                	mv	a3,s11
     6fe:	8656                	mv	a2,s5
     700:	85ee                	mv	a1,s11
     702:	854e                	mv	a0,s3
     704:	339d                	jal	46a <polydiv>
        for (i = N + 1; i < (2 * N + 2); ++i) {
     706:	8762                	mv	a4,s8
     708:	87ee                	mv	a5,s11
     70a:	fbc42683          	lw	a3,-68(s0)
     70e:	0cd7cd63          	blt	a5,a3,7e8 <ext_euclid+0x17c>
     712:	4781                	li	a5,0
        for (i = 0; i < N + 1; ++i) {
     714:	4701                	li	a4,0
     716:	0ee95263          	bge	s2,a4,7fa <ext_euclid+0x18e>
        array_mod(temp,mod,N+1);
     71a:	866e                	mv	a2,s11
     71c:	85a6                	mv	a1,s1
     71e:	8552                	mv	a0,s4
     720:	3a8d                	jal	92 <array_mod>
        res1 = polydiv(temp, N + 1, ri_1, N + 1, mod);
     722:	8726                	mv	a4,s1
     724:	86ee                	mv	a3,s11
     726:	8656                	mv	a2,s5
     728:	85ee                	mv	a1,s11
     72a:	8552                	mv	a0,s4
     72c:	3b3d                	jal	46a <polydiv>
        for (i = 0; i < N + 1; ++i) {
     72e:	4781                	li	a5,0
     730:	0ef95263          	bge	s2,a5,814 <ext_euclid+0x1a8>
	array_mod(qi_1,mod,size);
     734:	866e                	mv	a2,s11
     736:	85a6                	mv	a1,s1
     738:	855e                	mv	a0,s7
     73a:	3aa1                	jal	92 <array_mod>
        res2 = polymult(qi_1, N + 1, ti_1, N + 1, mod, 0);
     73c:	4781                	li	a5,0
     73e:	8726                	mv	a4,s1
     740:	86ee                	mv	a3,s11
     742:	865a                	mv	a2,s6
     744:	85ee                	mv	a1,s11
     746:	855e                	mv	a0,s7
     748:	3ad9                	jal	11e <polymult>
        for (i = 0; i < N + 1; ++i) {
     74a:	4781                	li	a5,0
     74c:	0cf95d63          	bge	s2,a5,826 <ext_euclid+0x1ba>
	array_mod(temp,mod,size);
     750:	866e                	mv	a2,s11
     752:	85a6                	mv	a1,s1
     754:	8552                	mv	a0,s4
     756:	3a35                	jal	92 <array_mod>
        for (i = 0; i < N + 1; ++i) {
     758:	4781                	li	a5,0
     75a:	4701                	li	a4,0
     75c:	0ce95e63          	bge	s2,a4,838 <ext_euclid+0x1cc>
        }

        array_mod(ti,mod,N+1);
     760:	866e                	mv	a2,s11
     762:	85a6                	mv	a1,s1
     764:	8566                	mv	a0,s9
     766:	3235                	jal	92 <array_mod>

/// ri_2 = ri_1; ri_1 = ri; ti_2 = ti_1; ti_1 = ti; ///

        for (i = 0; i < N + 1; ++i) {
     768:	4781                	li	a5,0
        controlR = 0;
     76a:	4701                	li	a4,0
        for (i = 0; i < N + 1; ++i) {
     76c:	4681                	li	a3,0
     76e:	0ed95263          	bge	s2,a3,852 <ext_euclid+0x1e6>
    while (controlR != 0) {
     772:	ff25                	bnez	a4,6ea <ext_euclid+0x7e>
            controlR += ri[i];
        }
    }


        for (j = 0; j < mod; ++j) {
     774:	4781                	li	a5,0
            if (((ri_2[0] * j) % mod) == 1)
     776:	4605                	li	a2,1
        for (j = 0; j < mod; ++j) {
     778:	1097cb63          	blt	a5,s1,88e <ext_euclid+0x222>
     77c:	00001617          	auipc	a2,0x1
     780:	15860613          	addi	a2,a2,344 # 18d4 <ti_2>
            if (ri_2[i] != 0)
                //	printf("** GCD of SECRET POL and POLYR is not 1 !! OPERATION INVALID!! PICK ANOTHER RANDOM VALUE !! ***\n");
                break;
        }

        for (i = 0; i < N + 1; ++i) {
     784:	10e95f63          	bge	s2,a4,8a2 <ext_euclid+0x236>
        }


        return_address4 = &ti_2[0];
        return return_address4;
    }
     788:	fb040113          	addi	sp,s0,-80
     78c:	40b6                	lw	ra,76(sp)
     78e:	4426                	lw	s0,72(sp)
     790:	4496                	lw	s1,68(sp)
     792:	4906                	lw	s2,64(sp)
     794:	59f2                	lw	s3,60(sp)
     796:	5a62                	lw	s4,56(sp)
     798:	5ad2                	lw	s5,52(sp)
     79a:	5b42                	lw	s6,48(sp)
     79c:	5bb2                	lw	s7,44(sp)
     79e:	5c22                	lw	s8,40(sp)
     7a0:	5c92                	lw	s9,36(sp)
     7a2:	5d02                	lw	s10,32(sp)
     7a4:	4df2                	lw	s11,28(sp)
     7a6:	00001517          	auipc	a0,0x1
     7aa:	12e50513          	addi	a0,a0,302 # 18d4 <ti_2>
     7ae:	6161                	addi	sp,sp,80
     7b0:	8082                	ret
        ri_2[i] = polyR[i];
     7b2:	00f508b3          	add	a7,a0,a5
     7b6:	0008a883          	lw	a7,0(a7)
     7ba:	00f98633          	add	a2,s3,a5
    for (i = 0; i < size; ++i) {
     7be:	0705                	addi	a4,a4,1
        ri_2[i] = polyR[i];
     7c0:	01162023          	sw	a7,0(a2)
        ri_1[i] = polyf[i];
     7c4:	00f588b3          	add	a7,a1,a5
     7c8:	0008a883          	lw	a7,0(a7)
     7cc:	00fa8633          	add	a2,s5,a5
     7d0:	01162023          	sw	a7,0(a2)
        ti_2[i] = 0;
     7d4:	00f68633          	add	a2,a3,a5
     7d8:	00062023          	sw	zero,0(a2)
        ti_1[i] = 0;
     7dc:	00fb0633          	add	a2,s6,a5
     7e0:	00062023          	sw	zero,0(a2)
    for (i = 0; i < size; ++i) {
     7e4:	0791                	addi	a5,a5,4
     7e6:	b5ed                	j	6d0 <ext_euclid+0x64>
            ri[i - (N + 1)] = res[i];
     7e8:	00279693          	slli	a3,a5,0x2
     7ec:	96aa                	add	a3,a3,a0
     7ee:	4294                	lw	a3,0(a3)
        for (i = N + 1; i < (2 * N + 2); ++i) {
     7f0:	0785                	addi	a5,a5,1
     7f2:	0711                	addi	a4,a4,4
            ri[i - (N + 1)] = res[i];
     7f4:	fed72e23          	sw	a3,-4(a4)
        for (i = N + 1; i < (2 * N + 2); ++i) {
     7f8:	bf09                	j	70a <ext_euclid+0x9e>
            temp[i] = ri_2[i] - ri[i];
     7fa:	00f986b3          	add	a3,s3,a5
     7fe:	00fc05b3          	add	a1,s8,a5
     802:	4294                	lw	a3,0(a3)
     804:	418c                	lw	a1,0(a1)
     806:	00fa0633          	add	a2,s4,a5
        for (i = 0; i < N + 1; ++i) {
     80a:	0705                	addi	a4,a4,1
            temp[i] = ri_2[i] - ri[i];
     80c:	8e8d                	sub	a3,a3,a1
     80e:	c214                	sw	a3,0(a2)
        for (i = 0; i < N + 1; ++i) {
     810:	0791                	addi	a5,a5,4
     812:	b711                	j	716 <ext_euclid+0xaa>
            qi_1[i] = res1[i];
     814:	00279713          	slli	a4,a5,0x2
     818:	00e506b3          	add	a3,a0,a4
     81c:	4294                	lw	a3,0(a3)
     81e:	975e                	add	a4,a4,s7
        for (i = 0; i < N + 1; ++i) {
     820:	0785                	addi	a5,a5,1
            qi_1[i] = res1[i];
     822:	c314                	sw	a3,0(a4)
        for (i = 0; i < N + 1; ++i) {
     824:	b731                	j	730 <ext_euclid+0xc4>
            temp[i] = res2[i];
     826:	00279713          	slli	a4,a5,0x2
     82a:	00e506b3          	add	a3,a0,a4
     82e:	4294                	lw	a3,0(a3)
     830:	9752                	add	a4,a4,s4
        for (i = 0; i < N + 1; ++i) {
     832:	0785                	addi	a5,a5,1
            temp[i] = res2[i];
     834:	c314                	sw	a3,0(a4)
        for (i = 0; i < N + 1; ++i) {
     836:	bf19                	j	74c <ext_euclid+0xe0>
            ti[i] = ti_2[i] - temp[i];
     838:	00fd06b3          	add	a3,s10,a5
     83c:	00fa05b3          	add	a1,s4,a5
     840:	4294                	lw	a3,0(a3)
     842:	418c                	lw	a1,0(a1)
     844:	00fc8633          	add	a2,s9,a5
        for (i = 0; i < N + 1; ++i) {
     848:	0705                	addi	a4,a4,1
            ti[i] = ti_2[i] - temp[i];
     84a:	8e8d                	sub	a3,a3,a1
     84c:	c214                	sw	a3,0(a2)
        for (i = 0; i < N + 1; ++i) {
     84e:	0791                	addi	a5,a5,4
     850:	b731                	j	75c <ext_euclid+0xf0>
            ri_2[i] = ri_1[i];
     852:	00fa85b3          	add	a1,s5,a5
     856:	4188                	lw	a0,0(a1)
     858:	00f98633          	add	a2,s3,a5
        for (i = 0; i < N + 1; ++i) {
     85c:	0685                	addi	a3,a3,1
            ri_2[i] = ri_1[i];
     85e:	c208                	sw	a0,0(a2)
            ri_1[i] = ri[i];
     860:	00fc0633          	add	a2,s8,a5
     864:	4210                	lw	a2,0(a2)
            ti_2[i] = ti_1[i];
     866:	00fd0533          	add	a0,s10,a5
            ri_1[i] = ri[i];
     86a:	c190                	sw	a2,0(a1)
            ti_2[i] = ti_1[i];
     86c:	00fb05b3          	add	a1,s6,a5
     870:	0005a883          	lw	a7,0(a1)
            controlR += ri[i];
     874:	9732                	add	a4,a4,a2
            ti_2[i] = ti_1[i];
     876:	01152023          	sw	a7,0(a0)
            ti_1[i] = ti[i];
     87a:	00fc8533          	add	a0,s9,a5
     87e:	4108                	lw	a0,0(a0)
     880:	c188                	sw	a0,0(a1)
            qi_1[i] = 0;
     882:	00fb85b3          	add	a1,s7,a5
     886:	0005a023          	sw	zero,0(a1)
        for (i = 0; i < N + 1; ++i) {
     88a:	0791                	addi	a5,a5,4
     88c:	b5cd                	j	76e <ext_euclid+0x102>
            if (((ri_2[0] * j) % mod) == 1)
     88e:	0009a683          	lw	a3,0(s3)
     892:	02d786b3          	mul	a3,a5,a3
     896:	0296e6b3          	rem	a3,a3,s1
     89a:	eec681e3          	beq	a3,a2,77c <ext_euclid+0x110>
        for (j = 0; j < mod; ++j) {
     89e:	0785                	addi	a5,a5,1
     8a0:	bde1                	j	778 <ext_euclid+0x10c>
            ti_2[i] = (ti_2[i] * j) % mod;        // ti_2[i]*j vardı..
     8a2:	4214                	lw	a3,0(a2)
        for (i = 0; i < N + 1; ++i) {
     8a4:	0705                	addi	a4,a4,1
     8a6:	0611                	addi	a2,a2,4
            ti_2[i] = (ti_2[i] * j) % mod;        // ti_2[i]*j vardı..
     8a8:	02d786b3          	mul	a3,a5,a3
     8ac:	0296e6b3          	rem	a3,a3,s1
     8b0:	fed62e23          	sw	a3,-4(a2)
        for (i = 0; i < N + 1; ++i) {
     8b4:	bdc1                	j	784 <ext_euclid+0x118>

000008b6 <generate_keys>:




int* generate_keys(int N, int p, int q){
     8b6:	7141                	addi	sp,sp,-496
     8b8:	1e112623          	sw	ra,492(sp)
     8bc:	1e812423          	sw	s0,488(sp)
     8c0:	1e912223          	sw	s1,484(sp)
     8c4:	1b80                	addi	s0,sp,496
     8c6:	1f212023          	sw	s2,480(sp)
     8ca:	1d312e23          	sw	s3,476(sp)
     8ce:	1d412c23          	sw	s4,472(sp)
     8d2:	1d512a23          	sw	s5,468(sp)
     8d6:	1d612823          	sw	s6,464(sp)
     8da:	1d712623          	sw	s7,460(sp)
     8de:	1da12023          	sw	s10,448(sp)
     8e2:	1d812423          	sw	s8,456(sp)
     8e6:	1d912223          	sw	s9,452(sp)
     8ea:	892a                	mv	s2,a0
     8ec:	8bae                	mv	s7,a1
     8ee:	8b32                	mv	s6,a2
  

    int f[55] = {-1, 1, 1, 0, -1, 0, 1, 0, 0, 1, -1, -1, 0, 1, 0, -1, 0, 1, 1, 0, 0,  -1, 0, 1, 0, 0, 1, 1, 1,  -1, 0, 1, 0, 0, 1, 1, 1,    -1, 0, 1, 0, 0, 1, 1, 1};
     8f0:	4581                	li	a1,0
     8f2:	0d000613          	li	a2,208
     8f6:	e2440513          	addi	a0,s0,-476
     8fa:	2bb9                	jal	e58 <memset>
     8fc:	4485                	li	s1,1
     8fe:	59fd                	li	s3,-1
    int g[55] = {-1, 0, 1, 1, 0, 1, 0, 0, -1, 0, -1, -1, 0, 1, 0, -1, 0, 1, 0, 0, 1, -1, 0, 1, 0, 0, 1, -1, 0, 1, 0, 0, 1, -1, 0, 1, 0, 1,   1, 0, 0, 1, -1, 0, 1, 0, 1};
     900:	0d800613          	li	a2,216
     904:	4581                	li	a1,0
     906:	ef840513          	addi	a0,s0,-264
    int f[55] = {-1, 1, 1, 0, -1, 0, 1, 0, 0, 1, -1, -1, 0, 1, 0, -1, 0, 1, 1, 0, 0,  -1, 0, 1, 0, 0, 1, 1, 1,  -1, 0, 1, 0, 0, 1, 1, 1,    -1, 0, 1, 0, 0, 1, 1, 1};
     90a:	e1342c23          	sw	s3,-488(s0)
     90e:	e0942e23          	sw	s1,-484(s0)
     912:	e2942023          	sw	s1,-480(s0)
     916:	e3342423          	sw	s3,-472(s0)
     91a:	e2942823          	sw	s1,-464(s0)
     91e:	e2942e23          	sw	s1,-452(s0)
     922:	e5342023          	sw	s3,-448(s0)
     926:	e5342223          	sw	s3,-444(s0)
     92a:	e4942623          	sw	s1,-436(s0)
     92e:	e5342a23          	sw	s3,-428(s0)
     932:	e4942e23          	sw	s1,-420(s0)
     936:	e6942023          	sw	s1,-416(s0)
     93a:	e7342623          	sw	s3,-404(s0)
     93e:	e6942a23          	sw	s1,-396(s0)
     942:	e8942023          	sw	s1,-384(s0)
     946:	e8942223          	sw	s1,-380(s0)
     94a:	e8942423          	sw	s1,-376(s0)
     94e:	e9342623          	sw	s3,-372(s0)
     952:	e8942a23          	sw	s1,-364(s0)
     956:	ea942023          	sw	s1,-352(s0)
     95a:	ea942223          	sw	s1,-348(s0)
     95e:	ea942423          	sw	s1,-344(s0)
     962:	eb342623          	sw	s3,-340(s0)
     966:	ea942a23          	sw	s1,-332(s0)
     96a:	ec942023          	sw	s1,-320(s0)
     96e:	ec942223          	sw	s1,-316(s0)
     972:	ec942423          	sw	s1,-312(s0)

    int *fp;
    int *fq;
    int *fg;
    int *pk;
    int polyR[N+1];
     976:	00190a93          	addi	s5,s2,1
    int g[55] = {-1, 0, 1, 1, 0, 1, 0, 0, -1, 0, -1, -1, 0, 1, 0, -1, 0, 1, 0, 0, 1, -1, 0, 1, 0, 0, 1, -1, 0, 1, 0, 0, 1, -1, 0, 1, 0, 1,   1, 0, 0, 1, -1, 0, 1, 0, 1};
     97a:	29f9                	jal	e58 <memset>
    int polyR[N+1];
     97c:	002a9793          	slli	a5,s5,0x2
     980:	07bd                	addi	a5,a5,15
     982:	9bc1                	andi	a5,a5,-16
     984:	40f10133          	sub	sp,sp,a5
     988:	8a0a                	mv	s4,sp
    int i;
    int* return_address5;


    polyR[N] = 1;
     98a:	00291d13          	slli	s10,s2,0x2
     98e:	01aa07b3          	add	a5,s4,s10
     992:	c384                	sw	s1,0(a5)
    int g[55] = {-1, 0, 1, 1, 0, 1, 0, 0, -1, 0, -1, -1, 0, 1, 0, -1, 0, 1, 0, 0, 1, -1, 0, 1, 0, 0, 1, -1, 0, 1, 0, 0, 1, -1, 0, 1, 0, 1,   1, 0, 0, 1, -1, 0, 1, 0, 1};
     994:	ef342a23          	sw	s3,-268(s0)
     998:	ee942e23          	sw	s1,-260(s0)
     99c:	f0942023          	sw	s1,-256(s0)
     9a0:	f0942423          	sw	s1,-248(s0)
     9a4:	f1342a23          	sw	s3,-236(s0)
     9a8:	f1342e23          	sw	s3,-228(s0)
     9ac:	f3342023          	sw	s3,-224(s0)
     9b0:	f2942423          	sw	s1,-216(s0)
     9b4:	f3342823          	sw	s3,-208(s0)
     9b8:	f2942c23          	sw	s1,-200(s0)
     9bc:	f4942223          	sw	s1,-188(s0)
     9c0:	f5342423          	sw	s3,-184(s0)
     9c4:	f4942823          	sw	s1,-176(s0)
     9c8:	f4942e23          	sw	s1,-164(s0)
     9cc:	f7342023          	sw	s3,-160(s0)
     9d0:	f6942423          	sw	s1,-152(s0)
     9d4:	f6942a23          	sw	s1,-140(s0)
     9d8:	f7342c23          	sw	s3,-136(s0)
     9dc:	f8942023          	sw	s1,-128(s0)
     9e0:	f8942423          	sw	s1,-120(s0)
     9e4:	f8942623          	sw	s1,-116(s0)
     9e8:	f8942c23          	sw	s1,-104(s0)
     9ec:	f9342e23          	sw	s3,-100(s0)
     9f0:	fa942223          	sw	s1,-92(s0)
     9f4:	fa942623          	sw	s1,-84(s0)
    polyR[0] = -1;
     9f8:	013a2023          	sw	s3,0(s4)

    for(i = 1; i < N; ++i){
     9fc:	4785                	li	a5,1
     9fe:	1127c163          	blt	a5,s2,b00 <generate_keys+0x24a>
     a02:	87ca                	mv	a5,s2
        polyR[i] = 0;
    }



    for (i = N; i < 55; ++i ){
     a04:	03600693          	li	a3,54
     a08:	10f6d363          	bge	a3,a5,b0e <generate_keys+0x258>
        g[i] = 0;
    }
///// F VE G ARRAYLERİNİN SONLARI SIFIRLANDI //////


    for(i = 0; i < N; ++i){
     a0c:	4781                	li	a5,0
        random_keys[i] = f[i];
     a0e:	00001697          	auipc	a3,0x1
     a12:	05668693          	addi	a3,a3,86 # 1a64 <random_keys>
    for(i = 0; i < N; ++i){
     a16:	1127ca63          	blt	a5,s2,b2a <generate_keys+0x274>
     a1a:	ef440713          	addi	a4,s0,-268
    }
    ////RANDOM_KEYS 0-52 ARASI F////

    for(i = N; i < (2*N); ++i){
     a1e:	00191993          	slli	s3,s2,0x1
     a22:	87ca                	mv	a5,s2
     a24:	8cba                	mv	s9,a4
        random_keys[i] = g[i-N];
     a26:	00001617          	auipc	a2,0x1
     a2a:	03e60613          	addi	a2,a2,62 # 1a64 <random_keys>
    for(i = N; i < (2*N); ++i){
     a2e:	1137c963          	blt	a5,s3,b40 <generate_keys+0x28a>
    ////RANDOM_KEYS 53-105 ARASI G////

    fp = ext_euclid(polyR, f, (N+1), p);
    ////FP HESAPLANDI////

    for(i = (2*N); i < (3*N); ++i){
     a32:	448d                	li	s1,3
     a34:	029904b3          	mul	s1,s2,s1
    fp = ext_euclid(polyR, f, (N+1), p);
     a38:	86de                	mv	a3,s7
     a3a:	8656                	mv	a2,s5
     a3c:	e1840593          	addi	a1,s0,-488
     a40:	8552                	mv	a0,s4
     a42:	312d                	jal	66c <ext_euclid>
    for(i = (2*N); i < (3*N); ++i){
     a44:	87ce                	mv	a5,s3
        random_keys[i] = fp[i-(2*N)];
     a46:	00001697          	auipc	a3,0x1
     a4a:	01e68693          	addi	a3,a3,30 # 1a64 <random_keys>
    for(i = (2*N); i < (3*N); ++i){
     a4e:	1097c163          	blt	a5,s1,b50 <generate_keys+0x29a>
    }
    ////RANDOM_KEYS 106-158 ARASI FP////


    fq = ext_euclid(polyR, f, (N+1), q);
     a52:	8656                	mv	a2,s5
     a54:	86da                	mv	a3,s6
     a56:	e1840593          	addi	a1,s0,-488
     a5a:	8552                	mv	a0,s4
     a5c:	3901                	jal	66c <ext_euclid>
    ////FQ HESAPLANDI ////


    for(i = (3*N); i < (4*N); ++i){
     a5e:	5751                	li	a4,-12
     a60:	02e90733          	mul	a4,s2,a4
     a64:	8c6a                	mv	s8,s10
        random_keys[i] = fq[i-(3*N)];
     a66:	00001617          	auipc	a2,0x1
     a6a:	ffe60613          	addi	a2,a2,-2 # 1a64 <random_keys>
    for(i = (3*N); i < (4*N); ++i){
     a6e:	0fa4c963          	blt	s1,s10,b60 <generate_keys+0x2aa>
    }
    ////RANDOM KEYS 159-211 ARASI FQ ////

    fg = polymult2(fq, N, g, N, 0);
     a72:	4701                	li	a4,0
     a74:	85ca                	mv	a1,s2
     a76:	86ca                	mv	a3,s2
     a78:	8666                	mv	a2,s9
     a7a:	3041                	jal	2fa <polymult2>
    //// FG HESAPLANDI ////

    for(i = 0; i < (2*N-1); ++i){
     a7c:	87aa                	mv	a5,a0
     a7e:	4701                	li	a4,0
     a80:	fff98593          	addi	a1,s3,-1
     a84:	0eb74863          	blt	a4,a1,b74 <generate_keys+0x2be>
        fg[i] = fg[i]*p;
    }

    //// FG = 3FG ////

    pk = polydiv(fg, (2*N-1), polyR, (N+1), q);
     a88:	86d6                	mv	a3,s5
     a8a:	875a                	mv	a4,s6
     a8c:	8652                	mv	a2,s4
     a8e:	3af1                	jal	46a <polydiv>

    ////PK HESAPLANDI////

    for(i = (4*N); i < (5*N); ++i){
     a90:	4795                	li	a5,5
     a92:	02f907b3          	mul	a5,s2,a5
     a96:	098a                	slli	s3,s3,0x2
     a98:	99aa                	add	s3,s3,a0
        random_keys[i] = pk[i-(4*N)+(2*N-1)];
     a9a:	00001697          	auipc	a3,0x1
     a9e:	fca68693          	addi	a3,a3,-54 # 1a64 <random_keys>
    for(i = (4*N); i < (5*N); ++i){
     aa2:	0991                	addi	s3,s3,4
     aa4:	0efc4063          	blt	s8,a5,b84 <generate_keys+0x2ce>
    }
    //////// RANDOM KEYS SONU PK  ////////

    for(i = (5*N); i < (6*N+1); ++i){
     aa8:	4699                	li	a3,6
     aaa:	5531                	li	a0,-20
        random_keys[i] = polyR[i-(5*N)];
     aac:	00001617          	auipc	a2,0x1
     ab0:	fb860613          	addi	a2,a2,-72 # 1a64 <random_keys>
    for(i = (5*N); i < (6*N+1); ++i){
     ab4:	02d906b3          	mul	a3,s2,a3
     ab8:	02a90933          	mul	s2,s2,a0
     abc:	0cf6dc63          	bge	a3,a5,b94 <generate_keys+0x2de>


    return_address5 = &random_keys[0];

    return return_address5;
}
     ac0:	e1040113          	addi	sp,s0,-496
     ac4:	1ec12083          	lw	ra,492(sp)
     ac8:	1e812403          	lw	s0,488(sp)
     acc:	1e412483          	lw	s1,484(sp)
     ad0:	1e012903          	lw	s2,480(sp)
     ad4:	1dc12983          	lw	s3,476(sp)
     ad8:	1d812a03          	lw	s4,472(sp)
     adc:	1d412a83          	lw	s5,468(sp)
     ae0:	1d012b03          	lw	s6,464(sp)
     ae4:	1cc12b83          	lw	s7,460(sp)
     ae8:	1c812c03          	lw	s8,456(sp)
     aec:	1c412c83          	lw	s9,452(sp)
     af0:	1c012d03          	lw	s10,448(sp)
     af4:	00001517          	auipc	a0,0x1
     af8:	f7050513          	addi	a0,a0,-144 # 1a64 <random_keys>
     afc:	617d                	addi	sp,sp,496
     afe:	8082                	ret
        polyR[i] = 0;
     b00:	00279713          	slli	a4,a5,0x2
     b04:	9752                	add	a4,a4,s4
     b06:	00072023          	sw	zero,0(a4)
    for(i = 1; i < N; ++i){
     b0a:	0785                	addi	a5,a5,1
     b0c:	bdcd                	j	9fe <generate_keys+0x148>
        f[i] = 0;
     b0e:	00279713          	slli	a4,a5,0x2
     b12:	e1840613          	addi	a2,s0,-488
     b16:	963a                	add	a2,a2,a4
     b18:	00062023          	sw	zero,0(a2)
        g[i] = 0;
     b1c:	ef440613          	addi	a2,s0,-268
     b20:	9732                	add	a4,a4,a2
     b22:	00072023          	sw	zero,0(a4)
    for (i = N; i < 55; ++i ){
     b26:	0785                	addi	a5,a5,1
     b28:	b5c5                	j	a08 <generate_keys+0x152>
        random_keys[i] = f[i];
     b2a:	00279713          	slli	a4,a5,0x2
     b2e:	e1840593          	addi	a1,s0,-488
     b32:	00e68633          	add	a2,a3,a4
     b36:	972e                	add	a4,a4,a1
     b38:	4318                	lw	a4,0(a4)
    for(i = 0; i < N; ++i){
     b3a:	0785                	addi	a5,a5,1
        random_keys[i] = f[i];
     b3c:	c218                	sw	a4,0(a2)
    for(i = 0; i < N; ++i){
     b3e:	bde1                	j	a16 <generate_keys+0x160>
        random_keys[i] = g[i-N];
     b40:	430c                	lw	a1,0(a4)
     b42:	00279693          	slli	a3,a5,0x2
     b46:	96b2                	add	a3,a3,a2
     b48:	c28c                	sw	a1,0(a3)
    for(i = N; i < (2*N); ++i){
     b4a:	0785                	addi	a5,a5,1
     b4c:	0711                	addi	a4,a4,4
     b4e:	b5c5                	j	a2e <generate_keys+0x178>
        random_keys[i] = fp[i-(2*N)];
     b50:	4110                	lw	a2,0(a0)
     b52:	00279713          	slli	a4,a5,0x2
     b56:	9736                	add	a4,a4,a3
     b58:	c310                	sw	a2,0(a4)
    for(i = (2*N); i < (3*N); ++i){
     b5a:	0785                	addi	a5,a5,1
     b5c:	0511                	addi	a0,a0,4
     b5e:	bdc5                	j	a4e <generate_keys+0x198>
        random_keys[i] = fq[i-(3*N)];
     b60:	00249793          	slli	a5,s1,0x2
     b64:	00f706b3          	add	a3,a4,a5
     b68:	96aa                	add	a3,a3,a0
     b6a:	4294                	lw	a3,0(a3)
     b6c:	97b2                	add	a5,a5,a2
    for(i = (3*N); i < (4*N); ++i){
     b6e:	0485                	addi	s1,s1,1
        random_keys[i] = fq[i-(3*N)];
     b70:	c394                	sw	a3,0(a5)
    for(i = (3*N); i < (4*N); ++i){
     b72:	bdf5                	j	a6e <generate_keys+0x1b8>
        fg[i] = fg[i]*p;
     b74:	4394                	lw	a3,0(a5)
    for(i = 0; i < (2*N-1); ++i){
     b76:	0705                	addi	a4,a4,1
     b78:	0791                	addi	a5,a5,4
        fg[i] = fg[i]*p;
     b7a:	037686b3          	mul	a3,a3,s7
     b7e:	fed7ae23          	sw	a3,-4(a5)
    for(i = 0; i < (2*N-1); ++i){
     b82:	b709                	j	a84 <generate_keys+0x1ce>
        random_keys[i] = pk[i-(4*N)+(2*N-1)];
     b84:	ff89a603          	lw	a2,-8(s3)
     b88:	002c1713          	slli	a4,s8,0x2
     b8c:	9736                	add	a4,a4,a3
     b8e:	c310                	sw	a2,0(a4)
    for(i = (4*N); i < (5*N); ++i){
     b90:	0c05                	addi	s8,s8,1
     b92:	bf01                	j	aa2 <generate_keys+0x1ec>
        random_keys[i] = polyR[i-(5*N)];
     b94:	00279713          	slli	a4,a5,0x2
     b98:	00e605b3          	add	a1,a2,a4
     b9c:	974a                	add	a4,a4,s2
     b9e:	9752                	add	a4,a4,s4
     ba0:	4318                	lw	a4,0(a4)
    for(i = (5*N); i < (6*N+1); ++i){
     ba2:	0785                	addi	a5,a5,1
        random_keys[i] = polyR[i-(5*N)];
     ba4:	c198                	sw	a4,0(a1)
    for(i = (5*N); i < (6*N+1); ++i){
     ba6:	bf19                	j	abc <generate_keys+0x206>

00000ba8 <ntru_encyrpt>:


int* ntru_encyrpt(int N, int q, int* message, int* public_key, int* polyR){
     ba8:	7115                	addi	sp,sp,-224
     baa:	cda2                	sw	s0,216(sp)
     bac:	cba6                	sw	s1,212(sp)
     bae:	c9ca                	sw	s2,208(sp)
     bb0:	842a                	mv	s0,a0
     bb2:	892e                	mv	s2,a1
     bb4:	84b2                	mv	s1,a2

    int *return_address6;
    int *CT;

    int random_val[48] = { 1, -1, 0, 1, -1, 1, -1, 0,1, 1, 0, -1, 1, -1, 1, 0,1, 1, 0, -1, 1, -1, 1, 0,1, 1, 0, 1, -1, 1, -1, 0, 1, -1, 0, 1, -1, 1, -1, 0,1, 1, 0, -1, 1, -1, 1, 0};
     bb6:	00000597          	auipc	a1,0x0
     bba:	49258593          	addi	a1,a1,1170 # 1048 <__DTOR_END__>
     bbe:	0c000613          	li	a2,192
     bc2:	850a                	mv	a0,sp
int* ntru_encyrpt(int N, int q, int* message, int* public_key, int* polyR){
     bc4:	cf86                	sw	ra,220(sp)
     bc6:	c7ce                	sw	s3,204(sp)
     bc8:	c5d2                	sw	s4,200(sp)
     bca:	89ba                	mv	s3,a4
     bcc:	8a36                	mv	s4,a3
    int random_val[48] = { 1, -1, 0, 1, -1, 1, -1, 0,1, 1, 0, -1, 1, -1, 1, 0,1, 1, 0, -1, 1, -1, 1, 0,1, 1, 0, 1, -1, 1, -1, 0, 1, -1, 0, 1, -1, 1, -1, 0,1, 1, 0, -1, 1, -1, 1, 0};
     bce:	2275                	jal	d7a <memcpy>
    int *temp;
    int i;


    temp = polymult(public_key,N,random_val,48,q,0);
     bd0:	4781                	li	a5,0
     bd2:	860a                	mv	a2,sp
     bd4:	874a                	mv	a4,s2
     bd6:	03000693          	li	a3,48
     bda:	85a2                	mv	a1,s0
     bdc:	8552                	mv	a0,s4
     bde:	d40ff0ef          	jal	ra,11e <polymult>
     be2:	4781                	li	a5,0

    /////// PUBLIC_KEY*RANDOM_VALUE ///////

    for(i = 0; i < 48; ++i){
     be4:	0c000613          	li	a2,192
        temp[i] = temp[i] + message[i];
     be8:	00f506b3          	add	a3,a0,a5
     bec:	00f485b3          	add	a1,s1,a5
     bf0:	4298                	lw	a4,0(a3)
     bf2:	418c                	lw	a1,0(a1)
     bf4:	0791                	addi	a5,a5,4
     bf6:	972e                	add	a4,a4,a1
     bf8:	c298                	sw	a4,0(a3)
    for(i = 0; i < 48; ++i){
     bfa:	fec797e3          	bne	a5,a2,be8 <ntru_encyrpt+0x40>
    }

    ////// PUBLIC_KEY*RANDOM_VALUE + MESSAGE ///////

    CT = polydiv(temp,(2*N),polyR,(N+1),q);
     bfe:	00141493          	slli	s1,s0,0x1
     c02:	00140693          	addi	a3,s0,1
     c06:	874a                	mv	a4,s2
     c08:	864e                	mv	a2,s3
     c0a:	85a6                	mv	a1,s1
     c0c:	38b9                	jal	46a <polydiv>

    for(i = (2*N); i < (3*N); ++i){
     c0e:	478d                	li	a5,3
     c10:	02f40433          	mul	s0,s0,a5
     c14:	87aa                	mv	a5,a0
     c16:	0084ca63          	blt	s1,s0,c2a <ntru_encyrpt+0x82>
    ///// YUKARIDAKI IKI ISLEM MODULO OPERASYONU YAPIYOR /////


    return_address6 = &CT[0];
    return return_address6;
}
     c1a:	40fe                	lw	ra,220(sp)
     c1c:	446e                	lw	s0,216(sp)
     c1e:	44de                	lw	s1,212(sp)
     c20:	494e                	lw	s2,208(sp)
     c22:	49be                	lw	s3,204(sp)
     c24:	4a2e                	lw	s4,200(sp)
     c26:	612d                	addi	sp,sp,224
     c28:	8082                	ret
        CT[i-(2*N)] = CT[i];
     c2a:	00249713          	slli	a4,s1,0x2
     c2e:	972a                	add	a4,a4,a0
     c30:	4318                	lw	a4,0(a4)
    for(i = (2*N); i < (3*N); ++i){
     c32:	0485                	addi	s1,s1,1
     c34:	0791                	addi	a5,a5,4
        CT[i-(2*N)] = CT[i];
     c36:	fee7ae23          	sw	a4,-4(a5)
    for(i = (2*N); i < (3*N); ++i){
     c3a:	bff1                	j	c16 <ntru_encyrpt+0x6e>

00000c3c <ntru_deceypt>:


int* ntru_deceypt(int N, int p, int q, int* secret_key_f, int* secret_key_fp, int* Enc_Message, int* polyR){
     c3c:	7179                	addi	sp,sp,-48
     c3e:	d422                	sw	s0,40(sp)
     c40:	ce4e                	sw	s3,28(sp)
     c42:	842a                	mv	s0,a0


    a2 = polydiv(a,(2*N),polyR,(N+1),q);
/////////// Vector a2 (f.e modq) /////////

    for(i = (2*N); i < ((2*N)+N); ++i){
     c44:	498d                	li	s3,3
     c46:	033409b3          	mul	s3,s0,s3
int* ntru_deceypt(int N, int p, int q, int* secret_key_f, int* secret_key_fp, int* Enc_Message, int* polyR){
     c4a:	d04a                	sw	s2,32(sp)
     c4c:	ca56                	sw	s5,20(sp)
     c4e:	c65e                	sw	s7,12(sp)
     c50:	8932                	mv	s2,a2
     c52:	8536                	mv	a0,a3
    a = polymult2(secret_key_f,N,Enc_Message,N,0);
     c54:	863e                	mv	a2,a5
     c56:	86a2                	mv	a3,s0
int* ntru_deceypt(int N, int p, int q, int* secret_key_f, int* secret_key_fp, int* Enc_Message, int* polyR){
     c58:	8aae                	mv	s5,a1
     c5a:	8bba                	mv	s7,a4
    a = polymult2(secret_key_f,N,Enc_Message,N,0);
     c5c:	85a2                	mv	a1,s0
     c5e:	4701                	li	a4,0
int* ntru_deceypt(int N, int p, int q, int* secret_key_f, int* secret_key_fp, int* Enc_Message, int* polyR){
     c60:	d606                	sw	ra,44(sp)
     c62:	d226                	sw	s1,36(sp)
     c64:	cc52                	sw	s4,24(sp)
     c66:	c85a                	sw	s6,16(sp)
     c68:	8a42                	mv	s4,a6
    a2 = polydiv(a,(2*N),polyR,(N+1),q);
     c6a:	00141493          	slli	s1,s0,0x1
    a = polymult2(secret_key_f,N,Enc_Message,N,0);
     c6e:	e8cff0ef          	jal	ra,2fa <polymult2>
    a2 = polydiv(a,(2*N),polyR,(N+1),q);
     c72:	00140b13          	addi	s6,s0,1
     c76:	874a                	mv	a4,s2
     c78:	86da                	mv	a3,s6
     c7a:	8652                	mv	a2,s4
     c7c:	85a6                	mv	a1,s1
     c7e:	fecff0ef          	jal	ra,46a <polydiv>
     c82:	862a                	mv	a2,a0
    for(i = (2*N); i < ((2*N)+N); ++i){
     c84:	87aa                	mv	a5,a0
     c86:	872a                	mv	a4,a0
     c88:	86a6                	mv	a3,s1
     c8a:	0536c263          	blt	a3,s3,cce <ntru_deceypt+0x92>
        a2[i-(2*N)] = a2[i];
    }

    //centerlifting a2
    for (i = 0; i < N; ++i){
        if(a2[i] <= q/2)
     c8e:	4589                	li	a1,2
     c90:	02b945b3          	div	a1,s2,a1
    for (i = 0; i < N; ++i){
     c94:	4701                	li	a4,0
     c96:	04874563          	blt	a4,s0,ce0 <ntru_deceypt+0xa4>
        else
            a2[i] = (-1)*(q-a2[i]);
    }


    c = polymult2(secret_key_fp,N,a2,N,0);
     c9a:	4701                	li	a4,0
     c9c:	86a2                	mv	a3,s0
     c9e:	85a2                	mv	a1,s0
     ca0:	855e                	mv	a0,s7
     ca2:	e58ff0ef          	jal	ra,2fa <polymult2>
/////////"Vector c(fp*a2)//////////


    c2 = polydiv(c,(2*N),polyR,(N+1),p);
     ca6:	8756                	mv	a4,s5
     ca8:	86da                	mv	a3,s6
     caa:	8652                	mv	a2,s4
     cac:	85a6                	mv	a1,s1
     cae:	fbcff0ef          	jal	ra,46a <polydiv>
    for(i = (2*N); i < ((2*N)+N); ++i){
     cb2:	87aa                	mv	a5,a0
     cb4:	0334cf63          	blt	s1,s3,cf2 <ntru_deceypt+0xb6>
    }
    ////////"Vector c2 (decrypted message)/////////

    return_address7 = &c2[0];
    return return_address7;
}
     cb8:	50b2                	lw	ra,44(sp)
     cba:	5422                	lw	s0,40(sp)
     cbc:	5492                	lw	s1,36(sp)
     cbe:	5902                	lw	s2,32(sp)
     cc0:	49f2                	lw	s3,28(sp)
     cc2:	4a62                	lw	s4,24(sp)
     cc4:	4ad2                	lw	s5,20(sp)
     cc6:	4b42                	lw	s6,16(sp)
     cc8:	4bb2                	lw	s7,12(sp)
     cca:	6145                	addi	sp,sp,48
     ccc:	8082                	ret
        a2[i-(2*N)] = a2[i];
     cce:	00269593          	slli	a1,a3,0x2
     cd2:	95b2                	add	a1,a1,a2
     cd4:	418c                	lw	a1,0(a1)
    for(i = (2*N); i < ((2*N)+N); ++i){
     cd6:	0685                	addi	a3,a3,1
     cd8:	0711                	addi	a4,a4,4
        a2[i-(2*N)] = a2[i];
     cda:	feb72e23          	sw	a1,-4(a4)
    for(i = (2*N); i < ((2*N)+N); ++i){
     cde:	b775                	j	c8a <ntru_deceypt+0x4e>
        if(a2[i] <= q/2)
     ce0:	4394                	lw	a3,0(a5)
     ce2:	00d5d563          	bge	a1,a3,cec <ntru_deceypt+0xb0>
            a2[i] = (-1)*(q-a2[i]);
     ce6:	412686b3          	sub	a3,a3,s2
     cea:	c394                	sw	a3,0(a5)
    for (i = 0; i < N; ++i){
     cec:	0705                	addi	a4,a4,1
     cee:	0791                	addi	a5,a5,4
     cf0:	b75d                	j	c96 <ntru_deceypt+0x5a>
        c2[i-(2*N)] = c2[i];
     cf2:	00249713          	slli	a4,s1,0x2
     cf6:	972a                	add	a4,a4,a0
     cf8:	4318                	lw	a4,0(a4)
    for(i = (2*N); i < ((2*N)+N); ++i){
     cfa:	0485                	addi	s1,s1,1
     cfc:	0791                	addi	a5,a5,4
        c2[i-(2*N)] = c2[i];
     cfe:	fee7ae23          	sw	a4,-4(a5)
    for(i = (2*N); i < ((2*N)+N); ++i){
     d02:	bf4d                	j	cb4 <ntru_deceypt+0x78>

00000d04 <default_exc_handler>:
     d04:	0000006f          	j	d04 <default_exc_handler>

00000d08 <reset_handler>:
     d08:	00000093          	li	ra,0
     d0c:	8106                	mv	sp,ra
     d0e:	8186                	mv	gp,ra
     d10:	8206                	mv	tp,ra
     d12:	8286                	mv	t0,ra
     d14:	8306                	mv	t1,ra
     d16:	8386                	mv	t2,ra
     d18:	8406                	mv	s0,ra
     d1a:	8486                	mv	s1,ra
     d1c:	8506                	mv	a0,ra
     d1e:	8586                	mv	a1,ra
     d20:	8606                	mv	a2,ra
     d22:	8686                	mv	a3,ra
     d24:	8706                	mv	a4,ra
     d26:	8786                	mv	a5,ra
     d28:	8806                	mv	a6,ra
     d2a:	8886                	mv	a7,ra
     d2c:	8906                	mv	s2,ra
     d2e:	8986                	mv	s3,ra
     d30:	8a06                	mv	s4,ra
     d32:	8a86                	mv	s5,ra
     d34:	8b06                	mv	s6,ra
     d36:	8b86                	mv	s7,ra
     d38:	8c06                	mv	s8,ra
     d3a:	8c86                	mv	s9,ra
     d3c:	8d06                	mv	s10,ra
     d3e:	8d86                	mv	s11,ra
     d40:	8e06                	mv	t3,ra
     d42:	8e86                	mv	t4,ra
     d44:	8f06                	mv	t5,ra
     d46:	8f86                	mv	t6,ra
     d48:	0000f117          	auipc	sp,0xf
     d4c:	2b810113          	addi	sp,sp,696 # 10000 <_stack_start>

00000d50 <_start>:
     d50:	00000d17          	auipc	s10,0x0
     d54:	47cd0d13          	addi	s10,s10,1148 # 11cc <_bss_start>
     d58:	00001d97          	auipc	s11,0x1
     d5c:	204d8d93          	addi	s11,s11,516 # 1f5c <_bss_end>
     d60:	01bd5763          	bge	s10,s11,d6e <main_entry>

00000d64 <zero_loop>:
     d64:	000d2023          	sw	zero,0(s10)
     d68:	0d11                	addi	s10,s10,4
     d6a:	ffaddde3          	bge	s11,s10,d64 <zero_loop>

00000d6e <main_entry>:
     d6e:	00000513          	li	a0,0
     d72:	00000593          	li	a1,0
     d76:	18a000ef          	jal	ra,f00 <main>

00000d7a <memcpy>:
     d7a:	00a5c7b3          	xor	a5,a1,a0
     d7e:	8b8d                	andi	a5,a5,3
     d80:	00c508b3          	add	a7,a0,a2
     d84:	e7a1                	bnez	a5,dcc <memcpy+0x52>
     d86:	478d                	li	a5,3
     d88:	04c7f263          	bgeu	a5,a2,dcc <memcpy+0x52>
     d8c:	00357793          	andi	a5,a0,3
     d90:	872a                	mv	a4,a0
     d92:	eba9                	bnez	a5,de4 <memcpy+0x6a>
     d94:	ffc8f613          	andi	a2,a7,-4
     d98:	fe060793          	addi	a5,a2,-32
     d9c:	06f76763          	bltu	a4,a5,e0a <memcpy+0x90>
     da0:	02c77363          	bgeu	a4,a2,dc6 <memcpy+0x4c>
     da4:	86ae                	mv	a3,a1
     da6:	87ba                	mv	a5,a4
     da8:	0006a803          	lw	a6,0(a3)
     dac:	0791                	addi	a5,a5,4
     dae:	0691                	addi	a3,a3,4
     db0:	ff07ae23          	sw	a6,-4(a5)
     db4:	fec7eae3          	bltu	a5,a2,da8 <memcpy+0x2e>
     db8:	fff60793          	addi	a5,a2,-1
     dbc:	8f99                	sub	a5,a5,a4
     dbe:	9bf1                	andi	a5,a5,-4
     dc0:	0791                	addi	a5,a5,4
     dc2:	973e                	add	a4,a4,a5
     dc4:	95be                	add	a1,a1,a5
     dc6:	01176663          	bltu	a4,a7,dd2 <memcpy+0x58>
     dca:	8082                	ret
     dcc:	872a                	mv	a4,a0
     dce:	ff157ee3          	bgeu	a0,a7,dca <memcpy+0x50>
     dd2:	0005c783          	lbu	a5,0(a1)
     dd6:	0705                	addi	a4,a4,1
     dd8:	0585                	addi	a1,a1,1
     dda:	fef70fa3          	sb	a5,-1(a4)
     dde:	ff176ae3          	bltu	a4,a7,dd2 <memcpy+0x58>
     de2:	8082                	ret
     de4:	0005c683          	lbu	a3,0(a1)
     de8:	0705                	addi	a4,a4,1
     dea:	00377793          	andi	a5,a4,3
     dee:	fed70fa3          	sb	a3,-1(a4)
     df2:	0585                	addi	a1,a1,1
     df4:	d3c5                	beqz	a5,d94 <memcpy+0x1a>
     df6:	0005c683          	lbu	a3,0(a1)
     dfa:	0705                	addi	a4,a4,1
     dfc:	00377793          	andi	a5,a4,3
     e00:	fed70fa3          	sb	a3,-1(a4)
     e04:	0585                	addi	a1,a1,1
     e06:	fff9                	bnez	a5,de4 <memcpy+0x6a>
     e08:	b771                	j	d94 <memcpy+0x1a>
     e0a:	41d4                	lw	a3,4(a1)
     e0c:	0005a283          	lw	t0,0(a1)
     e10:	0085af83          	lw	t6,8(a1)
     e14:	00c5af03          	lw	t5,12(a1)
     e18:	0105ae83          	lw	t4,16(a1)
     e1c:	0145ae03          	lw	t3,20(a1)
     e20:	0185a303          	lw	t1,24(a1)
     e24:	01c5a803          	lw	a6,28(a1)
     e28:	c354                	sw	a3,4(a4)
     e2a:	5194                	lw	a3,32(a1)
     e2c:	00572023          	sw	t0,0(a4)
     e30:	01f72423          	sw	t6,8(a4)
     e34:	01e72623          	sw	t5,12(a4)
     e38:	01d72823          	sw	t4,16(a4)
     e3c:	01c72a23          	sw	t3,20(a4)
     e40:	00672c23          	sw	t1,24(a4)
     e44:	01072e23          	sw	a6,28(a4)
     e48:	d314                	sw	a3,32(a4)
     e4a:	02470713          	addi	a4,a4,36
     e4e:	02458593          	addi	a1,a1,36
     e52:	faf76ce3          	bltu	a4,a5,e0a <memcpy+0x90>
     e56:	b7a9                	j	da0 <memcpy+0x26>

00000e58 <memset>:
     e58:	433d                	li	t1,15
     e5a:	872a                	mv	a4,a0
     e5c:	02c37363          	bgeu	t1,a2,e82 <memset+0x2a>
     e60:	00f77793          	andi	a5,a4,15
     e64:	efbd                	bnez	a5,ee2 <memset+0x8a>
     e66:	e5ad                	bnez	a1,ed0 <memset+0x78>
     e68:	ff067693          	andi	a3,a2,-16
     e6c:	8a3d                	andi	a2,a2,15
     e6e:	96ba                	add	a3,a3,a4
     e70:	c30c                	sw	a1,0(a4)
     e72:	c34c                	sw	a1,4(a4)
     e74:	c70c                	sw	a1,8(a4)
     e76:	c74c                	sw	a1,12(a4)
     e78:	0741                	addi	a4,a4,16
     e7a:	fed76be3          	bltu	a4,a3,e70 <memset+0x18>
     e7e:	e211                	bnez	a2,e82 <memset+0x2a>
     e80:	8082                	ret
     e82:	40c306b3          	sub	a3,t1,a2
     e86:	068a                	slli	a3,a3,0x2
     e88:	00000297          	auipc	t0,0x0
     e8c:	9696                	add	a3,a3,t0
     e8e:	00a68067          	jr	10(a3)
     e92:	00b70723          	sb	a1,14(a4)
     e96:	00b706a3          	sb	a1,13(a4)
     e9a:	00b70623          	sb	a1,12(a4)
     e9e:	00b705a3          	sb	a1,11(a4)
     ea2:	00b70523          	sb	a1,10(a4)
     ea6:	00b704a3          	sb	a1,9(a4)
     eaa:	00b70423          	sb	a1,8(a4)
     eae:	00b703a3          	sb	a1,7(a4)
     eb2:	00b70323          	sb	a1,6(a4)
     eb6:	00b702a3          	sb	a1,5(a4)
     eba:	00b70223          	sb	a1,4(a4)
     ebe:	00b701a3          	sb	a1,3(a4)
     ec2:	00b70123          	sb	a1,2(a4)
     ec6:	00b700a3          	sb	a1,1(a4)
     eca:	00b70023          	sb	a1,0(a4)
     ece:	8082                	ret
     ed0:	0ff5f593          	andi	a1,a1,255
     ed4:	00859693          	slli	a3,a1,0x8
     ed8:	8dd5                	or	a1,a1,a3
     eda:	01059693          	slli	a3,a1,0x10
     ede:	8dd5                	or	a1,a1,a3
     ee0:	b761                	j	e68 <memset+0x10>
     ee2:	00279693          	slli	a3,a5,0x2
     ee6:	00000297          	auipc	t0,0x0
     eea:	9696                	add	a3,a3,t0
     eec:	8286                	mv	t0,ra
     eee:	fa8680e7          	jalr	-88(a3)
     ef2:	8096                	mv	ra,t0
     ef4:	17c1                	addi	a5,a5,-16
     ef6:	8f1d                	sub	a4,a4,a5
     ef8:	963e                	add	a2,a2,a5
     efa:	f8c374e3          	bgeu	t1,a2,e82 <memset+0x2a>
     efe:	b7a5                	j	e66 <memset+0xe>

00000f00 <main>:

int main(){
     f00:	bd010113          	addi	sp,sp,-1072
    int* keys;
    int N = 53;
    int p = 3;
    int q = 101;

    int message[48] = {1, 1, 2, 1, 1, 1, 1, 2,1, 1, 0, 1, 1, 2, 1, 0,1, 2, 0, 1, 1, 1, 1, 0,1, 1, 0, 2, 1, 2, 1, 0, 1, 1, 2, 1, 1, 1, 1, 2, 1, 1, 2, 1, 1, 1, 1, 2};
     f04:	0c000613          	li	a2,192
     f08:	00000597          	auipc	a1,0x0
     f0c:	20058593          	addi	a1,a1,512 # 1108 <__DTOR_END__+0xc0>
     f10:	0068                	addi	a0,sp,12
int main(){
     f12:	42112623          	sw	ra,1068(sp)
     f16:	42812423          	sw	s0,1064(sp)
     f1a:	42912223          	sw	s1,1060(sp)
     f1e:	43212023          	sw	s2,1056(sp)

    // Alice generates public key from her randomly created secret keys.
  //  printf("\nKEY GENERATION STARTED \n");

 //   start = clock();
    resultkon[0] = 0xaaaaaaa0;
     f22:	aaaab4b7          	lui	s1,0xaaaab
    int message[48] = {1, 1, 2, 1, 1, 1, 1, 2,1, 1, 0, 1, 1, 2, 1, 0,1, 2, 0, 1, 1, 1, 1, 0,1, 1, 0, 2, 1, 2, 1, 0, 1, 1, 2, 1, 1, 1, 1, 2, 1, 1, 2, 1, 1, 1, 1, 2};
     f26:	3d91                	jal	d7a <memcpy>
    resultkon[0] = 0xaaaaaaa0;
     f28:	aa048793          	addi	a5,s1,-1376 # aaaaaaa0 <_stack_start+0xaaa9aaa0>
     f2c:	00000417          	auipc	s0,0x0
     f30:	29c40413          	addi	s0,s0,668 # 11c8 <_edata>
    keys = generate_keys(N, p, q);
     f34:	06500613          	li	a2,101
     f38:	458d                	li	a1,3
     f3a:	03500513          	li	a0,53
    resultkon[0] = 0xaaaaaaa0;
     f3e:	c01c                	sw	a5,0(s0)
    resultkon[0] = 0xaaaaaaa1;
     f40:	aa148493          	addi	s1,s1,-1375
    keys = generate_keys(N, p, q);
     f44:	3a8d                	jal	8b6 <generate_keys>
    resultkon[0] = 0xaaaaaaa1;
     f46:	4781                	li	a5,0
     f48:	c004                	sw	s1,0(s0)
   // printf("Secret Key f = ");
    for(i = 0; i < N; ++i){
     f4a:	0d400713          	li	a4,212
  //      printf(" %d ", keys[i]);
        secret_key_f[i] = keys[i];
     f4e:	00f506b3          	add	a3,a0,a5
     f52:	4290                	lw	a2,0(a3)
     f54:	1314                	addi	a3,sp,416
     f56:	96be                	add	a3,a3,a5
     f58:	c290                	sw	a2,0(a3)
    for(i = 0; i < N; ++i){
     f5a:	0791                	addi	a5,a5,4
     f5c:	fee799e3          	bne	a5,a4,f4e <main+0x4e>
    }
  //  printf("\n");

 //   printf("Secret Key g = ");
    for(i = N; i < (2*N); ++i){
     f60:	1cd8                	addi	a4,sp,628
     f62:	1a850793          	addi	a5,a0,424
     f66:	27c50693          	addi	a3,a0,636
     f6a:	893a                	mv	s2,a4
  //  printf("\n");

  //  printf("Secret Key fp = ");
    for(i = (2*N); i < (3*N); ++i){
  //      printf(" %d ", keys[i]);
        secret_key_fp[i-(2*N)] = keys[i];
     f6c:	4390                	lw	a2,0(a5)
     f6e:	0791                	addi	a5,a5,4
     f70:	0711                	addi	a4,a4,4
     f72:	fec72e23          	sw	a2,-4(a4)
    for(i = (2*N); i < (3*N); ++i){
     f76:	fed79be3          	bne	a5,a3,f6c <main+0x6c>
    }
  //  printf("\n");

 //   printf("Secret Key fq = ");
    for(i = (3*N); i < (4*N); ++i){
     f7a:	01f8                	addi	a4,sp,204
     f7c:	35050793          	addi	a5,a0,848
     f80:	42450613          	addi	a2,a0,1060
     f84:	86ba                	mv	a3,a4
 //   printf("\n");

//    printf("Public Key h = ");
    for(i = (4*N); i < (5*N); ++i){
//        printf(" %d ", keys[i]);
        public_key[i-(4*N)] = keys[i];
     f86:	438c                	lw	a1,0(a5)
     f88:	0791                	addi	a5,a5,4
     f8a:	0711                	addi	a4,a4,4
     f8c:	feb72e23          	sw	a1,-4(a4)
    for(i = (4*N); i < (5*N); ++i){
     f90:	fec79be3          	bne	a5,a2,f86 <main+0x86>
     f94:	06b0                	addi	a2,sp,840
     f96:	4fc50513          	addi	a0,a0,1276
     f9a:	8832                	mv	a6,a2
 //   printf("\n");

 //   printf("Ring Poly = ");
    for(i = (5*N); i < (6*N+1); ++i){
  //      printf(" %d ", keys[i]);
        ring_poly[i-(5*N)] = keys[i];
     f9c:	4398                	lw	a4,0(a5)
     f9e:	0791                	addi	a5,a5,4
     fa0:	0611                	addi	a2,a2,4
     fa2:	fee62e23          	sw	a4,-4(a2)
    for(i = (5*N); i < (6*N+1); ++i){
     fa6:	fea79be3          	bne	a5,a0,f9c <main+0x9c>
    }
 //   printf("\nKEY GENERATION FINISHED \n");

    // Bob encrypts message using Alice's public key and sends it to Alice.
  //  printf("\nENCRYPTION STARTED\n");
    resultkon[0] = 0xbbbbbbb0;
     faa:	bbbbc4b7          	lui	s1,0xbbbbc
     fae:	bb048793          	addi	a5,s1,-1104 # bbbbbbb0 <_stack_start+0xbbbabbb0>
    Enc_Message = ntru_encyrpt(N, q, message, public_key, ring_poly);
     fb2:	8742                	mv	a4,a6
     fb4:	0070                	addi	a2,sp,12
     fb6:	06500593          	li	a1,101
    resultkon[0] = 0xbbbbbbb1;
     fba:	bb148493          	addi	s1,s1,-1103
    Enc_Message = ntru_encyrpt(N, q, message, public_key, ring_poly);
     fbe:	03500513          	li	a0,53
    resultkon[0] = 0xbbbbbbb0;
     fc2:	c01c                	sw	a5,0(s0)
    Enc_Message = ntru_encyrpt(N, q, message, public_key, ring_poly);
     fc4:	36d5                	jal	ba8 <ntru_encyrpt>
    resultkon[0] = 0xbbbbbbb1;
     fc6:	c004                	sw	s1,0(s0)
 //   }
//    printf("\nENCRYPTION FINISHED\n");

    // Alice decrypts the message using her secret keys.
 //   printf("\nDECRYPTION STARTED\n");
    resultkon[0] = 0xccccccc0;
     fc8:	ccccd4b7          	lui	s1,0xccccd
     fcc:	cc048713          	addi	a4,s1,-832 # ccccccc0 <_stack_start+0xcccbccc0>
    Enc_Message = ntru_encyrpt(N, q, message, public_key, ring_poly);
     fd0:	87aa                	mv	a5,a0
    resultkon[0] = 0xccccccc0;
     fd2:	c018                	sw	a4,0(s0)
    Dec_Message = ntru_deceypt(N, p, q, secret_key_f, secret_key_fp, Enc_Message, ring_poly);
     fd4:	458d                	li	a1,3
     fd6:	874a                	mv	a4,s2
     fd8:	34810813          	addi	a6,sp,840
     fdc:	1314                	addi	a3,sp,416
     fde:	06500613          	li	a2,101
     fe2:	03500513          	li	a0,53
     fe6:	3999                	jal	c3c <ntru_deceypt>
    resultkon[0] = 0xccccccc1;	
     fe8:	cc148493          	addi	s1,s1,-831
            resultkon[0] = 0xBABABABA;
 	   
            break;	}
        else{
  //          printf("*OPERATION SUCCCESSFUL*\n");
            resultkon[0] = 0xDEDEDEDE;
     fec:	dedee737          	lui	a4,0xdedee
    resultkon[0] = 0xccccccc1;	
     ff0:	c004                	sw	s1,0(s0)
     ff2:	4781                	li	a5,0
            resultkon[0] = 0xDEDEDEDE;
     ff4:	ede70713          	addi	a4,a4,-290 # dededede <_stack_start+0xdedddede>
    for(i = 0; i < 32; ++i){
     ff8:	08000593          	li	a1,128
        if(!(message[i] == Dec_Message[i])){
     ffc:	0070                	addi	a2,sp,12
     ffe:	00f506b3          	add	a3,a0,a5
    1002:	963e                	add	a2,a2,a5
    1004:	4210                	lw	a2,0(a2)
    1006:	4294                	lw	a3,0(a3)
    1008:	02d60363          	beq	a2,a3,102e <main+0x12e>
            resultkon[0] = 0xBABABABA;
    100c:	babac7b7          	lui	a5,0xbabac
    1010:	aba78793          	addi	a5,a5,-1350 # babababa <_stack_start+0xbab9baba>
    1014:	c01c                	sw	a5,0(s0)
		}
    }
			

    return 0;
}
    1016:	42c12083          	lw	ra,1068(sp)
    101a:	42812403          	lw	s0,1064(sp)
    101e:	42412483          	lw	s1,1060(sp)
    1022:	42012903          	lw	s2,1056(sp)
    1026:	4501                	li	a0,0
    1028:	43010113          	addi	sp,sp,1072
    102c:	8082                	ret
            resultkon[0] = 0xDEDEDEDE;
    102e:	c018                	sw	a4,0(s0)
    for(i = 0; i < 32; ++i){
    1030:	0791                	addi	a5,a5,4
    1032:	fcb795e3          	bne	a5,a1,ffc <main+0xfc>
    1036:	b7c5                	j	1016 <main+0x116>

00001038 <__CTOR_LIST__>:
	...

00001040 <__CTOR_END__>:
	...
