
NTRU_48_bitM.elf:     file format elf32-littleriscv


Disassembly of section .vectors:

00000000 <_stack_start-0x10000>:
  // external interrupts are handled by the same callback
  // until compiler supports IRQ routines
  .org 0x00
  .rept 31
  nop
  .endr
   0:	00000013          	nop
   4:	00000013          	nop
   8:	00000013          	nop
   c:	00000013          	nop
  10:	00000013          	nop
  14:	00000013          	nop
  18:	00000013          	nop
  1c:	00000013          	nop
  20:	00000013          	nop
  24:	00000013          	nop
  28:	00000013          	nop
  2c:	00000013          	nop
  30:	00000013          	nop
  34:	00000013          	nop
  38:	00000013          	nop
  3c:	00000013          	nop
  40:	00000013          	nop
  44:	00000013          	nop
  48:	00000013          	nop
  4c:	00000013          	nop
  50:	00000013          	nop
  54:	00000013          	nop
  58:	00000013          	nop
  5c:	00000013          	nop
  60:	00000013          	nop
  64:	00000013          	nop
  68:	00000013          	nop
  6c:	00000013          	nop
  70:	00000013          	nop
  74:	00000013          	nop
  78:	00000013          	nop
  jal x0, default_exc_handler
  7c:	4f70006f          	j	d72 <default_exc_handler>

  // reset vector
  .org 0x80
  jal x0, reset_handler
  80:	4f70006f          	j	d76 <reset_handler>

  // illegal instruction exception
  .org 0x84
  jal x0, default_exc_handler
  84:	4ef0006f          	j	d72 <default_exc_handler>

  // ecall handler
  .org 0x88
  jal x0, default_exc_handler
  88:	4eb0006f          	j	d72 <default_exc_handler>

Disassembly of section .text:

0000008c <instr_mod>:
////////////////CUSTOM INSTRUCTION SET///////////////


void instr_mod(unsigned int *a1, unsigned int mod) {

    asm volatile(
      8c:	0cb5750b          	0xcb5750b

    );
    return;


}
      90:	8082                	ret

00000092 <array_mod>:
    ////// bu kod arrayin uzunlugunu ücüncü instruction operand olarak gonderemedigimiz icin var. //////////
    ////// üc sayisi custom modülün dondürdügü eleman sayisindan geliyor. bizim ebob'umuz 3 oldugu icin 3 secildi./////
    ///// ebob(54(N+1),105(N+N-1)) = 3
int i = 0;

    for(i=0;i<(length/3);i++) {
      92:	478d                	li	a5,3
      94:	02f64633          	div	a2,a2,a5
    asm volatile(
      98:	46b1                	li	a3,12
    for(i=0;i<(length/3);i++) {
      9a:	4781                	li	a5,0
      9c:	00c7c363          	blt	a5,a2,a2 <array_mod+0x10>
        instr_mod((unsigned int*)&a1[3 * i], (unsigned int)mod);
    }

}
      a0:	8082                	ret
    asm volatile(
      a2:	02d78733          	mul	a4,a5,a3
      a6:	972a                	add	a4,a4,a0
      a8:	0cb7770b          	0xcb7770b
    for(i=0;i<(length/3);i++) {
      ac:	0785                	addi	a5,a5,1
      ae:	b7fd                	j	9c <array_mod+0xa>

000000b0 <polymult>:

/////////////////////////////////////////////////


int *polymult(int *a, int size_a, int *b, int size_b, int mod, int star_mult){
      b0:	715d                	addi	sp,sp,-80
      b2:	de4e                	sw	s3,60(sp)
      b4:	d462                	sw	s8,40(sp)
      b6:	00269993          	slli	s3,a3,0x2
      ba:	8c3a                	mv	s8,a4

    int line[size_b][size_a + size_b];
      bc:	00d58733          	add	a4,a1,a3
int *polymult(int *a, int size_a, int *b, int size_b, int mod, int star_mult){
      c0:	dc52                	sw	s4,56(sp)
      c2:	d65e                	sw	s7,44(sp)
    int line[size_b][size_a + size_b];
      c4:	fff70a13          	addi	s4,a4,-1
      c8:	00271b93          	slli	s7,a4,0x2
      cc:	03370733          	mul	a4,a4,s3
int *polymult(int *a, int size_a, int *b, int size_b, int mod, int star_mult){
      d0:	c4a2                	sw	s0,72(sp)
      d2:	c2a6                	sw	s1,68(sp)
      d4:	0880                	addi	s0,sp,80
      d6:	c0ca                	sw	s2,64(sp)
      d8:	da56                	sw	s5,52(sp)
      da:	d85a                	sw	s6,48(sp)
      dc:	d266                	sw	s9,36(sp)
      de:	d06a                	sw	s10,32(sp)
      e0:	ce6e                	sw	s11,28(sp)
    int line[size_b][size_a + size_b];
      e2:	073d                	addi	a4,a4,15
int *polymult(int *a, int size_a, int *b, int size_b, int mod, int star_mult){
      e4:	c686                	sw	ra,76(sp)
    int line[size_b][size_a + size_b];
      e6:	9b41                	andi	a4,a4,-16
      e8:	40e10133          	sub	sp,sp,a4
    int i,j,k;
    int *return_address1;
    int pola[size_a];
      ec:	00259713          	slli	a4,a1,0x2
      f0:	073d                	addi	a4,a4,15
int *polymult(int *a, int size_a, int *b, int size_b, int mod, int star_mult){
      f2:	8936                	mv	s2,a3
    int line[size_b][size_a + size_b];
      f4:	fff68d13          	addi	s10,a3,-1
    int pola[size_a];
      f8:	9b41                	andi	a4,a4,-16
    int polb[size_b];
      fa:	00f98693          	addi	a3,s3,15
    int line[size_b][size_a + size_b];
      fe:	8d8a                	mv	s11,sp
    int polb[size_b];
     100:	9ac1                	andi	a3,a3,-16
    int pola[size_a];
     102:	40e10133          	sub	sp,sp,a4
int *polymult(int *a, int size_a, int *b, int size_b, int mod, int star_mult){
     106:	faf42c23          	sw	a5,-72(s0)
    int pola[size_a];
     10a:	8c8a                	mv	s9,sp

    //make all line vectors zero
    for (i = 0; i < size_b; ++i){
        for(j = 0; j < size_a + size_b -1; ++j){
            line[i][j] = 0;
     10c:	002bd793          	srli	a5,s7,0x2
    int polb[size_b];
     110:	40d10133          	sub	sp,sp,a3
int *polymult(int *a, int size_a, int *b, int size_b, int mod, int star_mult){
     114:	8832                	mv	a6,a2
    int pola[size_a];
     116:	fff58b13          	addi	s6,a1,-1
    int polb[size_b];
     11a:	848a                	mv	s1,sp
            line[i][j] = 0;
     11c:	faf42e23          	sw	a5,-68(s0)
     120:	8aee                	mv	s5,s11
    for (i = 0; i < size_b; ++i){
     122:	88ee                	mv	a7,s11
     124:	4601                	li	a2,0
            product[j] = 0;
     126:	00001e97          	auipc	t4,0x1
     12a:	116e8e93          	addi	t4,t4,278 # 123c <_bss_start>
    for (i = 0; i < size_b; ++i){
     12e:	07264063          	blt	a2,s2,18e <polymult+0xde>
        }
    }

    // make mod calculations
    for (i = 0; i < size_a; ++i){
     132:	4681                	li	a3,0
     134:	06b6c063          	blt	a3,a1,194 <polymult+0xe4>
        pola[i] = a[i];
    }

	array_mod(pola,mod,size_a);
     138:	862e                	mv	a2,a1
     13a:	8566                	mv	a0,s9
     13c:	85e2                	mv	a1,s8
     13e:	fb042a23          	sw	a6,-76(s0)
     142:	3f81                	jal	92 <array_mod>

    for (i = 0; i < size_b; ++i){
     144:	fb442803          	lw	a6,-76(s0)
     148:	4681                	li	a3,0
     14a:	0526cf63          	blt	a3,s2,1a8 <polymult+0xf8>
        polb[i] = b[i];
    }

	array_mod(polb,mod,size_b);
     14e:	8526                	mv	a0,s1
     150:	864a                	mv	a2,s2
     152:	85e2                	mv	a1,s8
     154:	3f3d                	jal	92 <array_mod>

    // make calculations for partial products, if need add mod calculations
    if(star_mult == 1){
     156:	fb842783          	lw	a5,-72(s0)
     15a:	4685                	li	a3,1
     15c:	94ce                	add	s1,s1,s3
     15e:	04d78e63          	beq	a5,a3,1ba <polymult+0x10a>
     162:	19f1                	addi	s3,s3,-4
     164:	ffcb8593          	addi	a1,s7,-4
     168:	99ee                	add	s3,s3,s11
                line[size_b-1-j][k] = pola[k]*polb[j];
            }
        }
    }
    else{
        for (j = size_b -1; j >= 0; j = j-1){
     16a:	040d4b63          	bltz	s10,1c0 <polymult+0x110>
            for (k = size_a-1; k >= 0; k = k-1 ){
     16e:	86da                	mv	a3,s6
     170:	a8f1                	j	24c <polymult+0x19c>
            product[j] = 0;
     172:	00269e13          	slli	t3,a3,0x2
     176:	9e76                	add	t3,t3,t4
            line[i][j] = 0;
     178:	00032023          	sw	zero,0(t1)
            product[j] = 0;
     17c:	000e2023          	sw	zero,0(t3)
        for(j = 0; j < size_a + size_b -1; ++j){
     180:	0685                	addi	a3,a3,1
     182:	0311                	addi	t1,t1,4
     184:	ff46c7e3          	blt	a3,s4,172 <polymult+0xc2>
    for (i = 0; i < size_b; ++i){
     188:	0605                	addi	a2,a2,1
     18a:	98de                	add	a7,a7,s7
     18c:	b74d                	j	12e <polymult+0x7e>
     18e:	8346                	mv	t1,a7
        for(j = 0; j < size_a + size_b -1; ++j){
     190:	4681                	li	a3,0
     192:	bfcd                	j	184 <polymult+0xd4>
        pola[i] = a[i];
     194:	00269613          	slli	a2,a3,0x2
     198:	00cc88b3          	add	a7,s9,a2
     19c:	962a                	add	a2,a2,a0
     19e:	4210                	lw	a2,0(a2)
    for (i = 0; i < size_a; ++i){
     1a0:	0685                	addi	a3,a3,1
        pola[i] = a[i];
     1a2:	00c8a023          	sw	a2,0(a7)
    for (i = 0; i < size_a; ++i){
     1a6:	b779                	j	134 <polymult+0x84>
        polb[i] = b[i];
     1a8:	00269613          	slli	a2,a3,0x2
     1ac:	00c485b3          	add	a1,s1,a2
     1b0:	9642                	add	a2,a2,a6
     1b2:	4210                	lw	a2,0(a2)
    for (i = 0; i < size_b; ++i){
     1b4:	0685                	addi	a3,a3,1
        polb[i] = b[i];
     1b6:	c190                	sw	a2,0(a1)
    for (i = 0; i < size_b; ++i){
     1b8:	bf49                	j	14a <polymult+0x9a>
    if(star_mult == 1){
     1ba:	85ee                	mv	a1,s11
        for (j = size_b -1; j >= 0; j = j-1){
     1bc:	060d5a63          	bgez	s10,230 <polymult+0x180>
            for (k = size_a-1; k >= 0; k = k-1 ){
     1c0:	4481                	li	s1,0
            }
        }
    }

    //mod calculations
    for (i = 0; i < size_b; ++i){
     1c2:	0924cb63          	blt	s1,s2,258 <polymult+0x1a8>
     1c6:	00001697          	auipc	a3,0x1
     1ca:	07668693          	addi	a3,a3,118 # 123c <_bss_start>
        array_mod(line[i],mod,(size_a+size_b-1));
    }

    // construct product
    for(j = 0; j < size_a + size_b -1; ++j){
     1ce:	4701                	li	a4,0
     1d0:	0b474c63          	blt	a4,s4,288 <polymult+0x1d8>
            product[j] += line[i][j];
        }
    }

    //mod calculations
    array_mod(product,mod,size_a+size_b-1);
     1d4:	8652                	mv	a2,s4
     1d6:	85e2                	mv	a1,s8
     1d8:	00001517          	auipc	a0,0x1
     1dc:	06450513          	addi	a0,a0,100 # 123c <_bss_start>
     1e0:	3d4d                	jal	92 <array_mod>

    return_address1 = &product[0];

    return return_address1;
}
     1e2:	fb040113          	addi	sp,s0,-80
     1e6:	40b6                	lw	ra,76(sp)
     1e8:	4426                	lw	s0,72(sp)
     1ea:	4496                	lw	s1,68(sp)
     1ec:	4906                	lw	s2,64(sp)
     1ee:	59f2                	lw	s3,60(sp)
     1f0:	5a62                	lw	s4,56(sp)
     1f2:	5ad2                	lw	s5,52(sp)
     1f4:	5b42                	lw	s6,48(sp)
     1f6:	5bb2                	lw	s7,44(sp)
     1f8:	5c22                	lw	s8,40(sp)
     1fa:	5c92                	lw	s9,36(sp)
     1fc:	5d02                	lw	s10,32(sp)
     1fe:	4df2                	lw	s11,28(sp)
     200:	00001517          	auipc	a0,0x1
     204:	03c50513          	addi	a0,a0,60 # 123c <_bss_start>
     208:	6161                	addi	sp,sp,80
     20a:	8082                	ret
                line[size_b-1-j][k] = pola[k]*polb[j];
     20c:	00269613          	slli	a2,a3,0x2
     210:	00c58533          	add	a0,a1,a2
     214:	9666                	add	a2,a2,s9
     216:	4210                	lw	a2,0(a2)
     218:	ffc4a803          	lw	a6,-4(s1)
            for (k = size_a-1; k >= 0; k = k-1 ){
     21c:	16fd                	addi	a3,a3,-1
                line[size_b-1-j][k] = pola[k]*polb[j];
     21e:	03060633          	mul	a2,a2,a6
     222:	c110                	sw	a2,0(a0)
            for (k = size_a-1; k >= 0; k = k-1 ){
     224:	fe06d4e3          	bgez	a3,20c <polymult+0x15c>
        for (j = size_b -1; j >= 0; j = j-1){
     228:	1d7d                	addi	s10,s10,-1
     22a:	14f1                	addi	s1,s1,-4
     22c:	95de                	add	a1,a1,s7
     22e:	b779                	j	1bc <polymult+0x10c>
            for (k = size_a-1; k >= 0; k = k-1 ){
     230:	86da                	mv	a3,s6
     232:	bfcd                	j	224 <polymult+0x174>
                line[size_b-1-j][k + j] = pola[k]*polb[j];
     234:	00269613          	slli	a2,a3,0x2
     238:	00c98533          	add	a0,s3,a2
     23c:	9666                	add	a2,a2,s9
     23e:	4210                	lw	a2,0(a2)
     240:	ffc4a803          	lw	a6,-4(s1)
            for (k = size_a-1; k >= 0; k = k-1 ){
     244:	16fd                	addi	a3,a3,-1
                line[size_b-1-j][k + j] = pola[k]*polb[j];
     246:	03060633          	mul	a2,a2,a6
     24a:	c110                	sw	a2,0(a0)
            for (k = size_a-1; k >= 0; k = k-1 ){
     24c:	fe06d4e3          	bgez	a3,234 <polymult+0x184>
        for (j = size_b -1; j >= 0; j = j-1){
     250:	1d7d                	addi	s10,s10,-1
     252:	14f1                	addi	s1,s1,-4
     254:	99ae                	add	s3,s3,a1
     256:	bf11                	j	16a <polymult+0xba>
        array_mod(line[i],mod,(size_a+size_b-1));
     258:	8556                	mv	a0,s5
     25a:	8652                	mv	a2,s4
     25c:	85e2                	mv	a1,s8
     25e:	3d15                	jal	92 <array_mod>
    for (i = 0; i < size_b; ++i){
     260:	0485                	addi	s1,s1,1
     262:	9ade                	add	s5,s5,s7
     264:	bfb9                	j	1c2 <polymult+0x112>
            product[j] += line[i][j];
     266:	fbc42783          	lw	a5,-68(s0)
     26a:	428c                	lw	a1,0(a3)
     26c:	02f607b3          	mul	a5,a2,a5
        for(i = 0; i < size_b; ++i){
     270:	0605                	addi	a2,a2,1
            product[j] += line[i][j];
     272:	97ba                	add	a5,a5,a4
     274:	078a                	slli	a5,a5,0x2
     276:	97ee                	add	a5,a5,s11
     278:	439c                	lw	a5,0(a5)
     27a:	97ae                	add	a5,a5,a1
     27c:	c29c                	sw	a5,0(a3)
        for(i = 0; i < size_b; ++i){
     27e:	ff2644e3          	blt	a2,s2,266 <polymult+0x1b6>
    for(j = 0; j < size_a + size_b -1; ++j){
     282:	0705                	addi	a4,a4,1
     284:	0691                	addi	a3,a3,4
     286:	b7a9                	j	1d0 <polymult+0x120>
        for(i = 0; i < size_b; ++i){
     288:	4601                	li	a2,0
     28a:	bfd5                	j	27e <polymult+0x1ce>

0000028c <polymult2>:

int *polymult2(int *a, int size_a, int *b, int size_b, int star_mult){
   

    int line[size_b][size_a + size_b];
     28c:	00d587b3          	add	a5,a1,a3
     290:	00269813          	slli	a6,a3,0x2
     294:	00279313          	slli	t1,a5,0x2
     298:	fff78e93          	addi	t4,a5,-1
     29c:	030787b3          	mul	a5,a5,a6
int *polymult2(int *a, int size_a, int *b, int size_b, int star_mult){
     2a0:	1101                	addi	sp,sp,-32
     2a2:	ce22                	sw	s0,28(sp)
     2a4:	cc26                	sw	s1,24(sp)
     2a6:	ca4a                	sw	s2,20(sp)
     2a8:	c84e                	sw	s3,16(sp)
     2aa:	c25a                	sw	s6,4(sp)
     2ac:	c652                	sw	s4,12(sp)
     2ae:	c456                	sw	s5,8(sp)
     2b0:	1000                	addi	s0,sp,32
    int line[size_b][size_a + size_b];
     2b2:	07bd                	addi	a5,a5,15
     2b4:	9bc1                	andi	a5,a5,-16
     2b6:	40f10133          	sub	sp,sp,a5
    int i,j,k;
    int *return_address2;
    int pola[size_a];
     2ba:	00259793          	slli	a5,a1,0x2
     2be:	07bd                	addi	a5,a5,15
     2c0:	9bc1                	andi	a5,a5,-16
    int line[size_b][size_a + size_b];
     2c2:	8e0a                	mv	t3,sp
    int pola[size_a];
     2c4:	40f10133          	sub	sp,sp,a5
    int polb[size_b];
     2c8:	00f80793          	addi	a5,a6,15
     2cc:	9bc1                	andi	a5,a5,-16
    int pola[size_a];
     2ce:	828a                	mv	t0,sp
    int polb[size_b];
     2d0:	40f10133          	sub	sp,sp,a5
    int line[size_b][size_a + size_b];
     2d4:	fff68893          	addi	a7,a3,-1
    int pola[size_a];
     2d8:	fff58f93          	addi	t6,a1,-1
    int polb[size_b];
     2dc:	878a                	mv	a5,sp

    //make all line vectors zero
    for (i = 0; i < size_b; ++i){
        for(j = 0; j < size_a + size_b -1; ++j){
            line[i][j] = 0;
     2de:	00235f13          	srli	t5,t1,0x2
     2e2:	8972                	mv	s2,t3
    for (i = 0; i < size_b; ++i){
     2e4:	89f2                	mv	s3,t3
     2e6:	4481                	li	s1,0
            product2[j] = 0;
     2e8:	00001b17          	auipc	s6,0x1
     2ec:	1acb0b13          	addi	s6,s6,428 # 1494 <product2>
    for (i = 0; i < size_b; ++i){
     2f0:	04d4c163          	blt	s1,a3,332 <polymult2+0xa6>
        }
    }

    for(i = 0; i < size_a; ++i){
     2f4:	4381                	li	t2,0
     2f6:	04b3c163          	blt	t2,a1,338 <polymult2+0xac>
        pola[i] = a[i];
    }


    for(i = 0; i < size_b; ++i){
     2fa:	4581                	li	a1,0
     2fc:	04d5c863          	blt	a1,a3,34c <polymult2+0xc0>
        polb[i] = b[i];
    }


    // make calculations for partial products, if need add mod calculations
    if(star_mult == 1){
     300:	4605                	li	a2,1
     302:	97c2                	add	a5,a5,a6
     304:	06c70f63          	beq	a4,a2,382 <polymult2+0xf6>
     308:	1871                	addi	a6,a6,-4
     30a:	1371                	addi	t1,t1,-4
     30c:	9872                	add	a6,a6,t3
                line[size_b-1-j][k] = pola[k]*polb[j];
            }
        }
    }
    else{
        for (j = size_b -1; j >= 0; j = j-1){
     30e:	0608cc63          	bltz	a7,386 <polymult2+0xfa>
            for (k = size_a-1; k >= 0; k = k-1 ){
     312:	877e                	mv	a4,t6
     314:	a86d                	j	3ce <polymult2+0x142>
            product2[j] = 0;
     316:	00239a93          	slli	s5,t2,0x2
     31a:	9ada                	add	s5,s5,s6
            line[i][j] = 0;
     31c:	000a2023          	sw	zero,0(s4)
            product2[j] = 0;
     320:	000aa023          	sw	zero,0(s5)
        for(j = 0; j < size_a + size_b -1; ++j){
     324:	0385                	addi	t2,t2,1
     326:	0a11                	addi	s4,s4,4
     328:	ffd3c7e3          	blt	t2,t4,316 <polymult2+0x8a>
    for (i = 0; i < size_b; ++i){
     32c:	0485                	addi	s1,s1,1
     32e:	999a                	add	s3,s3,t1
     330:	b7c1                	j	2f0 <polymult2+0x64>
     332:	8a4e                	mv	s4,s3
        for(j = 0; j < size_a + size_b -1; ++j){
     334:	4381                	li	t2,0
     336:	bfcd                	j	328 <polymult2+0x9c>
        pola[i] = a[i];
     338:	00239493          	slli	s1,t2,0x2
     33c:	009289b3          	add	s3,t0,s1
     340:	94aa                	add	s1,s1,a0
     342:	4084                	lw	s1,0(s1)
    for(i = 0; i < size_a; ++i){
     344:	0385                	addi	t2,t2,1
        pola[i] = a[i];
     346:	0099a023          	sw	s1,0(s3)
    for(i = 0; i < size_a; ++i){
     34a:	b775                	j	2f6 <polymult2+0x6a>
        polb[i] = b[i];
     34c:	00259513          	slli	a0,a1,0x2
     350:	00a783b3          	add	t2,a5,a0
     354:	9532                	add	a0,a0,a2
     356:	4108                	lw	a0,0(a0)
    for(i = 0; i < size_b; ++i){
     358:	0585                	addi	a1,a1,1
        polb[i] = b[i];
     35a:	00a3a023          	sw	a0,0(t2)
    for(i = 0; i < size_b; ++i){
     35e:	bf79                	j	2fc <polymult2+0x70>
                line[size_b-1-j][k] = pola[k]*polb[j];
     360:	00271613          	slli	a2,a4,0x2
     364:	00c905b3          	add	a1,s2,a2
     368:	9616                	add	a2,a2,t0
     36a:	4210                	lw	a2,0(a2)
     36c:	ffc7a503          	lw	a0,-4(a5)
            for (k = size_a-1; k >= 0; k = k-1 ){
     370:	177d                	addi	a4,a4,-1
                line[size_b-1-j][k] = pola[k]*polb[j];
     372:	02a60633          	mul	a2,a2,a0
     376:	c190                	sw	a2,0(a1)
            for (k = size_a-1; k >= 0; k = k-1 ){
     378:	fe0754e3          	bgez	a4,360 <polymult2+0xd4>
        for (j = size_b -1; j >= 0; j = j-1){
     37c:	18fd                	addi	a7,a7,-1
     37e:	17f1                	addi	a5,a5,-4
     380:	991a                	add	s2,s2,t1
     382:	0208d863          	bgez	a7,3b2 <polymult2+0x126>
     386:	00001617          	auipc	a2,0x1
     38a:	10e60613          	addi	a2,a2,270 # 1494 <product2>
        }
    }

    // construct product
    for(j = 0; j < size_a + size_b -1; ++j){
        for(i = 0; i < size_b; ++i){
     38e:	4701                	li	a4,0
    for(j = 0; j < size_a + size_b -1; ++j){
     390:	07d74463          	blt	a4,t4,3f8 <polymult2+0x16c>


    return_address2 = &product2[0];

    return return_address2;
}
     394:	fe040113          	addi	sp,s0,-32
     398:	4472                	lw	s0,28(sp)
     39a:	44e2                	lw	s1,24(sp)
     39c:	4952                	lw	s2,20(sp)
     39e:	49c2                	lw	s3,16(sp)
     3a0:	4a32                	lw	s4,12(sp)
     3a2:	4aa2                	lw	s5,8(sp)
     3a4:	4b12                	lw	s6,4(sp)
     3a6:	00001517          	auipc	a0,0x1
     3aa:	0ee50513          	addi	a0,a0,238 # 1494 <product2>
     3ae:	6105                	addi	sp,sp,32
     3b0:	8082                	ret
            for (k = size_a-1; k >= 0; k = k-1 ){
     3b2:	877e                	mv	a4,t6
     3b4:	b7d1                	j	378 <polymult2+0xec>
                line[size_b-1-j][k + j] = pola[k]*polb[j];
     3b6:	00271613          	slli	a2,a4,0x2
     3ba:	00c805b3          	add	a1,a6,a2
     3be:	9616                	add	a2,a2,t0
     3c0:	4210                	lw	a2,0(a2)
     3c2:	ffc7a503          	lw	a0,-4(a5)
            for (k = size_a-1; k >= 0; k = k-1 ){
     3c6:	177d                	addi	a4,a4,-1
                line[size_b-1-j][k + j] = pola[k]*polb[j];
     3c8:	02a60633          	mul	a2,a2,a0
     3cc:	c190                	sw	a2,0(a1)
            for (k = size_a-1; k >= 0; k = k-1 ){
     3ce:	fe0754e3          	bgez	a4,3b6 <polymult2+0x12a>
        for (j = size_b -1; j >= 0; j = j-1){
     3d2:	18fd                	addi	a7,a7,-1
     3d4:	17f1                	addi	a5,a5,-4
     3d6:	981a                	add	a6,a6,t1
     3d8:	bf1d                	j	30e <polymult2+0x82>
            product2[j] += line[i][j];
     3da:	03e587b3          	mul	a5,a1,t5
     3de:	4208                	lw	a0,0(a2)
        for(i = 0; i < size_b; ++i){
     3e0:	0585                	addi	a1,a1,1
            product2[j] += line[i][j];
     3e2:	97ba                	add	a5,a5,a4
     3e4:	078a                	slli	a5,a5,0x2
     3e6:	97f2                	add	a5,a5,t3
     3e8:	439c                	lw	a5,0(a5)
     3ea:	97aa                	add	a5,a5,a0
     3ec:	c21c                	sw	a5,0(a2)
        for(i = 0; i < size_b; ++i){
     3ee:	fed5c6e3          	blt	a1,a3,3da <polymult2+0x14e>
    for(j = 0; j < size_a + size_b -1; ++j){
     3f2:	0705                	addi	a4,a4,1
     3f4:	0611                	addi	a2,a2,4
     3f6:	bf69                	j	390 <polymult2+0x104>
        for(i = 0; i < size_b; ++i){
     3f8:	4581                	li	a1,0
     3fa:	bfd5                	j	3ee <polymult2+0x162>

000003fc <polydiv>:
 

    int u,d,d2,i,b_N,r_d;
    int *return_address3;

    int v[size_N];
     3fc:	00259793          	slli	a5,a1,0x2
int *polydiv(int *num, int size_N, int*denum, int size_D, int mod){
     400:	715d                	addi	sp,sp,-80
    int v[size_N];
     402:	07bd                	addi	a5,a5,15
     404:	9bc1                	andi	a5,a5,-16
int *polydiv(int *num, int size_N, int*denum, int size_D, int mod){
     406:	c4a2                	sw	s0,72(sp)
     408:	c2a6                	sw	s1,68(sp)
     40a:	c0ca                	sw	s2,64(sp)
     40c:	de4e                	sw	s3,60(sp)
     40e:	dc52                	sw	s4,56(sp)
     410:	da56                	sw	s5,52(sp)
     412:	d85a                	sw	s6,48(sp)
     414:	d65e                	sw	s7,44(sp)
     416:	d462                	sw	s8,40(sp)
     418:	d266                	sw	s9,36(sp)
     41a:	ce6e                	sw	s11,28(sp)
     41c:	c686                	sw	ra,76(sp)
     41e:	d06a                	sw	s10,32(sp)
     420:	0880                	addi	s0,sp,80
    int v[size_N];
     422:	40f10133          	sub	sp,sp,a5
     426:	8a0a                	mv	s4,sp
    int q[size_N];
     428:	40f10133          	sub	sp,sp,a5
     42c:	8a8a                	mv	s5,sp
    int *product;
    int num_temp[size_N];
     42e:	40f10133          	sub	sp,sp,a5
    int denum_temp[size_D];
     432:	00269793          	slli	a5,a3,0x2
     436:	07bd                	addi	a5,a5,15
     438:	9bc1                	andi	a5,a5,-16
    int num_temp[size_N];
     43a:	898a                	mv	s3,sp
    int denum_temp[size_D];
     43c:	40f10133          	sub	sp,sp,a5
int *polydiv(int *num, int size_N, int*denum, int size_D, int mod){
     440:	892e                	mv	s2,a1
     442:	8c32                	mv	s8,a2
     444:	8b36                	mv	s6,a3
     446:	84ba                	mv	s1,a4
    int v[size_N];
     448:	fff58d93          	addi	s11,a1,-1
    int denum_temp[size_D];
     44c:	fff68b93          	addi	s7,a3,-1
     450:	8c8a                	mv	s9,sp


    // make mod calculation for coefficents
    for (i = 0; i < size_N; ++i){
     452:	4781                	li	a5,0
     454:	0527ca63          	blt	a5,s2,4a8 <polydiv+0xac>
        num_temp[i] = num[i];
    }
    
    if(size_N == 106) {
     458:	06a00793          	li	a5,106
     45c:	06f91363          	bne	s2,a5,4c2 <polydiv+0xc6>
        array_mod(num_temp, mod, size_N - 1);
     460:	06900613          	li	a2,105
     464:	85a6                	mv	a1,s1
     466:	854e                	mv	a0,s3
     468:	312d                	jal	92 <array_mod>
        while(num_temp[size_N - 1] < 0){
     46a:	1a49a783          	lw	a5,420(s3)
     46e:	0407c663          	bltz	a5,4ba <polydiv+0xbe>
            num_temp[size_N - 1] = num_temp[size_N - 1]+mod;
        }
        num_temp[size_N - 1] = num_temp[size_N - 1] % mod;
     472:	0297e7b3          	rem	a5,a5,s1
     476:	1af9a223          	sw	a5,420(s3)
    for (i = 0; i < size_N; ++i){
     47a:	4781                	li	a5,0
        array_mod(num_temp, mod, size_N);
    }


    // make mod calculation for coefficents
    for (i = 0; i < size_D; ++i) {
     47c:	0567c863          	blt	a5,s6,4cc <polydiv+0xd0>
        denum_temp[i] = denum[i];
    }

	array_mod(denum_temp,mod,size_D);
     480:	865a                	mv	a2,s6
     482:	85a6                	mv	a1,s1
     484:	8566                	mv	a0,s9
     486:	3131                	jal	92 <array_mod>

    for (i = 0; i < size_N; ++i){
     488:	4781                	li	a5,0
     48a:	0527ca63          	blt	a5,s2,4de <polydiv+0xe2>
        q[i] = 0;
        v[i] = 0;
    }

    //find b_N (denum) and degree denum
    for (i = size_D-1; i >= 0; i = i-1){
     48e:	002b9793          	slli	a5,s7,0x2
     492:	97e6                	add	a5,a5,s9
     494:	4398                	lw	a4,0(a5)
     496:	040bdf63          	bgez	s7,4f4 <polydiv+0xf8>
    for (i = 0; i < size_N; ++i){
     49a:	4781                	li	a5,0
     49c:	4c01                	li	s8,0
    d2 = i; //f'in derecesi
    b_N = denum_temp[i];

    // Set u := (b_N)^–1 mod p (denum) //
    for (u = 0; u < mod; ++u){
        if ( (b_N*u)%mod == 1 )
     49e:	4685                	li	a3,1
    for (u = 0; u < mod; ++u){
     4a0:	049c4d63          	blt	s8,s1,4fa <polydiv+0xfe>
     4a4:	87ee                	mv	a5,s11
     4a6:	a09d                	j	50c <polydiv+0x110>
        num_temp[i] = num[i];
     4a8:	00279713          	slli	a4,a5,0x2
     4ac:	00e986b3          	add	a3,s3,a4
     4b0:	972a                	add	a4,a4,a0
     4b2:	4318                	lw	a4,0(a4)
    for (i = 0; i < size_N; ++i){
     4b4:	0785                	addi	a5,a5,1
        num_temp[i] = num[i];
     4b6:	c298                	sw	a4,0(a3)
    for (i = 0; i < size_N; ++i){
     4b8:	bf71                	j	454 <polydiv+0x58>
            num_temp[size_N - 1] = num_temp[size_N - 1]+mod;
     4ba:	97a6                	add	a5,a5,s1
     4bc:	1af9a223          	sw	a5,420(s3)
     4c0:	b76d                	j	46a <polydiv+0x6e>
        array_mod(num_temp, mod, size_N);
     4c2:	864a                	mv	a2,s2
     4c4:	85a6                	mv	a1,s1
     4c6:	854e                	mv	a0,s3
     4c8:	36e9                	jal	92 <array_mod>
     4ca:	bf45                	j	47a <polydiv+0x7e>
        denum_temp[i] = denum[i];
     4cc:	00279713          	slli	a4,a5,0x2
     4d0:	00ec86b3          	add	a3,s9,a4
     4d4:	9762                	add	a4,a4,s8
     4d6:	4318                	lw	a4,0(a4)
    for (i = 0; i < size_D; ++i) {
     4d8:	0785                	addi	a5,a5,1
        denum_temp[i] = denum[i];
     4da:	c298                	sw	a4,0(a3)
    for (i = 0; i < size_D; ++i) {
     4dc:	b745                	j	47c <polydiv+0x80>
        q[i] = 0;
     4de:	00279713          	slli	a4,a5,0x2
     4e2:	00ea86b3          	add	a3,s5,a4
        v[i] = 0;
     4e6:	9752                	add	a4,a4,s4
        q[i] = 0;
     4e8:	0006a023          	sw	zero,0(a3)
        v[i] = 0;
     4ec:	00072023          	sw	zero,0(a4)
    for (i = 0; i < size_N; ++i){
     4f0:	0785                	addi	a5,a5,1
     4f2:	bf61                	j	48a <polydiv+0x8e>
        if( denum_temp[i] != 0 )
     4f4:	f35d                	bnez	a4,49a <polydiv+0x9e>
    for (i = size_D-1; i >= 0; i = i-1){
     4f6:	1bfd                	addi	s7,s7,-1
     4f8:	bf59                	j	48e <polydiv+0x92>
        if ( (b_N*u)%mod == 1 )
     4fa:	0297e633          	rem	a2,a5,s1
     4fe:	97ba                	add	a5,a5,a4
     500:	fad602e3          	beq	a2,a3,4a4 <polydiv+0xa8>
    for (u = 0; u < mod; ++u){
     504:	0c05                	addi	s8,s8,1
     506:	bf69                	j	4a0 <polydiv+0xa4>
            break;
    }

    // find degree num and r_d
    for (i = size_N-1; i >= 0; i = i-1){
        if( num_temp[i] != 0 )
     508:	eb01                	bnez	a4,518 <polydiv+0x11c>
    for (i = size_N-1; i >= 0; i = i-1){
     50a:	17fd                	addi	a5,a5,-1
     50c:	00279713          	slli	a4,a5,0x2
     510:	974e                	add	a4,a4,s3
     512:	4318                	lw	a4,0(a4)
     514:	fe07dae3          	bgez	a5,508 <polydiv+0x10c>
    while (d >= d2){

        // Set v := u × r_d × X^(d–N)
        v[(d-d2)] = u*r_d;

         if(size_N == 106) {
     518:	06a00d13          	li	s10,106
     51c:	a2a9                	j	666 <polydiv+0x26a>
        v[(d-d2)] = u*r_d;
     51e:	03870733          	mul	a4,a4,s8
     522:	417787b3          	sub	a5,a5,s7
     526:	078a                	slli	a5,a5,0x2
     528:	97d2                	add	a5,a5,s4
     52a:	c398                	sw	a4,0(a5)
         if(size_N == 106) {
     52c:	0ba91b63          	bne	s2,s10,5e2 <polydiv+0x1e6>
            array_mod(v, mod, size_N - 1);
     530:	06900613          	li	a2,105
     534:	85a6                	mv	a1,s1
     536:	8552                	mv	a0,s4
     538:	3ea9                	jal	92 <array_mod>
            while(v[size_N - 1] < 0){
     53a:	1a4a2783          	lw	a5,420(s4)
     53e:	0807ce63          	bltz	a5,5da <polydiv+0x1de>
                v[size_N - 1] = v[size_N - 1]+mod;
            }
            v[size_N - 1] = v[size_N - 1] % mod;
     542:	0297e7b3          	rem	a5,a5,s1
     546:	1afa2223          	sw	a5,420(s4)
        else{
            array_mod(v, mod, size_N);
        }

        // v*b
        product = polymult(denum_temp,size_D,v,size_D,mod,0);
     54a:	4781                	li	a5,0
     54c:	8726                	mv	a4,s1
     54e:	86da                	mv	a3,s6
     550:	8652                	mv	a2,s4
     552:	85da                	mv	a1,s6
     554:	8566                	mv	a0,s9
     556:	3ea9                	jal	b0 <polymult>

        // make mod calculation for coefficents
     
        if(size_N == 106) {
     558:	faa42e23          	sw	a0,-68(s0)
     55c:	09a91c63          	bne	s2,s10,5f4 <polydiv+0x1f8>
            array_mod(product, mod, size_N - 1);
     560:	06900613          	li	a2,105
     564:	85a6                	mv	a1,s1
     566:	3635                	jal	92 <array_mod>
            while(product[size_N - 1] < 0){
     568:	fbc42703          	lw	a4,-68(s0)
     56c:	1a472783          	lw	a5,420(a4)
     570:	0607ce63          	bltz	a5,5ec <polydiv+0x1f0>
                product[size_N - 1] = product[size_N - 1]+mod;
            }
            product[size_N - 1] = product[size_N - 1] % mod;
     574:	0297e7b3          	rem	a5,a5,s1
     578:	1af72223          	sw	a5,420(a4)
     57c:	86ce                	mv	a3,s3
     57e:	4781                	li	a5,0
        else{
            array_mod(product, mod, size_N);
        }
        
        //r = r- v*b
        for (i = 0; i < size_N; ++i){
     580:	0927c063          	blt	a5,s2,600 <polydiv+0x204>
            num_temp[i] = num_temp[i] - product[i];
        }

        // make mod calculation for coefficents
 	if(size_N == 106) {
     584:	09a91d63          	bne	s2,s10,61e <polydiv+0x222>
            array_mod(num_temp, mod, size_N - 1);
     588:	06900613          	li	a2,105
     58c:	85a6                	mv	a1,s1
     58e:	854e                	mv	a0,s3
     590:	3609                	jal	92 <array_mod>
            while(num_temp[size_N - 1] < 0){
     592:	1a49a783          	lw	a5,420(s3)
     596:	0807c063          	bltz	a5,616 <polydiv+0x21a>
                num_temp[size_N - 1] = num_temp[size_N - 1]+mod;
            }
            num_temp[size_N - 1] = num_temp[size_N - 1] % mod;
     59a:	0297e7b3          	rem	a5,a5,s1
     59e:	1af9a223          	sw	a5,420(s3)
     5a2:	8756                	mv	a4,s5
     5a4:	4781                	li	a5,0
        }
        else{
            array_mod(num_temp, mod, size_N);
	}
        // q = q + v;
        for(i = 0; i < size_N; ++i){
     5a6:	0927c163          	blt	a5,s2,628 <polydiv+0x22c>
            q[i] = q[i] + v[i];
        }

 	if(size_N == 106) {
     5aa:	09a91e63          	bne	s2,s10,646 <polydiv+0x24a>
            array_mod(q, mod, size_N - 1);
     5ae:	06900613          	li	a2,105
     5b2:	85a6                	mv	a1,s1
     5b4:	8556                	mv	a0,s5
     5b6:	3cf1                	jal	92 <array_mod>
            while(q[size_N - 1] < 0){
     5b8:	1a4aa783          	lw	a5,420(s5)
     5bc:	0807c163          	bltz	a5,63e <polydiv+0x242>
                q[size_N - 1] = q[size_N - 1]+mod;
            }
            q[size_N - 1] = q[size_N - 1] % mod;
     5c0:	0297e7b3          	rem	a5,a5,s1
     5c4:	1afaa223          	sw	a5,420(s5)
    int v[size_N];
     5c8:	87ee                	mv	a5,s11
        else{
            array_mod(q, mod, size_N);
        }

        // Set d := deg r(X) (num)
        for (i = size_N-1; i >= 0; i = i-1){
     5ca:	00279713          	slli	a4,a5,0x2
     5ce:	974e                	add	a4,a4,s3
     5d0:	4318                	lw	a4,0(a4)
     5d2:	0607df63          	bgez	a5,650 <polydiv+0x254>
     5d6:	4681                	li	a3,0
     5d8:	a069                	j	662 <polydiv+0x266>
                v[size_N - 1] = v[size_N - 1]+mod;
     5da:	97a6                	add	a5,a5,s1
     5dc:	1afa2223          	sw	a5,420(s4)
     5e0:	bfa9                	j	53a <polydiv+0x13e>
            array_mod(v, mod, size_N);
     5e2:	864a                	mv	a2,s2
     5e4:	85a6                	mv	a1,s1
     5e6:	8552                	mv	a0,s4
     5e8:	346d                	jal	92 <array_mod>
     5ea:	b785                	j	54a <polydiv+0x14e>
                product[size_N - 1] = product[size_N - 1]+mod;
     5ec:	97a6                	add	a5,a5,s1
     5ee:	1af72223          	sw	a5,420(a4)
     5f2:	bfad                	j	56c <polydiv+0x170>
            array_mod(product, mod, size_N);
     5f4:	864a                	mv	a2,s2
     5f6:	85a6                	mv	a1,s1
     5f8:	3c69                	jal	92 <array_mod>
     5fa:	fbc42703          	lw	a4,-68(s0)
     5fe:	bfbd                	j	57c <polydiv+0x180>
            num_temp[i] = num_temp[i] - product[i];
     600:	00279593          	slli	a1,a5,0x2
     604:	95ba                	add	a1,a1,a4
     606:	4290                	lw	a2,0(a3)
     608:	418c                	lw	a1,0(a1)
        for (i = 0; i < size_N; ++i){
     60a:	0785                	addi	a5,a5,1
     60c:	0691                	addi	a3,a3,4
            num_temp[i] = num_temp[i] - product[i];
     60e:	8e0d                	sub	a2,a2,a1
     610:	fec6ae23          	sw	a2,-4(a3)
        for (i = 0; i < size_N; ++i){
     614:	b7b5                	j	580 <polydiv+0x184>
                num_temp[size_N - 1] = num_temp[size_N - 1]+mod;
     616:	97a6                	add	a5,a5,s1
     618:	1af9a223          	sw	a5,420(s3)
     61c:	bf9d                	j	592 <polydiv+0x196>
            array_mod(num_temp, mod, size_N);
     61e:	864a                	mv	a2,s2
     620:	85a6                	mv	a1,s1
     622:	854e                	mv	a0,s3
     624:	34bd                	jal	92 <array_mod>
     626:	bfb5                	j	5a2 <polydiv+0x1a6>
            q[i] = q[i] + v[i];
     628:	00279613          	slli	a2,a5,0x2
     62c:	9652                	add	a2,a2,s4
     62e:	4314                	lw	a3,0(a4)
     630:	4210                	lw	a2,0(a2)
        for(i = 0; i < size_N; ++i){
     632:	0785                	addi	a5,a5,1
     634:	0711                	addi	a4,a4,4
            q[i] = q[i] + v[i];
     636:	96b2                	add	a3,a3,a2
     638:	fed72e23          	sw	a3,-4(a4)
        for(i = 0; i < size_N; ++i){
     63c:	b7ad                	j	5a6 <polydiv+0x1aa>
                q[size_N - 1] = q[size_N - 1]+mod;
     63e:	97a6                	add	a5,a5,s1
     640:	1afaa223          	sw	a5,420(s5)
     644:	bf95                	j	5b8 <polydiv+0x1bc>
            array_mod(q, mod, size_N);
     646:	864a                	mv	a2,s2
     648:	85a6                	mv	a1,s1
     64a:	8556                	mv	a0,s5
     64c:	3499                	jal	92 <array_mod>
     64e:	bfad                	j	5c8 <polydiv+0x1cc>
            if( num_temp[i] != 0 )
     650:	f359                	bnez	a4,5d6 <polydiv+0x1da>
        for (i = size_N-1; i >= 0; i = i-1){
     652:	17fd                	addi	a5,a5,-1
     654:	bf9d                	j	5ca <polydiv+0x1ce>
        d = i;
        r_d = num_temp[d];

        // make zero for next calculations
        for (i = 0; i < size_N; ++i){
            v[i] = 0;
     656:	00269613          	slli	a2,a3,0x2
     65a:	9652                	add	a2,a2,s4
     65c:	00062023          	sw	zero,0(a2)
        for (i = 0; i < size_N; ++i){
     660:	0685                	addi	a3,a3,1
     662:	ff26cae3          	blt	a3,s2,656 <polydiv+0x25a>
    while (d >= d2){
     666:	eb77dce3          	bge	a5,s7,51e <polydiv+0x122>
        }


    } //End While-1

    for(i = 0; i < size_N; ++i){
     66a:	4781                	li	a5,0
        result[i] = q[i];
     66c:	00001697          	auipc	a3,0x1
     670:	08068693          	addi	a3,a3,128 # 16ec <result>
    for(i = 0; i < size_N; ++i){
     674:	0327cf63          	blt	a5,s2,6b2 <polydiv+0x2b6>
    }
    for(i = size_N; i < (2*size_N); ++i){
     678:	00191713          	slli	a4,s2,0x1
        result[i] = num_temp[i-size_N];
     67c:	00001697          	auipc	a3,0x1
     680:	07068693          	addi	a3,a3,112 # 16ec <result>
    for(i = size_N; i < (2*size_N); ++i){
     684:	04e94063          	blt	s2,a4,6c4 <polydiv+0x2c8>
    }

    return_address3 = &result[0];

    return return_address3;
}
     688:	fb040113          	addi	sp,s0,-80
     68c:	40b6                	lw	ra,76(sp)
     68e:	4426                	lw	s0,72(sp)
     690:	4496                	lw	s1,68(sp)
     692:	4906                	lw	s2,64(sp)
     694:	59f2                	lw	s3,60(sp)
     696:	5a62                	lw	s4,56(sp)
     698:	5ad2                	lw	s5,52(sp)
     69a:	5b42                	lw	s6,48(sp)
     69c:	5bb2                	lw	s7,44(sp)
     69e:	5c22                	lw	s8,40(sp)
     6a0:	5c92                	lw	s9,36(sp)
     6a2:	5d02                	lw	s10,32(sp)
     6a4:	4df2                	lw	s11,28(sp)
     6a6:	00001517          	auipc	a0,0x1
     6aa:	04650513          	addi	a0,a0,70 # 16ec <result>
     6ae:	6161                	addi	sp,sp,80
     6b0:	8082                	ret
        result[i] = q[i];
     6b2:	00279713          	slli	a4,a5,0x2
     6b6:	00e68633          	add	a2,a3,a4
     6ba:	9756                	add	a4,a4,s5
     6bc:	4318                	lw	a4,0(a4)
    for(i = 0; i < size_N; ++i){
     6be:	0785                	addi	a5,a5,1
        result[i] = q[i];
     6c0:	c218                	sw	a4,0(a2)
    for(i = 0; i < size_N; ++i){
     6c2:	bf4d                	j	674 <polydiv+0x278>
        result[i] = num_temp[i-size_N];
     6c4:	0009a603          	lw	a2,0(s3)
     6c8:	00291793          	slli	a5,s2,0x2
     6cc:	97b6                	add	a5,a5,a3
     6ce:	c390                	sw	a2,0(a5)
    for(i = size_N; i < (2*size_N); ++i){
     6d0:	0905                	addi	s2,s2,1
     6d2:	0991                	addi	s3,s3,4
     6d4:	bf45                	j	684 <polydiv+0x288>

000006d6 <ext_euclid>:
int* ext_euclid(int* polyR, int* polyf, int size, int mod) {
   

    int *return_address4;
    int N, i, j;
    int ri_2[size]; // MX-ring poly, a
     6d6:	00261793          	slli	a5,a2,0x2
int* ext_euclid(int* polyR, int* polyf, int size, int mod) {
     6da:	715d                	addi	sp,sp,-80
    int ri_2[size]; // MX-ring poly, a
     6dc:	07bd                	addi	a5,a5,15
     6de:	9bc1                	andi	a5,a5,-16
int* ext_euclid(int* polyR, int* polyf, int size, int mod) {
     6e0:	c4a2                	sw	s0,72(sp)
     6e2:	c2a6                	sw	s1,68(sp)
     6e4:	c0ca                	sw	s2,64(sp)
     6e6:	de4e                	sw	s3,60(sp)
     6e8:	dc52                	sw	s4,56(sp)
     6ea:	da56                	sw	s5,52(sp)
     6ec:	d85a                	sw	s6,48(sp)
     6ee:	d65e                	sw	s7,44(sp)
     6f0:	d462                	sw	s8,40(sp)
     6f2:	d266                	sw	s9,36(sp)
     6f4:	ce6e                	sw	s11,28(sp)
     6f6:	c686                	sw	ra,76(sp)
     6f8:	d06a                	sw	s10,32(sp)
     6fa:	0880                	addi	s0,sp,80
    int ri_2[size]; // MX-ring poly, a
     6fc:	40f10133          	sub	sp,sp,a5
     700:	898a                	mv	s3,sp
    int ri_1[size]; // f-random poly, f[N] = 0, b
     702:	40f10133          	sub	sp,sp,a5
     706:	8a8a                	mv	s5,sp
    int ri[size];
     708:	40f10133          	sub	sp,sp,a5
     70c:	8c0a                	mv	s8,sp

    int ti_1[size]; // ti_1[0] = 1
     70e:	40f10133          	sub	sp,sp,a5
     712:	8b0a                	mv	s6,sp
    int ti[size];
     714:	40f10133          	sub	sp,sp,a5
     718:	8c8a                	mv	s9,sp
    int qi_1[size];
     71a:	40f10133          	sub	sp,sp,a5
     71e:	8b8a                	mv	s7,sp
    int temp[size];
     720:	40f10133          	sub	sp,sp,a5
int* ext_euclid(int* polyR, int* polyf, int size, int mod) {
     724:	84b6                	mv	s1,a3
     726:	8db2                	mv	s11,a2
    int ri_2[size]; // MX-ring poly, a
     728:	fff60913          	addi	s2,a2,-1
    int temp[size];
     72c:	8a0a                	mv	s4,sp
    int *res1;
    int *res2;
    int controlR = 1;

    N = size - 1;
    for (i = 0; i < size; ++i) {
     72e:	4781                	li	a5,0
     730:	4701                	li	a4,0
        ri_2[i] = polyR[i];
        ri_1[i] = polyf[i];
        ti_2[i] = 0;
     732:	00001697          	auipc	a3,0x1
     736:	21268693          	addi	a3,a3,530 # 1944 <ti_2>
    for (i = 0; i < size; ++i) {
     73a:	0fb74163          	blt	a4,s11,81c <ext_euclid+0x146>
    }
///// ri_2 = polyR      ///////
///// ri_1 = f         //////////
///// ti_2 = ti_1 = 0 /////////

    ti_1[0] = 1;
     73e:	4785                	li	a5,1
     740:	00fb2023          	sw	a5,0(s6)
        // make mod for ri_1
	array_mod(ri_1,mod,N+1);


        res = polydiv(ri_2, N + 1, ri_1, N + 1, mod);
        for (i = N + 1; i < (2 * N + 2); ++i) {
     744:	001d9793          	slli	a5,s11,0x1
     748:	faf42e23          	sw	a5,-68(s0)
	
	array_mod(temp,mod,size);


        for (i = 0; i < N + 1; ++i) {
            ti[i] = ti_2[i] - temp[i];
     74c:	00001d17          	auipc	s10,0x1
     750:	1f8d0d13          	addi	s10,s10,504 # 1944 <ti_2>
	array_mod(ri_2,mod,N+1);
     754:	866e                	mv	a2,s11
     756:	85a6                	mv	a1,s1
     758:	854e                	mv	a0,s3
     75a:	3a25                	jal	92 <array_mod>
	array_mod(ri_1,mod,N+1);
     75c:	866e                	mv	a2,s11
     75e:	85a6                	mv	a1,s1
     760:	8556                	mv	a0,s5
     762:	3a05                	jal	92 <array_mod>
        res = polydiv(ri_2, N + 1, ri_1, N + 1, mod);
     764:	8726                	mv	a4,s1
     766:	86ee                	mv	a3,s11
     768:	8656                	mv	a2,s5
     76a:	85ee                	mv	a1,s11
     76c:	854e                	mv	a0,s3
     76e:	3179                	jal	3fc <polydiv>
        for (i = N + 1; i < (2 * N + 2); ++i) {
     770:	8762                	mv	a4,s8
     772:	87ee                	mv	a5,s11
     774:	fbc42683          	lw	a3,-68(s0)
     778:	0cd7cd63          	blt	a5,a3,852 <ext_euclid+0x17c>
     77c:	4781                	li	a5,0
        for (i = 0; i < N + 1; ++i) {
     77e:	4701                	li	a4,0
     780:	0ee95263          	bge	s2,a4,864 <ext_euclid+0x18e>
        array_mod(temp,mod,N+1);
     784:	866e                	mv	a2,s11
     786:	85a6                	mv	a1,s1
     788:	8552                	mv	a0,s4
     78a:	3221                	jal	92 <array_mod>
        res1 = polydiv(temp, N + 1, ri_1, N + 1, mod);
     78c:	8726                	mv	a4,s1
     78e:	86ee                	mv	a3,s11
     790:	8656                	mv	a2,s5
     792:	85ee                	mv	a1,s11
     794:	8552                	mv	a0,s4
     796:	319d                	jal	3fc <polydiv>
        for (i = 0; i < N + 1; ++i) {
     798:	4781                	li	a5,0
     79a:	0ef95263          	bge	s2,a5,87e <ext_euclid+0x1a8>
	array_mod(qi_1,mod,size);
     79e:	866e                	mv	a2,s11
     7a0:	85a6                	mv	a1,s1
     7a2:	855e                	mv	a0,s7
     7a4:	30fd                	jal	92 <array_mod>
        res2 = polymult(qi_1, N + 1, ti_1, N + 1, mod, 0);
     7a6:	4781                	li	a5,0
     7a8:	8726                	mv	a4,s1
     7aa:	86ee                	mv	a3,s11
     7ac:	865a                	mv	a2,s6
     7ae:	85ee                	mv	a1,s11
     7b0:	855e                	mv	a0,s7
     7b2:	38fd                	jal	b0 <polymult>
        for (i = 0; i < N + 1; ++i) {
     7b4:	4781                	li	a5,0
     7b6:	0cf95d63          	bge	s2,a5,890 <ext_euclid+0x1ba>
	array_mod(temp,mod,size);
     7ba:	866e                	mv	a2,s11
     7bc:	85a6                	mv	a1,s1
     7be:	8552                	mv	a0,s4
     7c0:	38c9                	jal	92 <array_mod>
        for (i = 0; i < N + 1; ++i) {
     7c2:	4781                	li	a5,0
     7c4:	4701                	li	a4,0
     7c6:	0ce95e63          	bge	s2,a4,8a2 <ext_euclid+0x1cc>
        }

        array_mod(ti,mod,N+1);
     7ca:	866e                	mv	a2,s11
     7cc:	85a6                	mv	a1,s1
     7ce:	8566                	mv	a0,s9
     7d0:	30c9                	jal	92 <array_mod>

/// ri_2 = ri_1; ri_1 = ri; ti_2 = ti_1; ti_1 = ti; ///

        for (i = 0; i < N + 1; ++i) {
     7d2:	4781                	li	a5,0
        controlR = 0;
     7d4:	4701                	li	a4,0
        for (i = 0; i < N + 1; ++i) {
     7d6:	4681                	li	a3,0
     7d8:	0ed95263          	bge	s2,a3,8bc <ext_euclid+0x1e6>
    while (controlR != 0) {
     7dc:	ff25                	bnez	a4,754 <ext_euclid+0x7e>
            controlR += ri[i];
        }
    }


        for (j = 0; j < mod; ++j) {
     7de:	4781                	li	a5,0
            if (((ri_2[0] * j) % mod) == 1)
     7e0:	4605                	li	a2,1
        for (j = 0; j < mod; ++j) {
     7e2:	1097cb63          	blt	a5,s1,8f8 <ext_euclid+0x222>
     7e6:	00001617          	auipc	a2,0x1
     7ea:	15e60613          	addi	a2,a2,350 # 1944 <ti_2>
            if (ri_2[i] != 0)
                //	printf("** GCD of SECRET POL and POLYR is not 1 !! OPERATION INVALID!! PICK ANOTHER RANDOM VALUE !! ***\n");
                break;
        }

        for (i = 0; i < N + 1; ++i) {
     7ee:	10e95f63          	bge	s2,a4,90c <ext_euclid+0x236>
        }


        return_address4 = &ti_2[0];
        return return_address4;
    }
     7f2:	fb040113          	addi	sp,s0,-80
     7f6:	40b6                	lw	ra,76(sp)
     7f8:	4426                	lw	s0,72(sp)
     7fa:	4496                	lw	s1,68(sp)
     7fc:	4906                	lw	s2,64(sp)
     7fe:	59f2                	lw	s3,60(sp)
     800:	5a62                	lw	s4,56(sp)
     802:	5ad2                	lw	s5,52(sp)
     804:	5b42                	lw	s6,48(sp)
     806:	5bb2                	lw	s7,44(sp)
     808:	5c22                	lw	s8,40(sp)
     80a:	5c92                	lw	s9,36(sp)
     80c:	5d02                	lw	s10,32(sp)
     80e:	4df2                	lw	s11,28(sp)
     810:	00001517          	auipc	a0,0x1
     814:	13450513          	addi	a0,a0,308 # 1944 <ti_2>
     818:	6161                	addi	sp,sp,80
     81a:	8082                	ret
        ri_2[i] = polyR[i];
     81c:	00f508b3          	add	a7,a0,a5
     820:	0008a883          	lw	a7,0(a7)
     824:	00f98633          	add	a2,s3,a5
    for (i = 0; i < size; ++i) {
     828:	0705                	addi	a4,a4,1
        ri_2[i] = polyR[i];
     82a:	01162023          	sw	a7,0(a2)
        ri_1[i] = polyf[i];
     82e:	00f588b3          	add	a7,a1,a5
     832:	0008a883          	lw	a7,0(a7)
     836:	00fa8633          	add	a2,s5,a5
     83a:	01162023          	sw	a7,0(a2)
        ti_2[i] = 0;
     83e:	00f68633          	add	a2,a3,a5
     842:	00062023          	sw	zero,0(a2)
        ti_1[i] = 0;
     846:	00fb0633          	add	a2,s6,a5
     84a:	00062023          	sw	zero,0(a2)
    for (i = 0; i < size; ++i) {
     84e:	0791                	addi	a5,a5,4
     850:	b5ed                	j	73a <ext_euclid+0x64>
            ri[i - (N + 1)] = res[i];
     852:	00279693          	slli	a3,a5,0x2
     856:	96aa                	add	a3,a3,a0
     858:	4294                	lw	a3,0(a3)
        for (i = N + 1; i < (2 * N + 2); ++i) {
     85a:	0785                	addi	a5,a5,1
     85c:	0711                	addi	a4,a4,4
            ri[i - (N + 1)] = res[i];
     85e:	fed72e23          	sw	a3,-4(a4)
        for (i = N + 1; i < (2 * N + 2); ++i) {
     862:	bf09                	j	774 <ext_euclid+0x9e>
            temp[i] = ri_2[i] - ri[i];
     864:	00f986b3          	add	a3,s3,a5
     868:	00fc05b3          	add	a1,s8,a5
     86c:	4294                	lw	a3,0(a3)
     86e:	418c                	lw	a1,0(a1)
     870:	00fa0633          	add	a2,s4,a5
        for (i = 0; i < N + 1; ++i) {
     874:	0705                	addi	a4,a4,1
            temp[i] = ri_2[i] - ri[i];
     876:	8e8d                	sub	a3,a3,a1
     878:	c214                	sw	a3,0(a2)
        for (i = 0; i < N + 1; ++i) {
     87a:	0791                	addi	a5,a5,4
     87c:	b711                	j	780 <ext_euclid+0xaa>
            qi_1[i] = res1[i];
     87e:	00279713          	slli	a4,a5,0x2
     882:	00e506b3          	add	a3,a0,a4
     886:	4294                	lw	a3,0(a3)
     888:	975e                	add	a4,a4,s7
        for (i = 0; i < N + 1; ++i) {
     88a:	0785                	addi	a5,a5,1
            qi_1[i] = res1[i];
     88c:	c314                	sw	a3,0(a4)
        for (i = 0; i < N + 1; ++i) {
     88e:	b731                	j	79a <ext_euclid+0xc4>
            temp[i] = res2[i];
     890:	00279713          	slli	a4,a5,0x2
     894:	00e506b3          	add	a3,a0,a4
     898:	4294                	lw	a3,0(a3)
     89a:	9752                	add	a4,a4,s4
        for (i = 0; i < N + 1; ++i) {
     89c:	0785                	addi	a5,a5,1
            temp[i] = res2[i];
     89e:	c314                	sw	a3,0(a4)
        for (i = 0; i < N + 1; ++i) {
     8a0:	bf19                	j	7b6 <ext_euclid+0xe0>
            ti[i] = ti_2[i] - temp[i];
     8a2:	00fd06b3          	add	a3,s10,a5
     8a6:	00fa05b3          	add	a1,s4,a5
     8aa:	4294                	lw	a3,0(a3)
     8ac:	418c                	lw	a1,0(a1)
     8ae:	00fc8633          	add	a2,s9,a5
        for (i = 0; i < N + 1; ++i) {
     8b2:	0705                	addi	a4,a4,1
            ti[i] = ti_2[i] - temp[i];
     8b4:	8e8d                	sub	a3,a3,a1
     8b6:	c214                	sw	a3,0(a2)
        for (i = 0; i < N + 1; ++i) {
     8b8:	0791                	addi	a5,a5,4
     8ba:	b731                	j	7c6 <ext_euclid+0xf0>
            ri_2[i] = ri_1[i];
     8bc:	00fa85b3          	add	a1,s5,a5
     8c0:	4188                	lw	a0,0(a1)
     8c2:	00f98633          	add	a2,s3,a5
        for (i = 0; i < N + 1; ++i) {
     8c6:	0685                	addi	a3,a3,1
            ri_2[i] = ri_1[i];
     8c8:	c208                	sw	a0,0(a2)
            ri_1[i] = ri[i];
     8ca:	00fc0633          	add	a2,s8,a5
     8ce:	4210                	lw	a2,0(a2)
            ti_2[i] = ti_1[i];
     8d0:	00fd0533          	add	a0,s10,a5
            ri_1[i] = ri[i];
     8d4:	c190                	sw	a2,0(a1)
            ti_2[i] = ti_1[i];
     8d6:	00fb05b3          	add	a1,s6,a5
     8da:	0005a883          	lw	a7,0(a1)
            controlR += ri[i];
     8de:	9732                	add	a4,a4,a2
            ti_2[i] = ti_1[i];
     8e0:	01152023          	sw	a7,0(a0)
            ti_1[i] = ti[i];
     8e4:	00fc8533          	add	a0,s9,a5
     8e8:	4108                	lw	a0,0(a0)
     8ea:	c188                	sw	a0,0(a1)
            qi_1[i] = 0;
     8ec:	00fb85b3          	add	a1,s7,a5
     8f0:	0005a023          	sw	zero,0(a1)
        for (i = 0; i < N + 1; ++i) {
     8f4:	0791                	addi	a5,a5,4
     8f6:	b5cd                	j	7d8 <ext_euclid+0x102>
            if (((ri_2[0] * j) % mod) == 1)
     8f8:	0009a683          	lw	a3,0(s3)
     8fc:	02d786b3          	mul	a3,a5,a3
     900:	0296e6b3          	rem	a3,a3,s1
     904:	eec681e3          	beq	a3,a2,7e6 <ext_euclid+0x110>
        for (j = 0; j < mod; ++j) {
     908:	0785                	addi	a5,a5,1
     90a:	bde1                	j	7e2 <ext_euclid+0x10c>
            ti_2[i] = (ti_2[i] * j) % mod;        // ti_2[i]*j vardı..
     90c:	4214                	lw	a3,0(a2)
        for (i = 0; i < N + 1; ++i) {
     90e:	0705                	addi	a4,a4,1
     910:	0611                	addi	a2,a2,4
            ti_2[i] = (ti_2[i] * j) % mod;        // ti_2[i]*j vardı..
     912:	02d786b3          	mul	a3,a5,a3
     916:	0296e6b3          	rem	a3,a3,s1
     91a:	fed62e23          	sw	a3,-4(a2)
        for (i = 0; i < N + 1; ++i) {
     91e:	bdc1                	j	7ee <ext_euclid+0x118>

00000920 <generate_keys>:




int* generate_keys(int N, int p, int q){
     920:	7141                	addi	sp,sp,-496
     922:	1e112623          	sw	ra,492(sp)
     926:	1e812423          	sw	s0,488(sp)
     92a:	1e912223          	sw	s1,484(sp)
     92e:	1b80                	addi	s0,sp,496
     930:	1f212023          	sw	s2,480(sp)
     934:	1d312e23          	sw	s3,476(sp)
     938:	1d412c23          	sw	s4,472(sp)
     93c:	1d512a23          	sw	s5,468(sp)
     940:	1d612823          	sw	s6,464(sp)
     944:	1d712623          	sw	s7,460(sp)
     948:	1da12023          	sw	s10,448(sp)
     94c:	1d812423          	sw	s8,456(sp)
     950:	1d912223          	sw	s9,452(sp)
     954:	892a                	mv	s2,a0
     956:	8bae                	mv	s7,a1
     958:	8b32                	mv	s6,a2
  

    int f[55] = {-1, 1, 1, 0, -1, 0, 1, 0, 0, 1, -1, -1, 0, 1, 0, -1, 0, 1, 1, 0, 0,  -1, 0, 1, 0, 0, 1, 1, 1,  -1, 0, 1, 0, 0, 1, 1, 1,    -1, 0, 1, 0, 0, 1, 1, 1};
     95a:	4581                	li	a1,0
     95c:	0d000613          	li	a2,208
     960:	e2440513          	addi	a0,s0,-476
     964:	238d                	jal	ec6 <memset>
     966:	4485                	li	s1,1
     968:	59fd                	li	s3,-1
    int g[55] = {-1, 0, 1, 1, 0, 1, 0, 0, -1, 0, -1, -1, 0, 1, 0, -1, 0, 1, 0, 0, 1, -1, 0, 1, 0, 0, 1, -1, 0, 1, 0, 0, 1, -1, 0, 1, 0, 1,   1, 0, 0, 1, -1, 0, 1, 0, 1};
     96a:	0d800613          	li	a2,216
     96e:	4581                	li	a1,0
     970:	ef840513          	addi	a0,s0,-264
    int f[55] = {-1, 1, 1, 0, -1, 0, 1, 0, 0, 1, -1, -1, 0, 1, 0, -1, 0, 1, 1, 0, 0,  -1, 0, 1, 0, 0, 1, 1, 1,  -1, 0, 1, 0, 0, 1, 1, 1,    -1, 0, 1, 0, 0, 1, 1, 1};
     974:	e1342c23          	sw	s3,-488(s0)
     978:	e0942e23          	sw	s1,-484(s0)
     97c:	e2942023          	sw	s1,-480(s0)
     980:	e3342423          	sw	s3,-472(s0)
     984:	e2942823          	sw	s1,-464(s0)
     988:	e2942e23          	sw	s1,-452(s0)
     98c:	e5342023          	sw	s3,-448(s0)
     990:	e5342223          	sw	s3,-444(s0)
     994:	e4942623          	sw	s1,-436(s0)
     998:	e5342a23          	sw	s3,-428(s0)
     99c:	e4942e23          	sw	s1,-420(s0)
     9a0:	e6942023          	sw	s1,-416(s0)
     9a4:	e7342623          	sw	s3,-404(s0)
     9a8:	e6942a23          	sw	s1,-396(s0)
     9ac:	e8942023          	sw	s1,-384(s0)
     9b0:	e8942223          	sw	s1,-380(s0)
     9b4:	e8942423          	sw	s1,-376(s0)
     9b8:	e9342623          	sw	s3,-372(s0)
     9bc:	e8942a23          	sw	s1,-364(s0)
     9c0:	ea942023          	sw	s1,-352(s0)
     9c4:	ea942223          	sw	s1,-348(s0)
     9c8:	ea942423          	sw	s1,-344(s0)
     9cc:	eb342623          	sw	s3,-340(s0)
     9d0:	ea942a23          	sw	s1,-332(s0)
     9d4:	ec942023          	sw	s1,-320(s0)
     9d8:	ec942223          	sw	s1,-316(s0)
     9dc:	ec942423          	sw	s1,-312(s0)

    int *fp;
    int *fq;
    int *fg;
    int *pk;
    int polyR[N+1];
     9e0:	00190a93          	addi	s5,s2,1
    int g[55] = {-1, 0, 1, 1, 0, 1, 0, 0, -1, 0, -1, -1, 0, 1, 0, -1, 0, 1, 0, 0, 1, -1, 0, 1, 0, 0, 1, -1, 0, 1, 0, 0, 1, -1, 0, 1, 0, 1,   1, 0, 0, 1, -1, 0, 1, 0, 1};
     9e4:	21cd                	jal	ec6 <memset>
    int polyR[N+1];
     9e6:	002a9793          	slli	a5,s5,0x2
     9ea:	07bd                	addi	a5,a5,15
     9ec:	9bc1                	andi	a5,a5,-16
     9ee:	40f10133          	sub	sp,sp,a5
     9f2:	8a0a                	mv	s4,sp
    int i;
    int* return_address5;


    polyR[N] = 1;
     9f4:	00291d13          	slli	s10,s2,0x2
     9f8:	01aa07b3          	add	a5,s4,s10
     9fc:	c384                	sw	s1,0(a5)
    int g[55] = {-1, 0, 1, 1, 0, 1, 0, 0, -1, 0, -1, -1, 0, 1, 0, -1, 0, 1, 0, 0, 1, -1, 0, 1, 0, 0, 1, -1, 0, 1, 0, 0, 1, -1, 0, 1, 0, 1,   1, 0, 0, 1, -1, 0, 1, 0, 1};
     9fe:	ef342a23          	sw	s3,-268(s0)
     a02:	ee942e23          	sw	s1,-260(s0)
     a06:	f0942023          	sw	s1,-256(s0)
     a0a:	f0942423          	sw	s1,-248(s0)
     a0e:	f1342a23          	sw	s3,-236(s0)
     a12:	f1342e23          	sw	s3,-228(s0)
     a16:	f3342023          	sw	s3,-224(s0)
     a1a:	f2942423          	sw	s1,-216(s0)
     a1e:	f3342823          	sw	s3,-208(s0)
     a22:	f2942c23          	sw	s1,-200(s0)
     a26:	f4942223          	sw	s1,-188(s0)
     a2a:	f5342423          	sw	s3,-184(s0)
     a2e:	f4942823          	sw	s1,-176(s0)
     a32:	f4942e23          	sw	s1,-164(s0)
     a36:	f7342023          	sw	s3,-160(s0)
     a3a:	f6942423          	sw	s1,-152(s0)
     a3e:	f6942a23          	sw	s1,-140(s0)
     a42:	f7342c23          	sw	s3,-136(s0)
     a46:	f8942023          	sw	s1,-128(s0)
     a4a:	f8942423          	sw	s1,-120(s0)
     a4e:	f8942623          	sw	s1,-116(s0)
     a52:	f8942c23          	sw	s1,-104(s0)
     a56:	f9342e23          	sw	s3,-100(s0)
     a5a:	fa942223          	sw	s1,-92(s0)
     a5e:	fa942623          	sw	s1,-84(s0)
    polyR[0] = -1;
     a62:	013a2023          	sw	s3,0(s4)

    for(i = 1; i < N; ++i){
     a66:	4785                	li	a5,1
     a68:	1127c263          	blt	a5,s2,b6c <generate_keys+0x24c>
     a6c:	87ca                	mv	a5,s2
        polyR[i] = 0;
    }



    for (i = N; i < 55; ++i ){
     a6e:	03600693          	li	a3,54
     a72:	10f6d463          	bge	a3,a5,b7a <generate_keys+0x25a>
        g[i] = 0;
    }
///// F VE G ARRAYLERİNİN SONLARI SIFIRLANDI //////


    for(i = 0; i < N; ++i){
     a76:	4781                	li	a5,0
        random_keys[i] = f[i];
     a78:	00001697          	auipc	a3,0x1
     a7c:	05c68693          	addi	a3,a3,92 # 1ad4 <random_keys>
    for(i = 0; i < N; ++i){
     a80:	1127cb63          	blt	a5,s2,b96 <generate_keys+0x276>
     a84:	ef440713          	addi	a4,s0,-268
    }
    ////RANDOM_KEYS 0-52 ARASI F////

    for(i = N; i < (2*N); ++i){
     a88:	00191993          	slli	s3,s2,0x1
     a8c:	87ca                	mv	a5,s2
     a8e:	8cba                	mv	s9,a4
        random_keys[i] = g[i-N];
     a90:	00001617          	auipc	a2,0x1
     a94:	04460613          	addi	a2,a2,68 # 1ad4 <random_keys>
    for(i = N; i < (2*N); ++i){
     a98:	1137ca63          	blt	a5,s3,bac <generate_keys+0x28c>
    ////RANDOM_KEYS 53-105 ARASI G////

    fp = ext_euclid(polyR, f, (N+1), p);
    ////FP HESAPLANDI////

    for(i = (2*N); i < (3*N); ++i){
     a9c:	448d                	li	s1,3
     a9e:	029904b3          	mul	s1,s2,s1
    fp = ext_euclid(polyR, f, (N+1), p);
     aa2:	86de                	mv	a3,s7
     aa4:	8656                	mv	a2,s5
     aa6:	e1840593          	addi	a1,s0,-488
     aaa:	8552                	mv	a0,s4
     aac:	312d                	jal	6d6 <ext_euclid>
    for(i = (2*N); i < (3*N); ++i){
     aae:	87ce                	mv	a5,s3
        random_keys[i] = fp[i-(2*N)];
     ab0:	00001697          	auipc	a3,0x1
     ab4:	02468693          	addi	a3,a3,36 # 1ad4 <random_keys>
    for(i = (2*N); i < (3*N); ++i){
     ab8:	1097c263          	blt	a5,s1,bbc <generate_keys+0x29c>
    }
    ////RANDOM_KEYS 106-158 ARASI FP////


    fq = ext_euclid(polyR, f, (N+1), q);
     abc:	8656                	mv	a2,s5
     abe:	86da                	mv	a3,s6
     ac0:	e1840593          	addi	a1,s0,-488
     ac4:	8552                	mv	a0,s4
     ac6:	3901                	jal	6d6 <ext_euclid>
    ////FQ HESAPLANDI ////


    for(i = (3*N); i < (4*N); ++i){
     ac8:	5751                	li	a4,-12
     aca:	02e90733          	mul	a4,s2,a4
     ace:	8c6a                	mv	s8,s10
        random_keys[i] = fq[i-(3*N)];
     ad0:	00001617          	auipc	a2,0x1
     ad4:	00460613          	addi	a2,a2,4 # 1ad4 <random_keys>
    for(i = (3*N); i < (4*N); ++i){
     ad8:	0fa4ca63          	blt	s1,s10,bcc <generate_keys+0x2ac>
    }
    ////RANDOM KEYS 159-211 ARASI FQ ////

    fg = polymult2(fq, N, g, N, 0);
     adc:	4701                	li	a4,0
     ade:	85ca                	mv	a1,s2
     ae0:	86ca                	mv	a3,s2
     ae2:	8666                	mv	a2,s9
     ae4:	fa8ff0ef          	jal	ra,28c <polymult2>
    //// FG HESAPLANDI ////

    for(i = 0; i < (2*N-1); ++i){
     ae8:	87aa                	mv	a5,a0
     aea:	4701                	li	a4,0
     aec:	fff98593          	addi	a1,s3,-1
     af0:	0eb74863          	blt	a4,a1,be0 <generate_keys+0x2c0>
        fg[i] = fg[i]*p;
    }

    //// FG = 3FG ////

    pk = polydiv(fg, (2*N-1), polyR, (N+1), q);
     af4:	86d6                	mv	a3,s5
     af6:	875a                	mv	a4,s6
     af8:	8652                	mv	a2,s4
     afa:	3209                	jal	3fc <polydiv>

    ////PK HESAPLANDI////

    for(i = (4*N); i < (5*N); ++i){
     afc:	4795                	li	a5,5
     afe:	02f907b3          	mul	a5,s2,a5
     b02:	098a                	slli	s3,s3,0x2
     b04:	99aa                	add	s3,s3,a0
        random_keys[i] = pk[i-(4*N)+(2*N-1)];
     b06:	00001697          	auipc	a3,0x1
     b0a:	fce68693          	addi	a3,a3,-50 # 1ad4 <random_keys>
    for(i = (4*N); i < (5*N); ++i){
     b0e:	0991                	addi	s3,s3,4
     b10:	0efc4063          	blt	s8,a5,bf0 <generate_keys+0x2d0>
    }
    //////// RANDOM KEYS SONU PK  ////////

    for(i = (5*N); i < (6*N+1); ++i){
     b14:	4699                	li	a3,6
     b16:	5531                	li	a0,-20
        random_keys[i] = polyR[i-(5*N)];
     b18:	00001617          	auipc	a2,0x1
     b1c:	fbc60613          	addi	a2,a2,-68 # 1ad4 <random_keys>
    for(i = (5*N); i < (6*N+1); ++i){
     b20:	02d906b3          	mul	a3,s2,a3
     b24:	02a90933          	mul	s2,s2,a0
     b28:	0cf6dc63          	bge	a3,a5,c00 <generate_keys+0x2e0>


    return_address5 = &random_keys[0];

    return return_address5;
}
     b2c:	e1040113          	addi	sp,s0,-496
     b30:	1ec12083          	lw	ra,492(sp)
     b34:	1e812403          	lw	s0,488(sp)
     b38:	1e412483          	lw	s1,484(sp)
     b3c:	1e012903          	lw	s2,480(sp)
     b40:	1dc12983          	lw	s3,476(sp)
     b44:	1d812a03          	lw	s4,472(sp)
     b48:	1d412a83          	lw	s5,468(sp)
     b4c:	1d012b03          	lw	s6,464(sp)
     b50:	1cc12b83          	lw	s7,460(sp)
     b54:	1c812c03          	lw	s8,456(sp)
     b58:	1c412c83          	lw	s9,452(sp)
     b5c:	1c012d03          	lw	s10,448(sp)
     b60:	00001517          	auipc	a0,0x1
     b64:	f7450513          	addi	a0,a0,-140 # 1ad4 <random_keys>
     b68:	617d                	addi	sp,sp,496
     b6a:	8082                	ret
        polyR[i] = 0;
     b6c:	00279713          	slli	a4,a5,0x2
     b70:	9752                	add	a4,a4,s4
     b72:	00072023          	sw	zero,0(a4)
    for(i = 1; i < N; ++i){
     b76:	0785                	addi	a5,a5,1
     b78:	bdc5                	j	a68 <generate_keys+0x148>
        f[i] = 0;
     b7a:	00279713          	slli	a4,a5,0x2
     b7e:	e1840613          	addi	a2,s0,-488
     b82:	963a                	add	a2,a2,a4
     b84:	00062023          	sw	zero,0(a2)
        g[i] = 0;
     b88:	ef440613          	addi	a2,s0,-268
     b8c:	9732                	add	a4,a4,a2
     b8e:	00072023          	sw	zero,0(a4)
    for (i = N; i < 55; ++i ){
     b92:	0785                	addi	a5,a5,1
     b94:	bdf9                	j	a72 <generate_keys+0x152>
        random_keys[i] = f[i];
     b96:	00279713          	slli	a4,a5,0x2
     b9a:	e1840593          	addi	a1,s0,-488
     b9e:	00e68633          	add	a2,a3,a4
     ba2:	972e                	add	a4,a4,a1
     ba4:	4318                	lw	a4,0(a4)
    for(i = 0; i < N; ++i){
     ba6:	0785                	addi	a5,a5,1
        random_keys[i] = f[i];
     ba8:	c218                	sw	a4,0(a2)
    for(i = 0; i < N; ++i){
     baa:	bdd9                	j	a80 <generate_keys+0x160>
        random_keys[i] = g[i-N];
     bac:	430c                	lw	a1,0(a4)
     bae:	00279693          	slli	a3,a5,0x2
     bb2:	96b2                	add	a3,a3,a2
     bb4:	c28c                	sw	a1,0(a3)
    for(i = N; i < (2*N); ++i){
     bb6:	0785                	addi	a5,a5,1
     bb8:	0711                	addi	a4,a4,4
     bba:	bdf9                	j	a98 <generate_keys+0x178>
        random_keys[i] = fp[i-(2*N)];
     bbc:	4110                	lw	a2,0(a0)
     bbe:	00279713          	slli	a4,a5,0x2
     bc2:	9736                	add	a4,a4,a3
     bc4:	c310                	sw	a2,0(a4)
    for(i = (2*N); i < (3*N); ++i){
     bc6:	0785                	addi	a5,a5,1
     bc8:	0511                	addi	a0,a0,4
     bca:	b5fd                	j	ab8 <generate_keys+0x198>
        random_keys[i] = fq[i-(3*N)];
     bcc:	00249793          	slli	a5,s1,0x2
     bd0:	00f706b3          	add	a3,a4,a5
     bd4:	96aa                	add	a3,a3,a0
     bd6:	4294                	lw	a3,0(a3)
     bd8:	97b2                	add	a5,a5,a2
    for(i = (3*N); i < (4*N); ++i){
     bda:	0485                	addi	s1,s1,1
        random_keys[i] = fq[i-(3*N)];
     bdc:	c394                	sw	a3,0(a5)
    for(i = (3*N); i < (4*N); ++i){
     bde:	bded                	j	ad8 <generate_keys+0x1b8>
        fg[i] = fg[i]*p;
     be0:	4394                	lw	a3,0(a5)
    for(i = 0; i < (2*N-1); ++i){
     be2:	0705                	addi	a4,a4,1
     be4:	0791                	addi	a5,a5,4
        fg[i] = fg[i]*p;
     be6:	037686b3          	mul	a3,a3,s7
     bea:	fed7ae23          	sw	a3,-4(a5)
    for(i = 0; i < (2*N-1); ++i){
     bee:	b709                	j	af0 <generate_keys+0x1d0>
        random_keys[i] = pk[i-(4*N)+(2*N-1)];
     bf0:	ff89a603          	lw	a2,-8(s3)
     bf4:	002c1713          	slli	a4,s8,0x2
     bf8:	9736                	add	a4,a4,a3
     bfa:	c310                	sw	a2,0(a4)
    for(i = (4*N); i < (5*N); ++i){
     bfc:	0c05                	addi	s8,s8,1
     bfe:	bf01                	j	b0e <generate_keys+0x1ee>
        random_keys[i] = polyR[i-(5*N)];
     c00:	00279713          	slli	a4,a5,0x2
     c04:	00e605b3          	add	a1,a2,a4
     c08:	974a                	add	a4,a4,s2
     c0a:	9752                	add	a4,a4,s4
     c0c:	4318                	lw	a4,0(a4)
    for(i = (5*N); i < (6*N+1); ++i){
     c0e:	0785                	addi	a5,a5,1
        random_keys[i] = polyR[i-(5*N)];
     c10:	c198                	sw	a4,0(a1)
    for(i = (5*N); i < (6*N+1); ++i){
     c12:	bf19                	j	b28 <generate_keys+0x208>

00000c14 <ntru_encyrpt>:


int* ntru_encyrpt(int N, int q, int* message, int* public_key, int* polyR){
     c14:	7115                	addi	sp,sp,-224
     c16:	cda2                	sw	s0,216(sp)
     c18:	cba6                	sw	s1,212(sp)
     c1a:	c9ca                	sw	s2,208(sp)
     c1c:	842a                	mv	s0,a0
     c1e:	892e                	mv	s2,a1
     c20:	84b2                	mv	s1,a2

    int *return_address6;
    int *CT;

    int random_val[48] = { 1, -1, 0, 1, -1, 1, -1, 0,1, 1, 0, -1, 1, -1, 1, 0,1, 1, 0, -1, 1, -1, 1, 0,1, 1, 0, 1, -1, 1, -1, 0, 1, -1, 0, 1, -1, 1, -1, 0,1, 1, 0, -1, 1, -1, 1, 0};
     c22:	00000597          	auipc	a1,0x0
     c26:	49658593          	addi	a1,a1,1174 # 10b8 <_endtext>
     c2a:	0c000613          	li	a2,192
     c2e:	850a                	mv	a0,sp
int* ntru_encyrpt(int N, int q, int* message, int* public_key, int* polyR){
     c30:	cf86                	sw	ra,220(sp)
     c32:	c7ce                	sw	s3,204(sp)
     c34:	c5d2                	sw	s4,200(sp)
     c36:	89ba                	mv	s3,a4
     c38:	8a36                	mv	s4,a3
    int random_val[48] = { 1, -1, 0, 1, -1, 1, -1, 0,1, 1, 0, -1, 1, -1, 1, 0,1, 1, 0, -1, 1, -1, 1, 0,1, 1, 0, 1, -1, 1, -1, 0, 1, -1, 0, 1, -1, 1, -1, 0,1, 1, 0, -1, 1, -1, 1, 0};
     c3a:	227d                	jal	de8 <memcpy>
    int *temp;
    int i;


    temp = polymult(public_key,N,random_val,48,q,0);
     c3c:	4781                	li	a5,0
     c3e:	860a                	mv	a2,sp
     c40:	874a                	mv	a4,s2
     c42:	03000693          	li	a3,48
     c46:	85a2                	mv	a1,s0
     c48:	8552                	mv	a0,s4
     c4a:	c66ff0ef          	jal	ra,b0 <polymult>
     c4e:	4781                	li	a5,0

    /////// PUBLIC_KEY*RANDOM_VALUE ///////

    for(i = 0; i < 48; ++i){
     c50:	0c000613          	li	a2,192
        temp[i] = temp[i] + message[i];
     c54:	00f506b3          	add	a3,a0,a5
     c58:	00f485b3          	add	a1,s1,a5
     c5c:	4298                	lw	a4,0(a3)
     c5e:	418c                	lw	a1,0(a1)
     c60:	0791                	addi	a5,a5,4
     c62:	972e                	add	a4,a4,a1
     c64:	c298                	sw	a4,0(a3)
    for(i = 0; i < 48; ++i){
     c66:	fec797e3          	bne	a5,a2,c54 <ntru_encyrpt+0x40>
    }

    ////// PUBLIC_KEY*RANDOM_VALUE + MESSAGE ///////

    CT = polydiv(temp,(2*N),polyR,(N+1),q);
     c6a:	00141493          	slli	s1,s0,0x1
     c6e:	00140693          	addi	a3,s0,1
     c72:	874a                	mv	a4,s2
     c74:	864e                	mv	a2,s3
     c76:	85a6                	mv	a1,s1
     c78:	f84ff0ef          	jal	ra,3fc <polydiv>

    for(i = (2*N); i < (3*N); ++i){
     c7c:	478d                	li	a5,3
     c7e:	02f40433          	mul	s0,s0,a5
     c82:	87aa                	mv	a5,a0
     c84:	0084ca63          	blt	s1,s0,c98 <ntru_encyrpt+0x84>
    ///// YUKARIDAKI IKI ISLEM MODULO OPERASYONU YAPIYOR /////


    return_address6 = &CT[0];
    return return_address6;
}
     c88:	40fe                	lw	ra,220(sp)
     c8a:	446e                	lw	s0,216(sp)
     c8c:	44de                	lw	s1,212(sp)
     c8e:	494e                	lw	s2,208(sp)
     c90:	49be                	lw	s3,204(sp)
     c92:	4a2e                	lw	s4,200(sp)
     c94:	612d                	addi	sp,sp,224
     c96:	8082                	ret
        CT[i-(2*N)] = CT[i];
     c98:	00249713          	slli	a4,s1,0x2
     c9c:	972a                	add	a4,a4,a0
     c9e:	4318                	lw	a4,0(a4)
    for(i = (2*N); i < (3*N); ++i){
     ca0:	0485                	addi	s1,s1,1
     ca2:	0791                	addi	a5,a5,4
        CT[i-(2*N)] = CT[i];
     ca4:	fee7ae23          	sw	a4,-4(a5)
    for(i = (2*N); i < (3*N); ++i){
     ca8:	bff1                	j	c84 <ntru_encyrpt+0x70>

00000caa <ntru_deceypt>:


int* ntru_deceypt(int N, int p, int q, int* secret_key_f, int* secret_key_fp, int* Enc_Message, int* polyR){
     caa:	7179                	addi	sp,sp,-48
     cac:	d422                	sw	s0,40(sp)
     cae:	ce4e                	sw	s3,28(sp)
     cb0:	842a                	mv	s0,a0


    a2 = polydiv(a,(2*N),polyR,(N+1),q);
/////////// Vector a2 (f.e modq) /////////

    for(i = (2*N); i < ((2*N)+N); ++i){
     cb2:	498d                	li	s3,3
     cb4:	033409b3          	mul	s3,s0,s3
int* ntru_deceypt(int N, int p, int q, int* secret_key_f, int* secret_key_fp, int* Enc_Message, int* polyR){
     cb8:	d04a                	sw	s2,32(sp)
     cba:	ca56                	sw	s5,20(sp)
     cbc:	c65e                	sw	s7,12(sp)
     cbe:	8932                	mv	s2,a2
     cc0:	8536                	mv	a0,a3
    a = polymult2(secret_key_f,N,Enc_Message,N,0);
     cc2:	863e                	mv	a2,a5
     cc4:	86a2                	mv	a3,s0
int* ntru_deceypt(int N, int p, int q, int* secret_key_f, int* secret_key_fp, int* Enc_Message, int* polyR){
     cc6:	8aae                	mv	s5,a1
     cc8:	8bba                	mv	s7,a4
    a = polymult2(secret_key_f,N,Enc_Message,N,0);
     cca:	85a2                	mv	a1,s0
     ccc:	4701                	li	a4,0
int* ntru_deceypt(int N, int p, int q, int* secret_key_f, int* secret_key_fp, int* Enc_Message, int* polyR){
     cce:	d606                	sw	ra,44(sp)
     cd0:	d226                	sw	s1,36(sp)
     cd2:	cc52                	sw	s4,24(sp)
     cd4:	c85a                	sw	s6,16(sp)
     cd6:	8a42                	mv	s4,a6
    a2 = polydiv(a,(2*N),polyR,(N+1),q);
     cd8:	00141493          	slli	s1,s0,0x1
    a = polymult2(secret_key_f,N,Enc_Message,N,0);
     cdc:	db0ff0ef          	jal	ra,28c <polymult2>
    a2 = polydiv(a,(2*N),polyR,(N+1),q);
     ce0:	00140b13          	addi	s6,s0,1
     ce4:	874a                	mv	a4,s2
     ce6:	86da                	mv	a3,s6
     ce8:	8652                	mv	a2,s4
     cea:	85a6                	mv	a1,s1
     cec:	f10ff0ef          	jal	ra,3fc <polydiv>
     cf0:	862a                	mv	a2,a0
    for(i = (2*N); i < ((2*N)+N); ++i){
     cf2:	87aa                	mv	a5,a0
     cf4:	872a                	mv	a4,a0
     cf6:	86a6                	mv	a3,s1
     cf8:	0536c263          	blt	a3,s3,d3c <ntru_deceypt+0x92>
        a2[i-(2*N)] = a2[i];
    }

    //centerlifting a2
    for (i = 0; i < N; ++i){
        if(a2[i] <= q/2)
     cfc:	4589                	li	a1,2
     cfe:	02b945b3          	div	a1,s2,a1
    for (i = 0; i < N; ++i){
     d02:	4701                	li	a4,0
     d04:	04874563          	blt	a4,s0,d4e <ntru_deceypt+0xa4>
        else
            a2[i] = (-1)*(q-a2[i]);
    }


    c = polymult2(secret_key_fp,N,a2,N,0);
     d08:	4701                	li	a4,0
     d0a:	86a2                	mv	a3,s0
     d0c:	85a2                	mv	a1,s0
     d0e:	855e                	mv	a0,s7
     d10:	d7cff0ef          	jal	ra,28c <polymult2>
/////////"Vector c(fp*a2)//////////


    c2 = polydiv(c,(2*N),polyR,(N+1),p);
     d14:	8756                	mv	a4,s5
     d16:	86da                	mv	a3,s6
     d18:	8652                	mv	a2,s4
     d1a:	85a6                	mv	a1,s1
     d1c:	ee0ff0ef          	jal	ra,3fc <polydiv>
    for(i = (2*N); i < ((2*N)+N); ++i){
     d20:	87aa                	mv	a5,a0
     d22:	0334cf63          	blt	s1,s3,d60 <ntru_deceypt+0xb6>
    }
    ////////"Vector c2 (decrypted message)/////////

    return_address7 = &c2[0];
    return return_address7;
}
     d26:	50b2                	lw	ra,44(sp)
     d28:	5422                	lw	s0,40(sp)
     d2a:	5492                	lw	s1,36(sp)
     d2c:	5902                	lw	s2,32(sp)
     d2e:	49f2                	lw	s3,28(sp)
     d30:	4a62                	lw	s4,24(sp)
     d32:	4ad2                	lw	s5,20(sp)
     d34:	4b42                	lw	s6,16(sp)
     d36:	4bb2                	lw	s7,12(sp)
     d38:	6145                	addi	sp,sp,48
     d3a:	8082                	ret
        a2[i-(2*N)] = a2[i];
     d3c:	00269593          	slli	a1,a3,0x2
     d40:	95b2                	add	a1,a1,a2
     d42:	418c                	lw	a1,0(a1)
    for(i = (2*N); i < ((2*N)+N); ++i){
     d44:	0685                	addi	a3,a3,1
     d46:	0711                	addi	a4,a4,4
        a2[i-(2*N)] = a2[i];
     d48:	feb72e23          	sw	a1,-4(a4)
    for(i = (2*N); i < ((2*N)+N); ++i){
     d4c:	b775                	j	cf8 <ntru_deceypt+0x4e>
        if(a2[i] <= q/2)
     d4e:	4394                	lw	a3,0(a5)
     d50:	00d5d563          	bge	a1,a3,d5a <ntru_deceypt+0xb0>
            a2[i] = (-1)*(q-a2[i]);
     d54:	412686b3          	sub	a3,a3,s2
     d58:	c394                	sw	a3,0(a5)
    for (i = 0; i < N; ++i){
     d5a:	0705                	addi	a4,a4,1
     d5c:	0791                	addi	a5,a5,4
     d5e:	b75d                	j	d04 <ntru_deceypt+0x5a>
        c2[i-(2*N)] = c2[i];
     d60:	00249713          	slli	a4,s1,0x2
     d64:	972a                	add	a4,a4,a0
     d66:	4318                	lw	a4,0(a4)
    for(i = (2*N); i < ((2*N)+N); ++i){
     d68:	0485                	addi	s1,s1,1
     d6a:	0791                	addi	a5,a5,4
        c2[i-(2*N)] = c2[i];
     d6c:	fee7ae23          	sw	a4,-4(a5)
    for(i = (2*N); i < ((2*N)+N); ++i){
     d70:	bf4d                	j	d22 <ntru_deceypt+0x78>

00000d72 <default_exc_handler>:
  jal x0, default_exc_handler
     d72:	0000006f          	j	d72 <default_exc_handler>

00000d76 <reset_handler>:
  mv  x1, x0
     d76:	00000093          	li	ra,0
  mv  x2, x1
     d7a:	8106                	mv	sp,ra
  mv  x3, x1
     d7c:	8186                	mv	gp,ra
  mv  x4, x1
     d7e:	8206                	mv	tp,ra
  mv  x5, x1
     d80:	8286                	mv	t0,ra
  mv  x6, x1
     d82:	8306                	mv	t1,ra
  mv  x7, x1
     d84:	8386                	mv	t2,ra
  mv  x8, x1
     d86:	8406                	mv	s0,ra
  mv  x9, x1
     d88:	8486                	mv	s1,ra
  mv x10, x1
     d8a:	8506                	mv	a0,ra
  mv x11, x1
     d8c:	8586                	mv	a1,ra
  mv x12, x1
     d8e:	8606                	mv	a2,ra
  mv x13, x1
     d90:	8686                	mv	a3,ra
  mv x14, x1
     d92:	8706                	mv	a4,ra
  mv x15, x1
     d94:	8786                	mv	a5,ra
  mv x16, x1
     d96:	8806                	mv	a6,ra
  mv x17, x1
     d98:	8886                	mv	a7,ra
  mv x18, x1
     d9a:	8906                	mv	s2,ra
  mv x19, x1
     d9c:	8986                	mv	s3,ra
  mv x20, x1
     d9e:	8a06                	mv	s4,ra
  mv x21, x1
     da0:	8a86                	mv	s5,ra
  mv x22, x1
     da2:	8b06                	mv	s6,ra
  mv x23, x1
     da4:	8b86                	mv	s7,ra
  mv x24, x1
     da6:	8c06                	mv	s8,ra
  mv x25, x1
     da8:	8c86                	mv	s9,ra
  mv x26, x1
     daa:	8d06                	mv	s10,ra
  mv x27, x1
     dac:	8d86                	mv	s11,ra
  mv x28, x1
     dae:	8e06                	mv	t3,ra
  mv x29, x1
     db0:	8e86                	mv	t4,ra
  mv x30, x1
     db2:	8f06                	mv	t5,ra
  mv x31, x1
     db4:	8f86                	mv	t6,ra
  la   x2, _stack_start
     db6:	0000f117          	auipc	sp,0xf
     dba:	24a10113          	addi	sp,sp,586 # 10000 <_stack_start>

00000dbe <_start>:
  la x26, _bss_start
     dbe:	00000d17          	auipc	s10,0x0
     dc2:	47ed0d13          	addi	s10,s10,1150 # 123c <_bss_start>
  la x27, _bss_end
     dc6:	00001d97          	auipc	s11,0x1
     dca:	206d8d93          	addi	s11,s11,518 # 1fcc <_bss_end>
  bge x26, x27, zero_loop_end
     dce:	01bd5763          	bge	s10,s11,ddc <main_entry>

00000dd2 <zero_loop>:
  sw x0, 0(x26)
     dd2:	000d2023          	sw	zero,0(s10)
  addi x26, x26, 4
     dd6:	0d11                	addi	s10,s10,4
  ble x26, x27, zero_loop
     dd8:	ffaddde3          	bge	s11,s10,dd2 <zero_loop>

00000ddc <main_entry>:
  addi x10, x0, 0
     ddc:	00000513          	li	a0,0
  addi x11, x0, 0
     de0:	00000593          	li	a1,0
  jal x1, main
     de4:	18a000ef          	jal	ra,f6e <main>

00000de8 <memcpy>:
     de8:	00a5c7b3          	xor	a5,a1,a0
     dec:	8b8d                	andi	a5,a5,3
     dee:	00c508b3          	add	a7,a0,a2
     df2:	e7a1                	bnez	a5,e3a <memcpy+0x52>
     df4:	478d                	li	a5,3
     df6:	04c7f263          	bgeu	a5,a2,e3a <memcpy+0x52>
     dfa:	00357793          	andi	a5,a0,3
     dfe:	872a                	mv	a4,a0
     e00:	eba9                	bnez	a5,e52 <memcpy+0x6a>
     e02:	ffc8f613          	andi	a2,a7,-4
     e06:	fe060793          	addi	a5,a2,-32
     e0a:	06f76763          	bltu	a4,a5,e78 <memcpy+0x90>
     e0e:	02c77363          	bgeu	a4,a2,e34 <memcpy+0x4c>
     e12:	86ae                	mv	a3,a1
     e14:	87ba                	mv	a5,a4
     e16:	0006a803          	lw	a6,0(a3)
     e1a:	0791                	addi	a5,a5,4
     e1c:	0691                	addi	a3,a3,4
     e1e:	ff07ae23          	sw	a6,-4(a5)
     e22:	fec7eae3          	bltu	a5,a2,e16 <memcpy+0x2e>
     e26:	fff60793          	addi	a5,a2,-1
     e2a:	8f99                	sub	a5,a5,a4
     e2c:	9bf1                	andi	a5,a5,-4
     e2e:	0791                	addi	a5,a5,4
     e30:	973e                	add	a4,a4,a5
     e32:	95be                	add	a1,a1,a5
     e34:	01176663          	bltu	a4,a7,e40 <memcpy+0x58>
     e38:	8082                	ret
     e3a:	872a                	mv	a4,a0
     e3c:	ff157ee3          	bgeu	a0,a7,e38 <memcpy+0x50>
     e40:	0005c783          	lbu	a5,0(a1)
     e44:	0705                	addi	a4,a4,1
     e46:	0585                	addi	a1,a1,1
     e48:	fef70fa3          	sb	a5,-1(a4)
     e4c:	ff176ae3          	bltu	a4,a7,e40 <memcpy+0x58>
     e50:	8082                	ret
     e52:	0005c683          	lbu	a3,0(a1)
     e56:	0705                	addi	a4,a4,1
     e58:	00377793          	andi	a5,a4,3
     e5c:	fed70fa3          	sb	a3,-1(a4)
     e60:	0585                	addi	a1,a1,1
     e62:	d3c5                	beqz	a5,e02 <memcpy+0x1a>
     e64:	0005c683          	lbu	a3,0(a1)
     e68:	0705                	addi	a4,a4,1
     e6a:	00377793          	andi	a5,a4,3
     e6e:	fed70fa3          	sb	a3,-1(a4)
     e72:	0585                	addi	a1,a1,1
     e74:	fff9                	bnez	a5,e52 <memcpy+0x6a>
     e76:	b771                	j	e02 <memcpy+0x1a>
     e78:	41d4                	lw	a3,4(a1)
     e7a:	0005a283          	lw	t0,0(a1)
     e7e:	0085af83          	lw	t6,8(a1)
     e82:	00c5af03          	lw	t5,12(a1)
     e86:	0105ae83          	lw	t4,16(a1)
     e8a:	0145ae03          	lw	t3,20(a1)
     e8e:	0185a303          	lw	t1,24(a1)
     e92:	01c5a803          	lw	a6,28(a1)
     e96:	c354                	sw	a3,4(a4)
     e98:	5194                	lw	a3,32(a1)
     e9a:	00572023          	sw	t0,0(a4)
     e9e:	01f72423          	sw	t6,8(a4)
     ea2:	01e72623          	sw	t5,12(a4)
     ea6:	01d72823          	sw	t4,16(a4)
     eaa:	01c72a23          	sw	t3,20(a4)
     eae:	00672c23          	sw	t1,24(a4)
     eb2:	01072e23          	sw	a6,28(a4)
     eb6:	d314                	sw	a3,32(a4)
     eb8:	02470713          	addi	a4,a4,36
     ebc:	02458593          	addi	a1,a1,36
     ec0:	faf76ce3          	bltu	a4,a5,e78 <memcpy+0x90>
     ec4:	b7a9                	j	e0e <memcpy+0x26>

00000ec6 <memset>:
     ec6:	433d                	li	t1,15
     ec8:	872a                	mv	a4,a0
     eca:	02c37363          	bgeu	t1,a2,ef0 <memset+0x2a>
     ece:	00f77793          	andi	a5,a4,15
     ed2:	efbd                	bnez	a5,f50 <memset+0x8a>
     ed4:	e5ad                	bnez	a1,f3e <memset+0x78>
     ed6:	ff067693          	andi	a3,a2,-16
     eda:	8a3d                	andi	a2,a2,15
     edc:	96ba                	add	a3,a3,a4
     ede:	c30c                	sw	a1,0(a4)
     ee0:	c34c                	sw	a1,4(a4)
     ee2:	c70c                	sw	a1,8(a4)
     ee4:	c74c                	sw	a1,12(a4)
     ee6:	0741                	addi	a4,a4,16
     ee8:	fed76be3          	bltu	a4,a3,ede <memset+0x18>
     eec:	e211                	bnez	a2,ef0 <memset+0x2a>
     eee:	8082                	ret
     ef0:	40c306b3          	sub	a3,t1,a2
     ef4:	068a                	slli	a3,a3,0x2
     ef6:	00000297          	auipc	t0,0x0
     efa:	9696                	add	a3,a3,t0
     efc:	00a68067          	jr	10(a3)
     f00:	00b70723          	sb	a1,14(a4)
     f04:	00b706a3          	sb	a1,13(a4)
     f08:	00b70623          	sb	a1,12(a4)
     f0c:	00b705a3          	sb	a1,11(a4)
     f10:	00b70523          	sb	a1,10(a4)
     f14:	00b704a3          	sb	a1,9(a4)
     f18:	00b70423          	sb	a1,8(a4)
     f1c:	00b703a3          	sb	a1,7(a4)
     f20:	00b70323          	sb	a1,6(a4)
     f24:	00b702a3          	sb	a1,5(a4)
     f28:	00b70223          	sb	a1,4(a4)
     f2c:	00b701a3          	sb	a1,3(a4)
     f30:	00b70123          	sb	a1,2(a4)
     f34:	00b700a3          	sb	a1,1(a4)
     f38:	00b70023          	sb	a1,0(a4)
     f3c:	8082                	ret
     f3e:	0ff5f593          	andi	a1,a1,255
     f42:	00859693          	slli	a3,a1,0x8
     f46:	8dd5                	or	a1,a1,a3
     f48:	01059693          	slli	a3,a1,0x10
     f4c:	8dd5                	or	a1,a1,a3
     f4e:	b761                	j	ed6 <memset+0x10>
     f50:	00279693          	slli	a3,a5,0x2
     f54:	00000297          	auipc	t0,0x0
     f58:	9696                	add	a3,a3,t0
     f5a:	8286                	mv	t0,ra
     f5c:	fa8680e7          	jalr	-88(a3)
     f60:	8096                	mv	ra,t0
     f62:	17c1                	addi	a5,a5,-16
     f64:	8f1d                	sub	a4,a4,a5
     f66:	963e                	add	a2,a2,a5
     f68:	f8c374e3          	bgeu	t1,a2,ef0 <memset+0x2a>
     f6c:	b7a5                	j	ed4 <memset+0xe>

00000f6e <main>:

int main(){
     f6e:	bd010113          	addi	sp,sp,-1072
    int* keys;
    int N = 53;
    int p = 3;
    int q = 101;

    int message[48] = {1, 1, 2, 1, 1, 1, 1, 2,1, 1, 0, 1, 1, 2, 1, 0,1, 2, 0, 1, 1, 1, 1, 0,1, 1, 0, 2, 1, 2, 1, 0, 1, 1, 2, 1, 1, 1, 1, 2, 1, 1, 2, 1, 1, 1, 1, 2};
     f72:	0c000613          	li	a2,192
     f76:	00000597          	auipc	a1,0x0
     f7a:	20258593          	addi	a1,a1,514 # 1178 <_endtext+0xc0>
     f7e:	0068                	addi	a0,sp,12
int main(){
     f80:	42112623          	sw	ra,1068(sp)
     f84:	42812423          	sw	s0,1064(sp)
     f88:	42912223          	sw	s1,1060(sp)
     f8c:	43212023          	sw	s2,1056(sp)

    // Alice generates public key from her randomly created secret keys.
  //  printf("\nKEY GENERATION STARTED \n");

 //   start = clock();
    resultkon[0] = 0xaaaaaaa0;
     f90:	aaaab4b7          	lui	s1,0xaaaab
    int message[48] = {1, 1, 2, 1, 1, 1, 1, 2,1, 1, 0, 1, 1, 2, 1, 0,1, 2, 0, 1, 1, 1, 1, 0,1, 1, 0, 2, 1, 2, 1, 0, 1, 1, 2, 1, 1, 1, 1, 2, 1, 1, 2, 1, 1, 1, 1, 2};
     f94:	3d91                	jal	de8 <memcpy>
    resultkon[0] = 0xaaaaaaa0;
     f96:	aa048793          	addi	a5,s1,-1376 # aaaaaaa0 <_stack_start+0xaaa9aaa0>
     f9a:	00000417          	auipc	s0,0x0
     f9e:	29e40413          	addi	s0,s0,670 # 1238 <_edata>
    keys = generate_keys(N, p, q);
     fa2:	06500613          	li	a2,101
     fa6:	458d                	li	a1,3
     fa8:	03500513          	li	a0,53
    resultkon[0] = 0xaaaaaaa0;
     fac:	c01c                	sw	a5,0(s0)
    resultkon[0] = 0xaaaaaaa1;
     fae:	aa148493          	addi	s1,s1,-1375
    keys = generate_keys(N, p, q);
     fb2:	32bd                	jal	920 <generate_keys>
    resultkon[0] = 0xaaaaaaa1;
     fb4:	4781                	li	a5,0
     fb6:	c004                	sw	s1,0(s0)
   // printf("Secret Key f = ");
    for(i = 0; i < N; ++i){
     fb8:	0d400713          	li	a4,212
  //      printf(" %d ", keys[i]);
        secret_key_f[i] = keys[i];
     fbc:	00f506b3          	add	a3,a0,a5
     fc0:	4290                	lw	a2,0(a3)
     fc2:	1314                	addi	a3,sp,416
     fc4:	96be                	add	a3,a3,a5
     fc6:	c290                	sw	a2,0(a3)
    for(i = 0; i < N; ++i){
     fc8:	0791                	addi	a5,a5,4
     fca:	fee799e3          	bne	a5,a4,fbc <main+0x4e>
    }
  //  printf("\n");

 //   printf("Secret Key g = ");
    for(i = N; i < (2*N); ++i){
     fce:	1cd8                	addi	a4,sp,628
     fd0:	1a850793          	addi	a5,a0,424
     fd4:	27c50693          	addi	a3,a0,636
     fd8:	893a                	mv	s2,a4
  //  printf("\n");

  //  printf("Secret Key fp = ");
    for(i = (2*N); i < (3*N); ++i){
  //      printf(" %d ", keys[i]);
        secret_key_fp[i-(2*N)] = keys[i];
     fda:	4390                	lw	a2,0(a5)
     fdc:	0791                	addi	a5,a5,4
     fde:	0711                	addi	a4,a4,4
     fe0:	fec72e23          	sw	a2,-4(a4)
    for(i = (2*N); i < (3*N); ++i){
     fe4:	fed79be3          	bne	a5,a3,fda <main+0x6c>
    }
  //  printf("\n");

 //   printf("Secret Key fq = ");
    for(i = (3*N); i < (4*N); ++i){
     fe8:	01f8                	addi	a4,sp,204
     fea:	35050793          	addi	a5,a0,848
     fee:	42450613          	addi	a2,a0,1060
     ff2:	86ba                	mv	a3,a4
 //   printf("\n");

//    printf("Public Key h = ");
    for(i = (4*N); i < (5*N); ++i){
//        printf(" %d ", keys[i]);
        public_key[i-(4*N)] = keys[i];
     ff4:	438c                	lw	a1,0(a5)
     ff6:	0791                	addi	a5,a5,4
     ff8:	0711                	addi	a4,a4,4
     ffa:	feb72e23          	sw	a1,-4(a4)
    for(i = (4*N); i < (5*N); ++i){
     ffe:	fec79be3          	bne	a5,a2,ff4 <main+0x86>
    1002:	06b0                	addi	a2,sp,840
    1004:	4fc50513          	addi	a0,a0,1276
    1008:	8832                	mv	a6,a2
 //   printf("\n");

 //   printf("Ring Poly = ");
    for(i = (5*N); i < (6*N+1); ++i){
  //      printf(" %d ", keys[i]);
        ring_poly[i-(5*N)] = keys[i];
    100a:	4398                	lw	a4,0(a5)
    100c:	0791                	addi	a5,a5,4
    100e:	0611                	addi	a2,a2,4
    1010:	fee62e23          	sw	a4,-4(a2)
    for(i = (5*N); i < (6*N+1); ++i){
    1014:	fea79be3          	bne	a5,a0,100a <main+0x9c>
    }
 //   printf("\nKEY GENERATION FINISHED \n");

    // Bob encrypts message using Alice's public key and sends it to Alice.
  //  printf("\nENCRYPTION STARTED\n");
    resultkon[0] = 0xbbbbbbb0;
    1018:	bbbbc4b7          	lui	s1,0xbbbbc
    101c:	bb048793          	addi	a5,s1,-1104 # bbbbbbb0 <_stack_start+0xbbbabbb0>
    Enc_Message = ntru_encyrpt(N, q, message, public_key, ring_poly);
    1020:	8742                	mv	a4,a6
    1022:	0070                	addi	a2,sp,12
    1024:	06500593          	li	a1,101
    resultkon[0] = 0xbbbbbbb1;
    1028:	bb148493          	addi	s1,s1,-1103
    Enc_Message = ntru_encyrpt(N, q, message, public_key, ring_poly);
    102c:	03500513          	li	a0,53
    resultkon[0] = 0xbbbbbbb0;
    1030:	c01c                	sw	a5,0(s0)
    Enc_Message = ntru_encyrpt(N, q, message, public_key, ring_poly);
    1032:	36cd                	jal	c14 <ntru_encyrpt>
    resultkon[0] = 0xbbbbbbb1;
    1034:	c004                	sw	s1,0(s0)
 //   }
//    printf("\nENCRYPTION FINISHED\n");

    // Alice decrypts the message using her secret keys.
 //   printf("\nDECRYPTION STARTED\n");
    resultkon[0] = 0xccccccc0;
    1036:	ccccd4b7          	lui	s1,0xccccd
    103a:	cc048713          	addi	a4,s1,-832 # ccccccc0 <_stack_start+0xcccbccc0>
    Enc_Message = ntru_encyrpt(N, q, message, public_key, ring_poly);
    103e:	87aa                	mv	a5,a0
    resultkon[0] = 0xccccccc0;
    1040:	c018                	sw	a4,0(s0)
    Dec_Message = ntru_deceypt(N, p, q, secret_key_f, secret_key_fp, Enc_Message, ring_poly);
    1042:	458d                	li	a1,3
    1044:	874a                	mv	a4,s2
    1046:	34810813          	addi	a6,sp,840
    104a:	1314                	addi	a3,sp,416
    104c:	06500613          	li	a2,101
    1050:	03500513          	li	a0,53
    1054:	3999                	jal	caa <ntru_deceypt>
    resultkon[0] = 0xccccccc1;	
    1056:	cc148493          	addi	s1,s1,-831
            resultkon[0] = 0xBABABABA;
 	   
            break;	}
        else{
  //          printf("*OPERATION SUCCCESSFUL*\n");
            resultkon[0] = 0xDEDEDEDE;
    105a:	dedee737          	lui	a4,0xdedee
    resultkon[0] = 0xccccccc1;	
    105e:	c004                	sw	s1,0(s0)
    1060:	4781                	li	a5,0
            resultkon[0] = 0xDEDEDEDE;
    1062:	ede70713          	addi	a4,a4,-290 # dededede <_stack_start+0xdedddede>
    for(i = 0; i < 32; ++i){
    1066:	08000593          	li	a1,128
        if(!(message[i] == Dec_Message[i])){
    106a:	0070                	addi	a2,sp,12
    106c:	00f506b3          	add	a3,a0,a5
    1070:	963e                	add	a2,a2,a5
    1072:	4210                	lw	a2,0(a2)
    1074:	4294                	lw	a3,0(a3)
    1076:	02d60363          	beq	a2,a3,109c <main+0x12e>
            resultkon[0] = 0xBABABABA;
    107a:	babac7b7          	lui	a5,0xbabac
    107e:	aba78793          	addi	a5,a5,-1350 # babababa <_stack_start+0xbab9baba>
    1082:	c01c                	sw	a5,0(s0)
		}
    }
			

    return 0;
}
    1084:	42c12083          	lw	ra,1068(sp)
    1088:	42812403          	lw	s0,1064(sp)
    108c:	42412483          	lw	s1,1060(sp)
    1090:	42012903          	lw	s2,1056(sp)
    1094:	4501                	li	a0,0
    1096:	43010113          	addi	sp,sp,1072
    109a:	8082                	ret
            resultkon[0] = 0xDEDEDEDE;
    109c:	c018                	sw	a4,0(s0)
    for(i = 0; i < 32; ++i){
    109e:	0791                	addi	a5,a5,4
    10a0:	fcb795e3          	bne	a5,a1,106a <main+0xfc>
    10a4:	b7c5                	j	1084 <main+0x116>

000010a6 <__CTOR_LIST__>:
	...

000010ae <__CTOR_END__>:
	...

000010b6 <__DTOR_END__>:
	...

Disassembly of section .rodata:

000010b8 <.rodata>:
    10b8:	0001                	nop
    10ba:	0000                	unimp
    10bc:	ffff                	0xffff
    10be:	ffff                	0xffff
    10c0:	0000                	unimp
    10c2:	0000                	unimp
    10c4:	0001                	nop
    10c6:	0000                	unimp
    10c8:	ffff                	0xffff
    10ca:	ffff                	0xffff
    10cc:	0001                	nop
    10ce:	0000                	unimp
    10d0:	ffff                	0xffff
    10d2:	ffff                	0xffff
    10d4:	0000                	unimp
    10d6:	0000                	unimp
    10d8:	0001                	nop
    10da:	0000                	unimp
    10dc:	0001                	nop
    10de:	0000                	unimp
    10e0:	0000                	unimp
    10e2:	0000                	unimp
    10e4:	ffff                	0xffff
    10e6:	ffff                	0xffff
    10e8:	0001                	nop
    10ea:	0000                	unimp
    10ec:	ffff                	0xffff
    10ee:	ffff                	0xffff
    10f0:	0001                	nop
    10f2:	0000                	unimp
    10f4:	0000                	unimp
    10f6:	0000                	unimp
    10f8:	0001                	nop
    10fa:	0000                	unimp
    10fc:	0001                	nop
    10fe:	0000                	unimp
    1100:	0000                	unimp
    1102:	0000                	unimp
    1104:	ffff                	0xffff
    1106:	ffff                	0xffff
    1108:	0001                	nop
    110a:	0000                	unimp
    110c:	ffff                	0xffff
    110e:	ffff                	0xffff
    1110:	0001                	nop
    1112:	0000                	unimp
    1114:	0000                	unimp
    1116:	0000                	unimp
    1118:	0001                	nop
    111a:	0000                	unimp
    111c:	0001                	nop
    111e:	0000                	unimp
    1120:	0000                	unimp
    1122:	0000                	unimp
    1124:	0001                	nop
    1126:	0000                	unimp
    1128:	ffff                	0xffff
    112a:	ffff                	0xffff
    112c:	0001                	nop
    112e:	0000                	unimp
    1130:	ffff                	0xffff
    1132:	ffff                	0xffff
    1134:	0000                	unimp
    1136:	0000                	unimp
    1138:	0001                	nop
    113a:	0000                	unimp
    113c:	ffff                	0xffff
    113e:	ffff                	0xffff
    1140:	0000                	unimp
    1142:	0000                	unimp
    1144:	0001                	nop
    1146:	0000                	unimp
    1148:	ffff                	0xffff
    114a:	ffff                	0xffff
    114c:	0001                	nop
    114e:	0000                	unimp
    1150:	ffff                	0xffff
    1152:	ffff                	0xffff
    1154:	0000                	unimp
    1156:	0000                	unimp
    1158:	0001                	nop
    115a:	0000                	unimp
    115c:	0001                	nop
    115e:	0000                	unimp
    1160:	0000                	unimp
    1162:	0000                	unimp
    1164:	ffff                	0xffff
    1166:	ffff                	0xffff
    1168:	0001                	nop
    116a:	0000                	unimp
    116c:	ffff                	0xffff
    116e:	ffff                	0xffff
    1170:	0001                	nop
    1172:	0000                	unimp
    1174:	0000                	unimp
    1176:	0000                	unimp
    1178:	0001                	nop
    117a:	0000                	unimp
    117c:	0001                	nop
    117e:	0000                	unimp
    1180:	0002                	c.slli64	zero
    1182:	0000                	unimp
    1184:	0001                	nop
    1186:	0000                	unimp
    1188:	0001                	nop
    118a:	0000                	unimp
    118c:	0001                	nop
    118e:	0000                	unimp
    1190:	0001                	nop
    1192:	0000                	unimp
    1194:	0002                	c.slli64	zero
    1196:	0000                	unimp
    1198:	0001                	nop
    119a:	0000                	unimp
    119c:	0001                	nop
    119e:	0000                	unimp
    11a0:	0000                	unimp
    11a2:	0000                	unimp
    11a4:	0001                	nop
    11a6:	0000                	unimp
    11a8:	0001                	nop
    11aa:	0000                	unimp
    11ac:	0002                	c.slli64	zero
    11ae:	0000                	unimp
    11b0:	0001                	nop
    11b2:	0000                	unimp
    11b4:	0000                	unimp
    11b6:	0000                	unimp
    11b8:	0001                	nop
    11ba:	0000                	unimp
    11bc:	0002                	c.slli64	zero
    11be:	0000                	unimp
    11c0:	0000                	unimp
    11c2:	0000                	unimp
    11c4:	0001                	nop
    11c6:	0000                	unimp
    11c8:	0001                	nop
    11ca:	0000                	unimp
    11cc:	0001                	nop
    11ce:	0000                	unimp
    11d0:	0001                	nop
    11d2:	0000                	unimp
    11d4:	0000                	unimp
    11d6:	0000                	unimp
    11d8:	0001                	nop
    11da:	0000                	unimp
    11dc:	0001                	nop
    11de:	0000                	unimp
    11e0:	0000                	unimp
    11e2:	0000                	unimp
    11e4:	0002                	c.slli64	zero
    11e6:	0000                	unimp
    11e8:	0001                	nop
    11ea:	0000                	unimp
    11ec:	0002                	c.slli64	zero
    11ee:	0000                	unimp
    11f0:	0001                	nop
    11f2:	0000                	unimp
    11f4:	0000                	unimp
    11f6:	0000                	unimp
    11f8:	0001                	nop
    11fa:	0000                	unimp
    11fc:	0001                	nop
    11fe:	0000                	unimp
    1200:	0002                	c.slli64	zero
    1202:	0000                	unimp
    1204:	0001                	nop
    1206:	0000                	unimp
    1208:	0001                	nop
    120a:	0000                	unimp
    120c:	0001                	nop
    120e:	0000                	unimp
    1210:	0001                	nop
    1212:	0000                	unimp
    1214:	0002                	c.slli64	zero
    1216:	0000                	unimp
    1218:	0001                	nop
    121a:	0000                	unimp
    121c:	0001                	nop
    121e:	0000                	unimp
    1220:	0002                	c.slli64	zero
    1222:	0000                	unimp
    1224:	0001                	nop
    1226:	0000                	unimp
    1228:	0001                	nop
    122a:	0000                	unimp
    122c:	0001                	nop
    122e:	0000                	unimp
    1230:	0001                	nop
    1232:	0000                	unimp
    1234:	0002                	c.slli64	zero
	...

Disassembly of section .sdata:

00001238 <resultkon>:
volatile int resultkon[1]={0XBEBEBEBE};
    1238:	bebe                	fsd	fa5,376(sp)
    123a:	bebe                	fsd	fa5,376(sp)

Disassembly of section .bss:

0000123c <_bss_start>:
	...

00001494 <product2>:
	...

000016ec <result>:
	...

00001944 <ti_2>:
	...

00001ad4 <random_keys>:
	...

Disassembly of section .stack:

0000c000 <_stack-0x2000>:
	...

Disassembly of section .debug_info:

00000000 <.debug_info>:
  .endr
       0:	1a94                	addi	a3,sp,368
       2:	0000                	unimp
       4:	0004                	0x4
       6:	0000                	unimp
       8:	0000                	unimp
       a:	0104                	addi	s1,sp,128
       c:	05b5                	addi	a1,a1,13
       e:	0000                	unimp
      10:	300c                	fld	fa1,32(s0)
      12:	64000003          	lb	zero,1600(zero) # 640 <polydiv+0x244>
      16:	0005                	c.nop	1
      18:	1800                	addi	s0,sp,48
	...
      22:	0000                	unimp
      24:	0200                	addi	s0,sp,256
      26:	0601                	addi	a2,a2,0
      28:	041c                	addi	a5,sp,512
      2a:	0000                	unimp
      2c:	0102                	c.slli64	sp
      2e:	1a08                	addi	a0,sp,304
      30:	0004                	0x4
      32:	0200                	addi	s0,sp,256
      34:	0502                	c.slli64	a0
      36:	0000043b          	0x43b
      3a:	0202                	c.slli64	tp
      3c:	0002c107          	flq	ft2,0(t0) # f54 <memset+0x8e>
      40:	0200                	addi	s0,sp,256
      42:	0504                	addi	s1,sp,640
      44:	000000f3          	0xf3
      48:	0402                	c.slli64	s0
      4a:	00007007          	0x7007
      4e:	0200                	addi	s0,sp,256
      50:	0508                	addi	a0,sp,640
      52:	00ee                	slli	ra,ra,0x1b
      54:	0000                	unimp
      56:	0802                	c.slli64	a6
      58:	00006b07          	0x6b07
      5c:	0300                	addi	s0,sp,384
      5e:	0504                	addi	s1,sp,640
      60:	6e69                	lui	t3,0x1a
      62:	0074                	addi	a3,sp,12
      64:	5d04                	lw	s1,56(a0)
      66:	0000                	unimp
      68:	0200                	addi	s0,sp,256
      6a:	0704                	addi	s1,sp,896
      6c:	0075                	c.nop	29
      6e:	0000                	unimp
      70:	1002                	c.slli	zero,0x20
      72:	7d04                	flw	fs1,56(a0)
      74:	05000003          	lb	zero,80(zero) # 50 <__DYNAMIC+0x50>
      78:	0304                	addi	s1,sp,384
      7a:	0000                	unimp
  jal x0, default_exc_handler
      7c:	5e02                	lw	t3,32(sp)
      7e:	1701                	addi	a4,a4,-32
  jal x0, reset_handler
      80:	0069                	c.nop	26
      82:	0000                	unimp
  jal x0, default_exc_handler
      84:	ce06                	sw	ra,28(sp)
      86:	03000003          	lb	zero,48(zero) # 30 <__DYNAMIC+0x30>
  jal x0, default_exc_handler
      8a:	0e2e                	slli	t3,t3,0xb
    asm volatile(
      8c:	0041                	c.nop	16
      8e:	0000                	unimp
}
      90:	0e06                	slli	t3,t3,0x1
    for(i=0;i<(length/3);i++) {
      92:	0005                	c.nop	1
      94:	0300                	addi	s0,sp,384
      96:	0e74                	addi	a3,sp,796
    asm volatile(
      98:	0041                	c.nop	16
    for(i=0;i<(length/3);i++) {
      9a:	0000                	unimp
      9c:	4b06                	lw	s6,64(sp)
      9e:	0006                	c.slli	zero,0x1
}
      a0:	0300                	addi	s0,sp,384
    asm volatile(
      a2:	005d1793          	slli	a5,s10,0x5
      a6:	0000                	unimp
      a8:	a5030407          	0xa5030407
    for(i=0;i<(length/3);i++) {
      ac:	0000ca03          	lbu	s4,0(ra)
int *polymult(int *a, int size_a, int *b, int size_b, int mod, int star_mult){
      b0:	0800                	addi	s0,sp,16
      b2:	02fe                	slli	t0,t0,0x1f
      b4:	0000                	unimp
      b6:	770ca703          	lw	a4,1904(s9)
      ba:	0000                	unimp
    int line[size_b][size_a + size_b];
      bc:	0800                	addi	s0,sp,16
      be:	0225                	addi	tp,tp,9
int *polymult(int *a, int size_a, int *b, int size_b, int mod, int star_mult){
      c0:	0000                	unimp
      c2:	ca13a803          	lw	a6,-863(t2)
    int line[size_b][size_a + size_b];
      c6:	0000                	unimp
      c8:	0000                	unimp
      ca:	2c09                	jal	2dc <polymult2+0x50>
      cc:	0000                	unimp
      ce:	da00                	sw	s0,48(a2)
int *polymult(int *a, int size_a, int *b, int size_b, int mod, int star_mult){
      d0:	0000                	unimp
      d2:	0a00                	addi	s0,sp,272
      d4:	0069                	c.nop	26
      d6:	0000                	unimp
      d8:	080b0003          	lb	zero,128(s6)
      dc:	fe09a203          	lw	tp,-32(s3)
      e0:	0000                	unimp
    int line[size_b][size_a + size_b];
      e2:	0c00                	addi	s0,sp,528
int *polymult(int *a, int size_a, int *b, int size_b, int mod, int star_mult){
      e4:	04f8                	addi	a4,sp,588
    int line[size_b][size_a + size_b];
      e6:	0000                	unimp
      e8:	5d07a403          	lw	s0,1488(a5)
    int pola[size_a];
      ec:	0000                	unimp
      ee:	0000                	unimp
      f0:	000c                	0xc
int *polymult(int *a, int size_a, int *b, int size_b, int mod, int star_mult){
      f2:	0005                	c.nop	1
    int line[size_b][size_a + size_b];
      f4:	0300                	addi	s0,sp,384
      f6:	05a9                	addi	a1,a1,10
    int pola[size_a];
      f8:	00a8                	addi	a0,sp,72
    int polb[size_b];
      fa:	0000                	unimp
      fc:	0004                	0x4
    int line[size_b][size_a + size_b];
      fe:	6b06                	flw	fs6,64(sp)
    int polb[size_b];
     100:	0004                	0x4
    int pola[size_a];
     102:	0300                	addi	s0,sp,384
     104:	03aa                	slli	t2,t2,0xa
int *polymult(int *a, int size_a, int *b, int size_b, int mod, int star_mult){
     106:	00da                	slli	ra,ra,0x16
     108:	0000                	unimp
    int pola[size_a];
     10a:	040d                	addi	s0,s0,3
            line[i][j] = 0;
     10c:	8806                	mv	a6,ra
     10e:	0005                	c.nop	1
    int polb[size_b];
     110:	0400                	addi	s0,sp,512
     112:	1916                	slli	s2,s2,0x25
int *polymult(int *a, int size_a, int *b, int size_b, int mod, int star_mult){
     114:	0048                	addi	a0,sp,4
    int pola[size_a];
     116:	0000                	unimp
     118:	fe06                	fsw	ft1,60(sp)
    int polb[size_b];
     11a:	05000003          	lb	zero,80(zero) # 50 <__DYNAMIC+0x50>
            line[i][j] = 0;
     11e:	0d0c                	addi	a1,sp,656
     120:	005d                	c.nop	23
    for (i = 0; i < size_b; ++i){
     122:	0000                	unimp
     124:	dd06                	sw	ra,184(sp)
            product[j] = 0;
     126:	0001                	nop
     128:	0400                	addi	s0,sp,512
     12a:	01181b23          	sh	a7,22(a6)
    for (i = 0; i < size_b; ++i){
     12e:	0000                	unimp
     130:	ee0e                	fsw	ft3,28(sp)
    for (i = 0; i < size_a; ++i){
     132:	0001                	nop
     134:	1800                	addi	s0,sp,48
     136:	3404                	fld	fs1,40(s0)
	array_mod(pola,mod,size_a);
     138:	8a08                	0x8a08
     13a:	0001                	nop
     13c:	0c00                	addi	s0,sp,528
     13e:	048c                	addi	a1,sp,576
     140:	0000                	unimp
     142:	3604                	fld	fs1,40(a2)
    for (i = 0; i < size_b; ++i){
     144:	00018a13          	mv	s4,gp
     148:	0000                	unimp
     14a:	006b5f0f          	0x6b5f0f
	array_mod(polb,mod,size_b);
     14e:	3704                	fld	fs1,40(a4)
     150:	00005d07          	0x5d07
     154:	0400                	addi	s0,sp,512
    if(star_mult == 1){
     156:	d40c                	sw	a1,40(s0)
     158:	0004                	0x4
     15a:	0400                	addi	s0,sp,512
     15c:	005d0b37          	lui	s6,0x5d0
     160:	0000                	unimp
     162:	0c08                	addi	a0,sp,528
     164:	000001d7          	0x1d7
     168:	3704                	fld	fs1,40(a4)
        for (j = size_b -1; j >= 0; j = j-1){
     16a:	5d14                	lw	a3,56(a0)
     16c:	0000                	unimp
            for (k = size_a-1; k >= 0; k = k-1 ){
     16e:	0c00                	addi	s0,sp,528
     170:	290c                	fld	fa1,16(a0)
            product[j] = 0;
     172:	0006                	c.slli	zero,0x1
     174:	0400                	addi	s0,sp,512
     176:	005d1b37          	lui	s6,0x5d1
            line[i][j] = 0;
     17a:	0000                	unimp
            product[j] = 0;
     17c:	0f10                	addi	a2,sp,912
     17e:	785f 0400 0b38      	0xb380400785f
        for(j = 0; j < size_a + size_b -1; ++j){
     184:	0190                	addi	a2,sp,192
     186:	0000                	unimp
    for (i = 0; i < size_b; ++i){
     188:	0014                	0x14
     18a:	0410                	addi	a2,sp,512
     18c:	0130                	addi	a2,sp,136
     18e:	0000                	unimp
        for(j = 0; j < size_a + size_b -1; ++j){
     190:	0c09                	addi	s8,s8,2
     192:	0001                	nop
        pola[i] = a[i];
     194:	a000                	fsd	fs0,0(s0)
     196:	0001                	nop
     198:	0a00                	addi	s0,sp,272
     19a:	0069                	c.nop	26
     19c:	0000                	unimp
     19e:	0000                	unimp
    for (i = 0; i < size_a; ++i){
     1a0:	150e                	slli	a0,a0,0x23
        pola[i] = a[i];
     1a2:	0002                	c.slli64	zero
     1a4:	2400                	fld	fs0,8(s0)
    for (i = 0; i < size_a; ++i){
     1a6:	3c04                	fld	fs1,56(s0)
        polb[i] = b[i];
     1a8:	2308                	fld	fa0,0(a4)
     1aa:	0002                	c.slli64	zero
     1ac:	0c00                	addi	s0,sp,528
     1ae:	00e5                	addi	ra,ra,25
     1b0:	0000                	unimp
     1b2:	3e04                	fld	fs1,56(a2)
    for (i = 0; i < size_b; ++i){
     1b4:	5d09                	li	s10,-30
        polb[i] = b[i];
     1b6:	0000                	unimp
    for (i = 0; i < size_b; ++i){
     1b8:	0000                	unimp
    if(star_mult == 1){
     1ba:	1d0c                	addi	a1,sp,688
        for (j = size_b -1; j >= 0; j = j-1){
     1bc:	0005                	c.nop	1
     1be:	0400                	addi	s0,sp,512
            for (k = size_a-1; k >= 0; k = k-1 ){
     1c0:	005d093f 0c040000 	0xc040000005d093f
    for (i = 0; i < size_b; ++i){
     1c8:	0122                	slli	sp,sp,0x8
     1ca:	0000                	unimp
     1cc:	4004                	lw	s1,0(s0)
    for(j = 0; j < size_a + size_b -1; ++j){
     1ce:	5d09                	li	s10,-30
     1d0:	0000                	unimp
     1d2:	0800                	addi	s0,sp,16
    array_mod(product,mod,size_a+size_b-1);
     1d4:	c70c                	sw	a1,8(a4)
     1d6:	0006                	c.slli	zero,0x1
     1d8:	0400                	addi	s0,sp,512
     1da:	0941                	addi	s2,s2,16
     1dc:	005d                	c.nop	23
     1de:	0000                	unimp
     1e0:	0c0c                	addi	a1,sp,528
}
     1e2:	0398                	addi	a4,sp,448
     1e4:	0000                	unimp
     1e6:	4204                	lw	s1,0(a2)
     1e8:	5d09                	li	s10,-30
     1ea:	0000                	unimp
     1ec:	1000                	addi	s0,sp,32
     1ee:	5a0c                	lw	a1,48(a2)
     1f0:	04000003          	lb	zero,64(zero) # 40 <__DYNAMIC+0x40>
     1f4:	005d0943          	fmadd.s	fs2,fs10,ft5,ft0,rne
     1f8:	0000                	unimp
     1fa:	0c14                	addi	a3,sp,528
     1fc:	062e                	slli	a2,a2,0xb
     1fe:	0000                	unimp
     200:	4404                	lw	s1,8(s0)
     202:	5d09                	li	s10,-30
     204:	0000                	unimp
     206:	1800                	addi	s0,sp,48
     208:	450c                	lw	a1,8(a0)
     20a:	0004                	0x4
                line[size_b-1-j][k] = pola[k]*polb[j];
     20c:	0400                	addi	s0,sp,512
     20e:	0945                	addi	s2,s2,17
     210:	005d                	c.nop	23
     212:	0000                	unimp
     214:	0c1c                	addi	a5,sp,528
     216:	0689                	addi	a3,a3,2
     218:	0000                	unimp
     21a:	4604                	lw	s1,8(a2)
            for (k = size_a-1; k >= 0; k = k-1 ){
     21c:	5d09                	li	s10,-30
                line[size_b-1-j][k] = pola[k]*polb[j];
     21e:	0000                	unimp
     220:	2000                	fld	fs0,0(s0)
     222:	1100                	addi	s0,sp,160
            for (k = size_a-1; k >= 0; k = k-1 ){
     224:	0131                	addi	sp,sp,12
     226:	0000                	unimp
        for (j = size_b -1; j >= 0; j = j-1){
     228:	0108                	addi	a0,sp,128
     22a:	4f04                	lw	s1,24(a4)
     22c:	6808                	flw	fa0,16(s0)
     22e:	0002                	c.slli64	zero
            for (k = size_a-1; k >= 0; k = k-1 ){
     230:	0c00                	addi	s0,sp,528
     232:	01bd                	addi	gp,gp,15
                line[size_b-1-j][k + j] = pola[k]*polb[j];
     234:	0000                	unimp
     236:	5004                	lw	s1,32(s0)
     238:	680a                	flw	fa6,128(sp)
     23a:	0002                	c.slli64	zero
     23c:	0000                	unimp
     23e:	000c                	0xc
     240:	0000                	unimp
     242:	0400                	addi	s0,sp,512
            for (k = size_a-1; k >= 0; k = k-1 ){
     244:	0951                	addi	s2,s2,20
                line[size_b-1-j][k + j] = pola[k]*polb[j];
     246:	0268                	addi	a0,sp,268
     248:	0000                	unimp
     24a:	1280                	addi	s0,sp,352
            for (k = size_a-1; k >= 0; k = k-1 ){
     24c:	0548                	addi	a0,sp,644
     24e:	0000                	unimp
        for (j = size_b -1; j >= 0; j = j-1){
     250:	5304                	lw	s1,32(a4)
     252:	0c0a                	slli	s8,s8,0x2
     254:	0001                	nop
     256:	0000                	unimp
        array_mod(line[i],mod,(size_a+size_b-1));
     258:	1201                	addi	tp,tp,-32
     25a:	0160                	addi	s0,sp,140
     25c:	0000                	unimp
     25e:	5604                	lw	s1,40(a2)
    for (i = 0; i < size_b; ++i){
     260:	0c0a                	slli	s8,s8,0x2
     262:	0001                	nop
     264:	0400                	addi	s0,sp,512
            product[j] += line[i][j];
     266:	0001                	nop
     268:	0a09                	addi	s4,s4,2
     26a:	0001                	nop
     26c:	7800                	flw	fs0,48(s0)
     26e:	0002                	c.slli64	zero
        for(i = 0; i < size_b; ++i){
     270:	0a00                	addi	s0,sp,272
            product[j] += line[i][j];
     272:	0069                	c.nop	26
     274:	0000                	unimp
     276:	001f b111 0003      	0x3b111001f
     27c:	9000                	0x9000
        for(i = 0; i < size_b; ++i){
     27e:	0401                	addi	s0,s0,0
     280:	0862                	slli	a6,a6,0x18
    for(j = 0; j < size_a + size_b -1; ++j){
     282:	000002bb          	0x2bb
     286:	8c0c                	0x8c0c
        for(i = 0; i < size_b; ++i){
     288:	0004                	0x4
     28a:	0400                	addi	s0,sp,512
    int line[size_b][size_a + size_b];
     28c:	02bb1263          	bne	s6,a1,2b0 <polymult2+0x24>
     290:	0000                	unimp
     292:	0c00                	addi	s0,sp,528
     294:	04a4                	addi	s1,sp,584
     296:	0000                	unimp
     298:	6404                	flw	fs1,8(s0)
     29a:	5d06                	lw	s10,96(sp)
     29c:	0000                	unimp
     29e:	0400                	addi	s0,sp,512
int *polymult2(int *a, int size_a, int *b, int size_b, int star_mult){
     2a0:	d20c                	sw	a1,32(a2)
     2a2:	0001                	nop
     2a4:	0400                	addi	s0,sp,512
     2a6:	0966                	slli	s2,s2,0x19
     2a8:	02c1                	addi	t0,t0,16
     2aa:	0000                	unimp
     2ac:	0c08                	addi	a0,sp,528
     2ae:	0131                	addi	sp,sp,12
     2b0:	0000                	unimp
    int line[size_b][size_a + size_b];
     2b2:	6704                	flw	fs1,8(a4)
     2b4:	231e                	fld	ft6,448(sp)
     2b6:	0002                	c.slli64	zero
     2b8:	8800                	0x8800
    int pola[size_a];
     2ba:	1000                	addi	s0,sp,32
     2bc:	7804                	flw	fs1,48(s0)
     2be:	0002                	c.slli64	zero
     2c0:	0900                	addi	s0,sp,144
    int line[size_b][size_a + size_b];
     2c2:	02d1                	addi	t0,t0,20
    int pola[size_a];
     2c4:	0000                	unimp
     2c6:	02d1                	addi	t0,t0,20
    int polb[size_b];
     2c8:	0000                	unimp
     2ca:	690a                	flw	fs2,128(sp)
     2cc:	0000                	unimp
    int pola[size_a];
     2ce:	1f00                	addi	s0,sp,944
    int polb[size_b];
     2d0:	1000                	addi	s0,sp,32
     2d2:	d704                	sw	s1,40(a4)
    int line[size_b][size_a + size_b];
     2d4:	0002                	c.slli64	zero
     2d6:	1300                	addi	s0,sp,416
    int pola[size_a];
     2d8:	4f0e                	lw	t5,192(sp)
     2da:	0004                	0x4
    int polb[size_b];
     2dc:	0800                	addi	s0,sp,16
            line[i][j] = 0;
     2de:	7a04                	flw	fs1,48(a2)
     2e0:	0008                	0x8
     2e2:	0c000003          	lb	zero,192(zero) # c0 <polymult+0x10>
    for (i = 0; i < size_b; ++i){
     2e6:	011c                	addi	a5,sp,128
            product2[j] = 0;
     2e8:	0000                	unimp
     2ea:	7b04                	flw	fs1,48(a4)
     2ec:	0011                	c.nop	4
     2ee:	00000003          	lb	zero,0(zero) # 0 <__DYNAMIC>
    for (i = 0; i < size_b; ++i){
     2f2:	110c                	addi	a1,sp,160
    for(i = 0; i < size_a; ++i){
     2f4:	0000                	unimp
     2f6:	0400                	addi	s0,sp,512
     2f8:	067c                	addi	a5,sp,780
    for(i = 0; i < size_b; ++i){
     2fa:	005d                	c.nop	23
     2fc:	0000                	unimp
     2fe:	0004                	0x4
    if(star_mult == 1){
     300:	0410                	addi	a2,sp,512
     302:	002c                	addi	a1,sp,8
     304:	0000                	unimp
     306:	760e                	flw	fa2,224(sp)
     308:	0004                	0x4
     30a:	6800                	flw	fs0,16(s0)
     30c:	ba04                	fsd	fs1,48(a2)
        for (j = size_b -1; j >= 0; j = j-1){
     30e:	4908                	lw	a0,16(a0)
     310:	0004                	0x4
            for (k = size_a-1; k >= 0; k = k-1 ){
     312:	0f00                	addi	s0,sp,912
     314:	705f 0400 12bb      	0x12bb0400705f
            product2[j] = 0;
     31a:	0300                	addi	s0,sp,384
            line[i][j] = 0;
     31c:	0000                	unimp
     31e:	0f00                	addi	s0,sp,912
            product2[j] = 0;
     320:	725f 0400 07bc      	0x7bc0400725f
        for(j = 0; j < size_a + size_b -1; ++j){
     326:	005d                	c.nop	23
     328:	0000                	unimp
     32a:	0f04                	addi	s1,sp,912
    for (i = 0; i < size_b; ++i){
     32c:	775f 0400 07bd      	0x7bd0400775f
     332:	005d                	c.nop	23
        for(j = 0; j < size_a + size_b -1; ++j){
     334:	0000                	unimp
     336:	0c08                	addi	a0,sp,528
        pola[i] = a[i];
     338:	0159                	addi	sp,sp,22
     33a:	0000                	unimp
     33c:	be04                	fsd	fs1,56(a2)
     33e:	3309                	jal	40 <__DYNAMIC+0x40>
     340:	0000                	unimp
     342:	0c00                	addi	s0,sp,528
    for(i = 0; i < size_a; ++i){
     344:	540c                	lw	a1,40(s0)
        pola[i] = a[i];
     346:	0002                	c.slli64	zero
     348:	0400                	addi	s0,sp,512
    for(i = 0; i < size_a; ++i){
     34a:	003309bf 0f0e0000 	0xf0e0000003309bf
        polb[i] = b[i];
     352:	625f 0066 c004      	0xc0040066625f
    for(i = 0; i < size_b; ++i){
     358:	d811                	beqz	s0,26c <polymult+0x1bc>
        polb[i] = b[i];
     35a:	0002                	c.slli64	zero
     35c:	1000                	addi	s0,sp,32
    for(i = 0; i < size_b; ++i){
     35e:	8e0c                	0x8e0c
                line[size_b-1-j][k] = pola[k]*polb[j];
     360:	0000                	unimp
     362:	0400                	addi	s0,sp,512
     364:	07c1                	addi	a5,a5,16
     366:	005d                	c.nop	23
     368:	0000                	unimp
     36a:	0c18                	addi	a4,sp,528
     36c:	0000013f 0a0ac804 	0xa0ac8040000013f
     374:	0001                	nop
     376:	1c00                	addi	s0,sp,560
            for (k = size_a-1; k >= 0; k = k-1 ){
     378:	050c                	addi	a1,sp,640
     37a:	0002                	c.slli64	zero
        for (j = size_b -1; j >= 0; j = j-1){
     37c:	0400                	addi	s0,sp,512
     37e:	1dca                	slli	s11,s11,0x32
     380:	05cd                	addi	a1,a1,19
     382:	0000                	unimp
     384:	0c20                	addi	s0,sp,536
     386:	00000353          	fadd.s	ft6,ft0,ft0,rne
     38a:	cc04                	sw	s1,24(s0)
     38c:	f71d                	bnez	a4,2ba <polymult2+0x2e>
        for(i = 0; i < size_b; ++i){
     38e:	0005                	c.nop	1
    for(j = 0; j < size_a + size_b -1; ++j){
     390:	2400                	fld	fs0,8(s0)
     392:	080c                	addi	a1,sp,16
}
     394:	0005                	c.nop	1
     396:	0400                	addi	s0,sp,512
     398:	061b0dcf          	fnmadd.q	fs11,fs6,ft1,ft0,rne
     39c:	0000                	unimp
     39e:	0c28                	addi	a0,sp,536
     3a0:	000006a3          	sb	zero,13(zero) # d <__DYNAMIC+0xd>
     3a4:	d004                	sw	s1,32(s0)
     3a6:	3509                	jal	1a8 <polymult+0xf8>
     3a8:	0006                	c.slli	zero,0x1
     3aa:	2c00                	fld	fs0,24(s0)
     3ac:	62755f0f          	0x62755f0f
     3b0:	0400                	addi	s0,sp,512
            for (k = size_a-1; k >= 0; k = k-1 ){
     3b2:	02d811d3          	fadd.d	ft3,fa6,fa3,rtz
                line[size_b-1-j][k + j] = pola[k]*polb[j];
     3b6:	0000                	unimp
     3b8:	0f30                	addi	a2,sp,920
     3ba:	755f 0070 d404      	0xd4040070755f
     3c0:	0012                	c.slli	zero,0x4
     3c2:	38000003          	lb	zero,896(zero) # 380 <polymult2+0xf4>
            for (k = size_a-1; k >= 0; k = k-1 ){
     3c6:	72755f0f          	0x72755f0f
                line[size_b-1-j][k + j] = pola[k]*polb[j];
     3ca:	0400                	addi	s0,sp,512
     3cc:	07d5                	addi	a5,a5,21
            for (k = size_a-1; k >= 0; k = k-1 ){
     3ce:	005d                	c.nop	23
     3d0:	0000                	unimp
        for (j = size_b -1; j >= 0; j = j-1){
     3d2:	0c3c                	addi	a5,sp,536
     3d4:	0116                	slli	sp,sp,0x5
     3d6:	0000                	unimp
     3d8:	d804                	sw	s1,48(s0)
            product2[j] += line[i][j];
     3da:	3b11                	jal	ee <polymult+0x3e>
     3dc:	0006                	c.slli	zero,0x1
     3de:	4000                	lw	s0,0(s0)
        for(i = 0; i < size_b; ++i){
     3e0:	6e0c                	flw	fa1,24(a2)
            product2[j] += line[i][j];
     3e2:	0006                	c.slli	zero,0x1
     3e4:	0400                	addi	s0,sp,512
     3e6:	11d9                	addi	gp,gp,-10
     3e8:	0000064b          	fnmsub.s	fa2,ft0,ft0,ft0,rne
     3ec:	6c5f0f43          	0x6c5f0f43
        for(i = 0; i < size_b; ++i){
     3f0:	0062                	c.slli	zero,0x18
    for(j = 0; j < size_a + size_b -1; ++j){
     3f2:	dc04                	sw	s1,56(s0)
     3f4:	d811                	beqz	s0,308 <polymult2+0x7c>
     3f6:	0002                	c.slli64	zero
        for(i = 0; i < size_b; ++i){
     3f8:	4400                	lw	s0,8(s0)
     3fa:	6f0c                	flw	fa1,24(a4)
    int v[size_N];
     3fc:	0001                	nop
     3fe:	0400                	addi	s0,sp,512
int *polydiv(int *num, int size_N, int*denum, int size_D, int mod){
     400:	07df 005d 0000      	0x5d07df
     406:	0c4c                	addi	a1,sp,532
     408:	0196                	slli	gp,gp,0x5
     40a:	0000                	unimp
     40c:	e004                	fsw	fs1,0(s0)
     40e:	840a                	mv	s0,sp
     410:	0000                	unimp
     412:	5000                	lw	s0,32(s0)
     414:	340c                	fld	fa1,40(s0)
     416:	0000                	unimp
     418:	0400                	addi	s0,sp,512
     41a:	046712e3          	bne	a4,t1,c5e <ntru_encyrpt+0x4a>
     41e:	0000                	unimp
     420:	0c54                	addi	a3,sp,532
    int v[size_N];
     422:	032a                	slli	t1,t1,0xa
     424:	0000                	unimp
     426:	e704                	fsw	fs1,8(a4)
    int q[size_N];
     428:	240c                	fld	fa1,8(s0)
     42a:	0001                	nop
     42c:	5800                	lw	s0,48(s0)
    int num_temp[size_N];
     42e:	7e0c                	flw	fa1,56(a2)
     430:	0004                	0x4
    int denum_temp[size_D];
     432:	0400                	addi	s0,sp,512
     434:	0ee9                	addi	t4,t4,26
     436:	00fe                	slli	ra,ra,0x1f
     438:	0000                	unimp
    int num_temp[size_N];
     43a:	0c5c                	addi	a5,sp,532
    int denum_temp[size_D];
     43c:	0456                	slli	s0,s0,0x15
     43e:	0000                	unimp
int *polydiv(int *num, int size_N, int*denum, int size_D, int mod){
     440:	ea04                	fsw	fs1,16(a2)
     442:	5d09                	li	s10,-30
     444:	0000                	unimp
     446:	6400                	flw	fs0,8(s0)
    int v[size_N];
     448:	1400                	addi	s0,sp,544
     44a:	009c                	addi	a5,sp,64
    int denum_temp[size_D];
     44c:	0000                	unimp
     44e:	00000467          	jalr	s0,zero # 0 <__DYNAMIC>
    for (i = 0; i < size_N; ++i){
     452:	6715                	lui	a4,0x5
     454:	0004                	0x4
     456:	1500                	addi	s0,sp,672
    if(size_N == 106) {
     458:	010a                	slli	sp,sp,0x2
     45a:	0000                	unimp
     45c:	bb15                	j	190 <polymult+0xe0>
     45e:	0005                	c.nop	1
        array_mod(num_temp, mod, size_N - 1);
     460:	1500                	addi	s0,sp,672
     462:	005d                	c.nop	23
     464:	0000                	unimp
     466:	1000                	addi	s0,sp,32
     468:	7204                	flw	fs1,32(a2)
        while(num_temp[size_N - 1] < 0){
     46a:	0004                	0x4
     46c:	1600                	addi	s0,sp,800
     46e:	00000467          	jalr	s0,zero # 0 <__DYNAMIC>
        num_temp[size_N - 1] = num_temp[size_N - 1] % mod;
     472:	0004dc17          	auipc	s8,0x4d
     476:	2800                	fld	fs0,16(s0)
     478:	0404                	addi	s1,sp,512
    for (i = 0; i < size_N; ++i){
     47a:	0265                	addi	tp,tp,25
    for (i = 0; i < size_D; ++i) {
     47c:	bb08                	fsd	fa0,48(a4)
     47e:	0005                	c.nop	1
	array_mod(denum_temp,mod,size_D);
     480:	1800                	addi	s0,sp,48
     482:	0434                	addi	a3,sp,520
     484:	0000                	unimp
     486:	6704                	flw	fs1,8(a4)
    for (i = 0; i < size_N; ++i){
     488:	0702                	c.slli64	a4
     48a:	005d                	c.nop	23
     48c:	0000                	unimp
    for (i = size_D-1; i >= 0; i = i-1){
     48e:	1800                	addi	s0,sp,48
     490:	0168                	addi	a0,sp,140
     492:	0000                	unimp
     494:	6c04                	flw	fs1,24(s0)
     496:	0b02                	c.slli64	s6
     498:	000006a7          	0x6a7
    for (i = 0; i < size_N; ++i){
     49c:	1804                	addi	s1,sp,48
        if ( (b_N*u)%mod == 1 )
     49e:	0236                	slli	tp,tp,0xd
    for (u = 0; u < mod; ++u){
     4a0:	0000                	unimp
     4a2:	6c04                	flw	fs1,24(s0)
     4a4:	1402                	slli	s0,s0,0x20
     4a6:	000006a7          	0x6a7
        num_temp[i] = num[i];
     4aa:	1808                	addi	a0,sp,48
     4ac:	01e6                	slli	gp,gp,0x19
     4ae:	0000                	unimp
     4b0:	6c04                	flw	fs1,24(s0)
     4b2:	1e02                	slli	t3,t3,0x20
    for (i = 0; i < size_N; ++i){
     4b4:	000006a7          	0x6a7
     4b8:	180c                	addi	a1,sp,48
            num_temp[size_N - 1] = num_temp[size_N - 1]+mod;
     4ba:	049f 0000 6e04      	0x6e040000049f
     4c0:	0802                	c.slli64	a6
        array_mod(num_temp, mod, size_N);
     4c2:	005d                	c.nop	23
     4c4:	0000                	unimp
     4c6:	1810                	addi	a2,sp,48
     4c8:	001f 0000 6f04      	0x6f040000001f
        denum_temp[i] = denum[i];
     4ce:	0802                	c.slli64	a6
     4d0:	000008a7          	0x8a7
     4d4:	1814                	addi	a3,sp,48
     4d6:	000004bb          	0x4bb
     4da:	7204                	flw	fs1,32(a2)
    for (i = 0; i < size_D; ++i) {
     4dc:	0702                	c.slli64	a4
        q[i] = 0;
     4de:	005d                	c.nop	23
     4e0:	0000                	unimp
     4e2:	1830                	addi	a2,sp,56
     4e4:	04a9                	addi	s1,s1,10
        v[i] = 0;
     4e6:	0000                	unimp
        q[i] = 0;
     4e8:	7304                	flw	fs1,32(a4)
     4ea:	1602                	slli	a2,a2,0x20
        v[i] = 0;
     4ec:	08bc                	addi	a5,sp,88
     4ee:	0000                	unimp
    for (i = 0; i < size_N; ++i){
     4f0:	1834                	addi	a3,sp,56
     4f2:	000003c3          	fmadd.s	ft7,ft0,ft0,ft0,rne
    for (i = size_D-1; i >= 0; i = i-1){
     4f6:	7504                	flw	fs1,40(a0)
     4f8:	0702                	c.slli64	a4
        if ( (b_N*u)%mod == 1 )
     4fa:	005d                	c.nop	23
     4fc:	0000                	unimp
     4fe:	1838                	addi	a4,sp,56
     500:	04b1                	addi	s1,s1,12
     502:	0000                	unimp
    for (u = 0; u < mod; ++u){
     504:	7704                	flw	fs1,40(a4)
     506:	0a02                	c.slli64	s4
        if( num_temp[i] != 0 )
     508:	08cd                	addi	a7,a7,19
    for (i = size_N-1; i >= 0; i = i-1){
     50a:	0000                	unimp
     50c:	183c                	addi	a5,sp,56
     50e:	02f6                	slli	t0,t0,0x1d
     510:	0000                	unimp
     512:	7a04                	flw	fs1,48(a2)
     514:	1302                	slli	t1,t1,0x20
     516:	018a                	slli	gp,gp,0x2
         if(size_N == 106) {
     518:	0000                	unimp
     51a:	1840                	addi	s0,sp,52
     51c:	0000020b          	0x20b
        v[(d-d2)] = u*r_d;
     520:	7b04                	flw	fs1,48(a4)
     522:	0702                	c.slli64	a4
     524:	005d                	c.nop	23
     526:	0000                	unimp
     528:	1844                	addi	s1,sp,52
     52a:	06bd                	addi	a3,a3,15
         if(size_N == 106) {
     52c:	0000                	unimp
     52e:	7c04                	flw	fs1,56(s0)
            array_mod(v, mod, size_N - 1);
     530:	1302                	slli	t1,t1,0x20
     532:	018a                	slli	gp,gp,0x2
     534:	0000                	unimp
     536:	1848                	addi	a0,sp,52
     538:	03ea                	slli	t2,t2,0x1a
            while(v[size_N - 1] < 0){
     53a:	0000                	unimp
     53c:	7d04                	flw	fs1,56(a0)
     53e:	1402                	slli	s0,s0,0x20
     540:	000008d3          	fadd.s	fa7,ft0,ft0,rne
            v[size_N - 1] = v[size_N - 1] % mod;
     544:	184c                	addi	a1,sp,52
     546:	023e                	slli	tp,tp,0xf
     548:	0000                	unimp
        product = polymult(denum_temp,size_D,v,size_D,mod,0);
     54a:	8004                	0x8004
     54c:	0702                	c.slli64	a4
     54e:	005d                	c.nop	23
     550:	0000                	unimp
     552:	1850                	addi	a2,sp,52
     554:	018e                	slli	gp,gp,0x3
     556:	0000                	unimp
        if(size_N == 106) {
     558:	8104                	0x8104
     55a:	0902                	c.slli64	s2
     55c:	000005bb          	0x5bb
            array_mod(product, mod, size_N - 1);
     560:	1854                	addi	a3,sp,52
     562:	042d                	addi	s0,s0,11
     564:	0000                	unimp
     566:	a404                	fsd	fs1,8(s0)
            while(product[size_N - 1] < 0){
     568:	0702                	c.slli64	a4
     56a:	0882                	c.slli64	a7
     56c:	0000                	unimp
     56e:	1958                	addi	a4,sp,180
     570:	03b1                	addi	t2,t2,12
     572:	0000                	unimp
            product[size_N - 1] = product[size_N - 1] % mod;
     574:	a804                	fsd	fs1,16(s0)
     576:	1302                	slli	t1,t1,0x20
     578:	000002bb          	0x2bb
     57c:	0148                	addi	a0,sp,132
     57e:	d419                	beqz	s0,48c <polydiv+0x90>
        for (i = 0; i < size_N; ++i){
     580:	0002                	c.slli64	zero
     582:	0400                	addi	s0,sp,512
 	if(size_N == 106) {
     584:	02a9                	addi	t0,t0,10
     586:	7812                	flw	fa6,36(sp)
            array_mod(num_temp, mod, size_N - 1);
     588:	0002                	c.slli64	zero
     58a:	4c00                	lw	s0,24(s0)
     58c:	1901                	addi	s2,s2,-32
     58e:	0664                	addi	s1,sp,780
     590:	0000                	unimp
            while(num_temp[size_N - 1] < 0){
     592:	ad04                	fsd	fs1,24(a0)
     594:	0c02                	c.slli64	s8
     596:	08e4                	addi	s1,sp,92
     598:	0000                	unimp
            num_temp[size_N - 1] = num_temp[size_N - 1] % mod;
     59a:	02dc                	addi	a5,sp,324
     59c:	4719                	li	a4,6
     59e:	0001                	nop
     5a0:	0400                	addi	s0,sp,512
     5a2:	02b2                	slli	t0,t0,0xc
     5a4:	6810                	flw	fa2,16(s0)
        for(i = 0; i < size_N; ++i){
     5a6:	0006                	c.slli	zero,0x1
     5a8:	e000                	fsw	fs0,0(s0)
 	if(size_N == 106) {
     5aa:	1902                	slli	s2,s2,0x20
     5ac:	012c                	addi	a1,sp,136
            array_mod(q, mod, size_N - 1);
     5ae:	0000                	unimp
     5b0:	b404                	fsd	fs1,40(s0)
     5b2:	0a02                	c.slli64	s4
     5b4:	08f0                	addi	a2,sp,92
     5b6:	0000                	unimp
            while(q[size_N - 1] < 0){
     5b8:	02ec                	addi	a1,sp,332
     5ba:	1000                	addi	s0,sp,32
     5bc:	c104                	sw	s1,0(a0)
     5be:	0005                	c.nop	1
            q[size_N - 1] = q[size_N - 1] % mod;
     5c0:	0200                	addi	s0,sp,256
     5c2:	0801                	addi	a6,a6,0
     5c4:	00000423          	sb	zero,8(zero) # 8 <__DYNAMIC+0x8>
    int v[size_N];
     5c8:	c116                	sw	t0,128(sp)
        for (i = size_N-1; i >= 0; i = i-1){
     5ca:	0005                	c.nop	1
     5cc:	1000                	addi	s0,sp,32
     5ce:	4904                	lw	s1,16(a0)
     5d0:	0004                	0x4
     5d2:	1400                	addi	s0,sp,544
     5d4:	009c                	addi	a5,sp,64
     5d6:	0000                	unimp
     5d8:	05f1                	addi	a1,a1,28
                v[size_N - 1] = v[size_N - 1]+mod;
     5da:	0000                	unimp
     5dc:	6715                	lui	a4,0x5
     5de:	0004                	0x4
     5e0:	1500                	addi	s0,sp,672
            array_mod(v, mod, size_N);
     5e2:	010a                	slli	sp,sp,0x2
     5e4:	0000                	unimp
     5e6:	f115                	bnez	a0,50a <polydiv+0x10e>
     5e8:	0005                	c.nop	1
     5ea:	1500                	addi	s0,sp,672
                product[size_N - 1] = product[size_N - 1]+mod;
     5ec:	005d                	c.nop	23
     5ee:	0000                	unimp
     5f0:	1000                	addi	s0,sp,32
     5f2:	c804                	sw	s1,16(s0)
            array_mod(product, mod, size_N);
     5f4:	0005                	c.nop	1
     5f6:	1000                	addi	s0,sp,32
     5f8:	d304                	sw	s1,32(a4)
     5fa:	0005                	c.nop	1
     5fc:	1400                	addi	s0,sp,544
     5fe:	0090                	addi	a2,sp,64
            num_temp[i] = num_temp[i] - product[i];
     600:	0000                	unimp
     602:	0000061b          	0x61b
     606:	6715                	lui	a4,0x5
     608:	0004                	0x4
        for (i = 0; i < size_N; ++i){
     60a:	1500                	addi	s0,sp,672
     60c:	010a                	slli	sp,sp,0x2
            num_temp[i] = num_temp[i] - product[i];
     60e:	0000                	unimp
     610:	9015                	srli	s0,s0,0x25
     612:	0000                	unimp
        for (i = 0; i < size_N; ++i){
     614:	1500                	addi	s0,sp,672
                num_temp[size_N - 1] = num_temp[size_N - 1]+mod;
     616:	005d                	c.nop	23
     618:	0000                	unimp
     61a:	1000                	addi	s0,sp,32
     61c:	fd04                	fsw	fs1,56(a0)
            array_mod(num_temp, mod, size_N);
     61e:	0005                	c.nop	1
     620:	1400                	addi	s0,sp,544
     622:	005d                	c.nop	23
     624:	0000                	unimp
     626:	0635                	addi	a2,a2,13
            q[i] = q[i] + v[i];
     628:	0000                	unimp
     62a:	6715                	lui	a4,0x5
     62c:	0004                	0x4
     62e:	1500                	addi	s0,sp,672
     630:	010a                	slli	sp,sp,0x2
        for(i = 0; i < size_N; ++i){
     632:	0000                	unimp
     634:	1000                	addi	s0,sp,32
            q[i] = q[i] + v[i];
     636:	2104                	fld	fs1,0(a0)
     638:	0006                	c.slli	zero,0x1
     63a:	0900                	addi	s0,sp,144
        for(i = 0; i < size_N; ++i){
     63c:	002c                	addi	a1,sp,8
                q[size_N - 1] = q[size_N - 1]+mod;
     63e:	0000                	unimp
     640:	0000064b          	fnmsub.s	fa2,ft0,ft0,ft0,rne
     644:	690a                	flw	fs2,128(sp)
            array_mod(q, mod, size_N);
     646:	0000                	unimp
     648:	0200                	addi	s0,sp,256
     64a:	0900                	addi	s0,sp,144
     64c:	002c                	addi	a1,sp,8
     64e:	0000                	unimp
            if( num_temp[i] != 0 )
     650:	0000065b          	0x65b
        for (i = size_N-1; i >= 0; i = i-1){
     654:	690a                	flw	fs2,128(sp)
            v[i] = 0;
     656:	0000                	unimp
     658:	0000                	unimp
     65a:	0500                	addi	s0,sp,640
     65c:	0464                	addi	s1,sp,524
     65e:	0000                	unimp
        for (i = 0; i < size_N; ++i){
     660:	2404                	fld	fs1,8(s0)
     662:	1a01                	addi	s4,s4,-32
     664:	0306                	slli	t1,t1,0x1
    while (d >= d2){
     666:	0000                	unimp
     668:	381a                	fld	fa6,416(sp)
    for(i = 0; i < size_N; ++i){
     66a:	0006                	c.slli	zero,0x1
        result[i] = q[i];
     66c:	0c00                	addi	s0,sp,528
     66e:	2804                	fld	fs1,16(s0)
     670:	0801                	addi	a6,a6,0
     672:	06a1                	addi	a3,a3,8
    for(i = 0; i < size_N; ++i){
     674:	0000                	unimp
     676:	8c18                	0x8c18
    for(i = size_N; i < (2*size_N); ++i){
     678:	0004                	0x4
     67a:	0400                	addi	s0,sp,512
        result[i] = num_temp[i-size_N];
     67c:	012a                	slli	sp,sp,0xa
     67e:	a111                	j	a82 <generate_keys+0x162>
     680:	0006                	c.slli	zero,0x1
     682:	0000                	unimp
    for(i = size_N; i < (2*size_N); ++i){
     684:	9a18                	0x9a18
     686:	0002                	c.slli64	zero
}
     688:	0400                	addi	s0,sp,512
     68a:	5d07012b          	0x5d07012b
     68e:	0000                	unimp
     690:	0400                	addi	s0,sp,512
     692:	5e18                	lw	a4,56(a2)
     694:	0004                	0x4
     696:	0400                	addi	s0,sp,512
     698:	012c                	addi	a1,sp,136
     69a:	0006a70b          	0x6a70b
     69e:	0800                	addi	s0,sp,16
     6a0:	1000                	addi	s0,sp,32
     6a2:	6804                	flw	fs1,16(s0)
     6a4:	0006                	c.slli	zero,0x1
     6a6:	1000                	addi	s0,sp,32
     6a8:	5b04                	lw	s1,48(a4)
     6aa:	0006                	c.slli	zero,0x1
     6ac:	1a00                	addi	s0,sp,304
     6ae:	00000017          	auipc	zero,0x0
        result[i] = q[i];
     6b2:	040e                	slli	s0,s0,0x3
     6b4:	0144                	addi	s1,sp,132
     6b6:	e608                	fsw	fa0,8(a2)
     6b8:	0006                	c.slli	zero,0x1
     6ba:	1800                	addi	s0,sp,48
     6bc:	04ed                	addi	s1,s1,27
    for(i = 0; i < size_N; ++i){
     6be:	0000                	unimp
        result[i] = q[i];
     6c0:	4504                	lw	s1,8(a0)
    for(i = 0; i < size_N; ++i){
     6c2:	1201                	addi	tp,tp,-32
        result[i] = num_temp[i-size_N];
     6c4:	06e6                	slli	a3,a3,0x19
     6c6:	0000                	unimp
     6c8:	1800                	addi	s0,sp,48
     6ca:	000004e7          	jalr	s1,zero # 0 <__DYNAMIC>
     6ce:	4604                	lw	s1,8(a2)
    for(i = size_N; i < (2*size_N); ++i){
     6d0:	1201                	addi	tp,tp,-32
     6d2:	06e6                	slli	a3,a3,0x19
     6d4:	0000                	unimp
    int ri_2[size]; // MX-ring poly, a
     6d6:	1806                	slli	a6,a6,0x21
     6d8:	055f 0000 4704      	0x47040000055f
     6de:	1201                	addi	tp,tp,-32
int* ext_euclid(int* polyR, int* polyf, int size, int mod) {
     6e0:	003a                	c.slli	zero,0xe
     6e2:	0000                	unimp
     6e4:	000c                	0xc
     6e6:	3a09                	jal	fffffff8 <_stack_start+0xfffefff8>
     6e8:	0000                	unimp
     6ea:	f600                	fsw	fs0,40(a2)
     6ec:	0006                	c.slli	zero,0x1
     6ee:	0a00                	addi	s0,sp,272
     6f0:	0069                	c.nop	26
     6f2:	0000                	unimp
     6f4:	0002                	c.slli64	zero
     6f6:	8504d01b          	0x8504d01b
     6fa:	0702                	c.slli64	a4
    int ri_2[size]; // MX-ring poly, a
     6fc:	0000080b          	0x80b
     700:	1718                	addi	a4,sp,928
    int ri_1[size]; // f-random poly, f[N] = 0, b
     702:	0006                	c.slli	zero,0x1
     704:	0400                	addi	s0,sp,512
     706:	69180287          	0x69180287
    int ri[size];
     70a:	0000                	unimp
     70c:	0000                	unimp
    int ti_1[size]; // ti_1[0] = 1
     70e:	3b18                	fld	fa4,48(a4)
     710:	0005                	c.nop	1
     712:	0400                	addi	s0,sp,512
    int ti[size];
     714:	0288                	addi	a0,sp,320
     716:	bb12                	fsd	ft4,432(sp)
     718:	0005                	c.nop	1
    int qi_1[size];
     71a:	0400                	addi	s0,sp,512
     71c:	e918                	fsw	fa4,16(a0)
     71e:	0002                	c.slli64	zero
    int temp[size];
     720:	0400                	addi	s0,sp,512
     722:	0289                	addi	t0,t0,2
int* ext_euclid(int* polyR, int* polyf, int size, int mod) {
     724:	0b10                	addi	a2,sp,400
     726:	0008                	0x8
    int ri_2[size]; // MX-ring poly, a
     728:	0800                	addi	s0,sp,16
     72a:	9418                	0x9418
    int temp[size];
     72c:	0006                	c.slli	zero,0x1
    for (i = 0; i < size; ++i) {
     72e:	0400                	addi	s0,sp,512
     730:	028a                	slli	t0,t0,0x2
        ti_2[i] = 0;
     732:	0001a017          	auipc	zero,0x1a
     736:	2400                	fld	fs0,8(s0)
     738:	f618                	fsw	fa4,40(a2)
    for (i = 0; i < size; ++i) {
     73a:	0001                	nop
     73c:	0400                	addi	s0,sp,512
    ti_1[0] = 1;
     73e:	5d0f028b          	0x5d0f028b
     742:	0000                	unimp
        for (i = N + 1; i < (2 * N + 2); ++i) {
     744:	4800                	lw	s0,16(s0)
     746:	8718                	0x8718
     748:	0004                	0x4
     74a:	0400                	addi	s0,sp,512
            ti[i] = ti_2[i] - temp[i];
     74c:	028c                	addi	a1,sp,320
     74e:	562c                	lw	a1,104(a2)
     750:	0000                	unimp
     752:	5000                	lw	s0,32(s0)
	array_mod(ri_2,mod,N+1);
     754:	aa18                	fsd	fa4,16(a2)
     756:	0006                	c.slli	zero,0x1
     758:	0400                	addi	s0,sp,512
     75a:	028d                	addi	t0,t0,3
	array_mod(ri_1,mod,N+1);
     75c:	ad1a                	fsd	ft6,152(sp)
     75e:	0006                	c.slli	zero,0x1
     760:	5800                	lw	s0,48(s0)
     762:	9218                	0x9218
        res = polydiv(ri_2, N + 1, ri_1, N + 1, mod);
     764:	0004                	0x4
     766:	0400                	addi	s0,sp,512
     768:	028e                	slli	t0,t0,0x3
     76a:	fe16                	fsw	ft5,60(sp)
     76c:	0000                	unimp
     76e:	6800                	flw	fs0,16(s0)
        for (i = N + 1; i < (2 * N + 2); ++i) {
     770:	af18                	fsd	fa4,24(a4)
     772:	0006                	c.slli	zero,0x1
     774:	0400                	addi	s0,sp,512
     776:	fe16028f          	0xfe16028f
     77a:	0000                	unimp
     77c:	7000                	flw	fs0,32(s0)
        for (i = 0; i < N + 1; ++i) {
     77e:	d718                	sw	a4,40(a4)
     780:	0000                	unimp
     782:	0400                	addi	s0,sp,512
        array_mod(temp,mod,N+1);
     784:	0290                	addi	a2,sp,320
     786:	fe16                	fsw	ft5,60(sp)
     788:	0000                	unimp
     78a:	7800                	flw	fs0,48(s0)
        res1 = polydiv(temp, N + 1, ri_1, N + 1, mod);
     78c:	5418                	lw	a4,40(s0)
     78e:	0006                	c.slli	zero,0x1
     790:	0400                	addi	s0,sp,512
     792:	0291                	addi	t0,t0,4
     794:	1b10                	addi	a2,sp,432
     796:	0008                	0x8
        for (i = 0; i < N + 1; ++i) {
     798:	8000                	0x8000
     79a:	dd18                	sw	a4,56(a0)
     79c:	0002                	c.slli64	zero
	array_mod(qi_1,mod,size);
     79e:	0400                	addi	s0,sp,512
     7a0:	0292                	slli	t0,t0,0x4
     7a2:	2b10                	fld	fa2,16(a4)
     7a4:	0008                	0x8
        res2 = polymult(qi_1, N + 1, ti_1, N + 1, mod, 0);
     7a6:	8800                	0x8800
     7a8:	9518                	0x9518
     7aa:	0005                	c.nop	1
     7ac:	0400                	addi	s0,sp,512
     7ae:	5d0f0293          	addi	t0,t5,1488
     7b2:	0000                	unimp
        for (i = 0; i < N + 1; ++i) {
     7b4:	a000                	fsd	fs0,0(s0)
     7b6:	af18                	fsd	fa4,24(a4)
     7b8:	0001                	nop
	array_mod(temp,mod,size);
     7ba:	0400                	addi	s0,sp,512
     7bc:	0294                	addi	a3,sp,320
     7be:	fe16                	fsw	ft5,60(sp)
     7c0:	0000                	unimp
        for (i = 0; i < N + 1; ++i) {
     7c2:	a400                	fsd	fs0,8(s0)
     7c4:	c818                	sw	a4,16(s0)
     7c6:	0000                	unimp
     7c8:	0400                	addi	s0,sp,512
        array_mod(ti,mod,N+1);
     7ca:	0295                	addi	t0,t0,5
     7cc:	fe16                	fsw	ft5,60(sp)
     7ce:	0000                	unimp
     7d0:	ac00                	fsd	fs0,24(s0)
        for (i = 0; i < N + 1; ++i) {
     7d2:	9e18                	0x9e18
        controlR = 0;
     7d4:	0001                	nop
        for (i = 0; i < N + 1; ++i) {
     7d6:	0400                	addi	s0,sp,512
     7d8:	0296                	slli	t0,t0,0x5
     7da:	fe16                	fsw	ft5,60(sp)
    while (controlR != 0) {
     7dc:	0000                	unimp
        for (j = 0; j < mod; ++j) {
     7de:	b400                	fsd	fs0,40(s0)
            if (((ri_2[0] * j) % mod) == 1)
     7e0:	3a18                	fld	fa4,48(a2)
        for (j = 0; j < mod; ++j) {
     7e2:	0000                	unimp
     7e4:	0400                	addi	s0,sp,512
     7e6:	fe160297          	auipc	t0,0xfe160
     7ea:	0000                	unimp
     7ec:	bc00                	fsd	fs0,56(s0)
        for (i = 0; i < N + 1; ++i) {
     7ee:	4918                	lw	a4,16(a0)
     7f0:	0000                	unimp
    }
     7f2:	0400                	addi	s0,sp,512
     7f4:	0298                	addi	a4,sp,320
     7f6:	fe16                	fsw	ft5,60(sp)
     7f8:	0000                	unimp
     7fa:	c400                	sw	s0,8(s0)
     7fc:	3218                	fld	fa4,32(a2)
     7fe:	0004                	0x4
     800:	0400                	addi	s0,sp,512
     802:	0299                	addi	t0,t0,6
     804:	5d08                	lw	a0,56(a0)
     806:	0000                	unimp
     808:	cc00                	sw	s0,24(s0)
     80a:	0900                	addi	s0,sp,144
     80c:	05c1                	addi	a1,a1,16
     80e:	0000                	unimp
     810:	0000081b          	0x81b
     814:	690a                	flw	fs2,128(sp)
     816:	0000                	unimp
     818:	1900                	addi	s0,sp,176
     81a:	0900                	addi	s0,sp,144
        ri_2[i] = polyR[i];
     81c:	05c1                	addi	a1,a1,16
     81e:	0000                	unimp
     820:	0000082b          	0x82b
     824:	690a                	flw	fs2,128(sp)
     826:	0000                	unimp
    for (i = 0; i < size; ++i) {
     828:	0700                	addi	s0,sp,896
        ri_2[i] = polyR[i];
     82a:	0900                	addi	s0,sp,144
     82c:	05c1                	addi	a1,a1,16
        ri_1[i] = polyf[i];
     82e:	0000                	unimp
     830:	0000083b          	0x83b
     834:	690a                	flw	fs2,128(sp)
     836:	0000                	unimp
     838:	1700                	addi	s0,sp,928
     83a:	1b00                	addi	s0,sp,432
     83c:	04f0                	addi	a2,sp,588
        ti_2[i] = 0;
     83e:	029e                	slli	t0,t0,0x7
     840:	00086207          	0x86207
     844:	1800                	addi	s0,sp,48
        ti_1[i] = 0;
     846:	0389                	addi	t2,t2,2
     848:	0000                	unimp
     84a:	a104                	fsd	fs1,0(a0)
     84c:	1b02                	slli	s6,s6,0x20
    for (i = 0; i < size; ++i) {
     84e:	0862                	slli	a6,a6,0x18
     850:	0000                	unimp
            ri[i - (N + 1)] = res[i];
     852:	1800                	addi	s0,sp,48
     854:	0374                	addi	a3,sp,396
     856:	0000                	unimp
     858:	a204                	fsd	fs1,0(a2)
        for (i = N + 1; i < (2 * N + 2); ++i) {
     85a:	1802                	slli	a6,a6,0x20
     85c:	0872                	slli	a6,a6,0x1c
            ri[i - (N + 1)] = res[i];
     85e:	0000                	unimp
     860:	0078                	addi	a4,sp,12
        for (i = N + 1; i < (2 * N + 2); ++i) {
     862:	0009                	c.nop	2
            temp[i] = ri_2[i] - ri[i];
     864:	72000003          	lb	zero,1824(zero) # 720 <ext_euclid+0x4a>
     868:	0008                	0x8
     86a:	0a00                	addi	s0,sp,272
     86c:	0069                	c.nop	26
     86e:	0000                	unimp
     870:	001d                	c.nop	7
     872:	6909                	lui	s2,0x2
        for (i = 0; i < N + 1; ++i) {
     874:	0000                	unimp
            temp[i] = ri_2[i] - ri[i];
     876:	8200                	0x8200
     878:	0008                	0x8
        for (i = 0; i < N + 1; ++i) {
     87a:	0a00                	addi	s0,sp,272
     87c:	0069                	c.nop	26
            qi_1[i] = res1[i];
     87e:	0000                	unimp
     880:	001d                	c.nop	7
     882:	f01c                	fsw	fa5,32(s0)
     884:	8304                	0x8304
     886:	0302                	c.slli64	t1
     888:	000008a7          	0x8a7
     88c:	dc1d                	beqz	s0,7ca <ext_euclid+0xf4>
        for (i = 0; i < N + 1; ++i) {
     88e:	0004                	0x4
            temp[i] = res2[i];
     890:	0400                	addi	s0,sp,512
     892:	029a                	slli	t0,t0,0x6
     894:	0006f60b          	0x6f60b
     898:	1d00                	addi	s0,sp,688
     89a:	0674                	addi	a3,sp,780
        for (i = 0; i < N + 1; ++i) {
     89c:	0000                	unimp
            temp[i] = res2[i];
     89e:	a304                	fsd	fs1,0(a4)
        for (i = 0; i < N + 1; ++i) {
     8a0:	0b02                	c.slli64	s6
            ti[i] = ti_2[i] - temp[i];
     8a2:	0000083b          	0x83b
     8a6:	0900                	addi	s0,sp,144
     8a8:	05c1                	addi	a1,a1,16
     8aa:	0000                	unimp
     8ac:	000008b7          	lui	a7,0x0
     8b0:	690a                	flw	fs2,128(sp)
        for (i = 0; i < N + 1; ++i) {
     8b2:	0000                	unimp
            ti[i] = ti_2[i] - temp[i];
     8b4:	1800                	addi	s0,sp,48
     8b6:	1e00                	addi	s0,sp,816
        for (i = 0; i < N + 1; ++i) {
     8b8:	000000a3          	sb	zero,1(zero) # 1 <__DYNAMIC+0x1>
            ri_2[i] = ri_1[i];
     8bc:	0410                	addi	a2,sp,512
     8be:	000008b7          	lui	a7,0x0
     8c2:	cd1f 0008 1500      	0x15000008cd1f
     8c8:	00000467          	jalr	s0,zero # 0 <__DYNAMIC>
            ri_1[i] = ri[i];
     8cc:	1000                	addi	s0,sp,32
     8ce:	c204                	sw	s1,0(a2)
            ti_2[i] = ti_1[i];
     8d0:	0008                	0x8
     8d2:	1000                	addi	s0,sp,32
            ri_1[i] = ri[i];
     8d4:	8a04                	0x8a04
            ti_2[i] = ti_1[i];
     8d6:	0001                	nop
     8d8:	1f00                	addi	s0,sp,944
     8da:	08e4                	addi	s1,sp,92
     8dc:	0000                	unimp
            controlR += ri[i];
     8de:	5d15                	li	s10,-27
            ti_2[i] = ti_1[i];
     8e0:	0000                	unimp
     8e2:	0000                	unimp
            ti_1[i] = ti[i];
     8e4:	0410                	addi	a2,sp,512
     8e6:	08ea                	slli	a7,a7,0x1a
     8e8:	0000                	unimp
     8ea:	0410                	addi	a2,sp,512
            qi_1[i] = 0;
     8ec:	08d9                	addi	a7,a7,22
     8ee:	0000                	unimp
     8f0:	5b09                	li	s6,-30
     8f2:	0006                	c.slli	zero,0x1
        for (i = 0; i < N + 1; ++i) {
     8f4:	0000                	unimp
     8f6:	0009                	c.nop	2
            if (((ri_2[0] * j) % mod) == 1)
     8f8:	0a00                	addi	s0,sp,272
     8fa:	0069                	c.nop	26
     8fc:	0000                	unimp
     8fe:	0002                	c.slli64	zero
     900:	a920                	fsd	fs0,80(a0)
     902:	0005                	c.nop	1
     904:	0400                	addi	s0,sp,512
     906:	67170333          	0x67170333
        for (j = 0; j < mod; ++j) {
     90a:	0004                	0x4
            ti_2[i] = (ti_2[i] * j) % mod;        // ti_2[i]*j vardı..
     90c:	2000                	fld	fs0,0(s0)
        for (i = 0; i < N + 1; ++i) {
     90e:	05a2                	slli	a1,a1,0x8
     910:	0000                	unimp
            ti_2[i] = (ti_2[i] * j) % mod;        // ti_2[i]*j vardı..
     912:	3404                	fld	fs1,40(s0)
     914:	046d1d03          	lh	s10,70(s10)
     918:	0000                	unimp
     91a:	b921                	j	532 <polydiv+0x136>
     91c:	06000003          	lb	zero,96(zero) # 60 <__DYNAMIC+0x60>
int* generate_keys(int N, int p, int q){
     920:	05bb0e67          	jalr	t3,91(s6) # 5d105b <_stack_start+0x5c105b>
     924:	0000                	unimp
     926:	5d09                	li	s10,-30
     928:	0000                	unimp
     92a:	3600                	fld	fs0,40(a2)
     92c:	0009                	c.nop	2
     92e:	0a00                	addi	s0,sp,272
     930:	0069                	c.nop	26
     932:	0000                	unimp
     934:	0095                	addi	ra,ra,5
     936:	7822                	flw	fa6,40(sp)
     938:	0001                	nop
     93a:	0100                	addi	s0,sp,128
     93c:	0c06                	slli	s8,s8,0x1
     93e:	0926                	slli	s2,s2,0x9
     940:	0000                	unimp
     942:	0305                	addi	t1,t1,1
     944:	123c                	addi	a5,sp,296
     946:	0000                	unimp
     948:	3f22                	fld	ft10,40(sp)
     94a:	01000003          	lb	zero,16(zero) # 10 <__DYNAMIC+0x10>
     94e:	09260c07          	0x9260c07
     952:	0000                	unimp
     954:	0305                	addi	t1,t1,1
     956:	1494                	addi	a3,sp,608
     958:	0000                	unimp
    int f[55] = {-1, 1, 1, 0, -1, 0, 1, 0, 0, 1, -1, -1, 0, 1, 0, -1, 0, 1, 1, 0, 0,  -1, 0, 1, 0, 0, 1, 1, 1,  -1, 0, 1, 0, 0, 1, 1, 1,    -1, 0, 1, 0, 0, 1, 1, 1};
     95a:	f722                	fsw	fs0,172(sp)
     95c:	0002                	c.slli64	zero
     95e:	0100                	addi	s0,sp,128
     960:	0c08                	addi	a0,sp,528
     962:	0926                	slli	s2,s2,0x9
     964:	0000                	unimp
     966:	0305                	addi	t1,t1,1
     968:	16ec                	addi	a1,sp,876
    int g[55] = {-1, 0, 1, 1, 0, 1, 0, 0, -1, 0, -1, -1, 0, 1, 0, -1, 0, 1, 0, 0, 1, -1, 0, 1, 0, 0, 1, -1, 0, 1, 0, 0, 1, -1, 0, 1, 0, 1,   1, 0, 0, 1, -1, 0, 1, 0, 1};
     96a:	0000                	unimp
     96c:	5d09                	li	s10,-30
     96e:	0000                	unimp
     970:	7c00                	flw	fs0,56(s0)
     972:	0009                	c.nop	2
    int f[55] = {-1, 1, 1, 0, -1, 0, 1, 0, 0, 1, -1, -1, 0, 1, 0, -1, 0, 1, 1, 0, 0,  -1, 0, 1, 0, 0, 1, 1, 1,  -1, 0, 1, 0, 0, 1, 1, 1,    -1, 0, 1, 0, 0, 1, 1, 1};
     974:	0a00                	addi	s0,sp,272
     976:	0069                	c.nop	26
     978:	0000                	unimp
     97a:	15220063          	beq	tp,s2,aba <generate_keys+0x19a>
     97e:	0004                	0x4
     980:	0100                	addi	s0,sp,128
     982:	0c09                	addi	s8,s8,2
     984:	096c                	addi	a1,sp,156
     986:	0000                	unimp
     988:	0305                	addi	t1,t1,1
     98a:	1944                	addi	s1,sp,180
     98c:	0000                	unimp
     98e:	5d09                	li	s10,-30
     990:	0000                	unimp
     992:	9f00                	0x9f00
     994:	0009                	c.nop	2
     996:	2300                	fld	fs0,0(a4)
     998:	0069                	c.nop	26
     99a:	0000                	unimp
     99c:	013d                	addi	sp,sp,15
     99e:	2200                	fld	fs0,0(a2)
     9a0:	00000097          	auipc	ra,0x0
     9a4:	0a01                	addi	s4,s4,0
     9a6:	8e0c                	0x8e0c
     9a8:	0009                	c.nop	2
     9aa:	0500                	addi	s0,sp,640
     9ac:	001ad403          	lhu	s0,1(s5)
     9b0:	0900                	addi	s0,sp,144
     9b2:	0064                	addi	s1,sp,12
     9b4:	0000                	unimp
     9b6:	09c1                	addi	s3,s3,16
     9b8:	0000                	unimp
     9ba:	690a                	flw	fs2,128(sp)
     9bc:	0000                	unimp
     9be:	0000                	unimp
     9c0:	0400                	addi	s0,sp,512
     9c2:	09b1                	addi	s3,s3,12
     9c4:	0000                	unimp
     9c6:	2c24                	fld	fs1,88(s0)
     9c8:	0002                	c.slli64	zero
     9ca:	0100                	addi	s0,sp,128
     9cc:	09c10e0b          	0x9c10e0b
     9d0:	0000                	unimp
     9d2:	0305                	addi	t1,t1,1
     9d4:	1238                	addi	a4,sp,296
     9d6:	0000                	unimp
     9d8:	c225                	beqz	a2,a38 <generate_keys+0x118>
     9da:	0006                	c.slli	zero,0x1
     9dc:	0100                	addi	s0,sp,128
     9de:	026a                	slli	tp,tp,0x1a
    int polyR[N+1];
     9e0:	5d05                	li	s10,-31
     9e2:	0000                	unimp
    int g[55] = {-1, 0, 1, 1, 0, 1, 0, 0, -1, 0, -1, -1, 0, 1, 0, -1, 0, 1, 0, 0, 1, -1, 0, 1, 0, 0, 1, -1, 0, 1, 0, 0, 1, -1, 0, 1, 0, 1,   1, 0, 0, 1, -1, 0, 1, 0, 1};
     9e4:	6e00                	flw	fs0,24(a2)
    int polyR[N+1];
     9e6:	3800000f          	0x3800000f
     9ea:	0001                	nop
     9ec:	0100                	addi	s0,sp,128
     9ee:	639c                	flw	fa5,0(a5)
     9f0:	2600000b          	0x2600000b
    polyR[N] = 1;
     9f4:	03d5                	addi	t2,t2,21
     9f6:	0000                	unimp
     9f8:	6b01                	0x6b01
     9fa:	0a02                	c.slli64	s4
     9fc:	00000b63          	beqz	zero,a12 <generate_keys+0xf2>
    int g[55] = {-1, 0, 1, 1, 0, 1, 0, 0, -1, 0, -1, -1, 0, 1, 0, -1, 0, 1, 0, 0, 1, -1, 0, 1, 0, 0, 1, -1, 0, 1, 0, 0, 1, -1, 0, 1, 0, 1,   1, 0, 0, 1, -1, 0, 1, 0, 1};
     a00:	0000                	unimp
     a02:	0000                	unimp
     a04:	8226                	mv	tp,s1
     a06:	0000                	unimp
     a08:	0100                	addi	s0,sp,128
     a0a:	026c                	addi	a1,sp,268
     a0c:	630a                	flw	ft6,128(sp)
     a0e:	1e00000b          	0x1e00000b
     a12:	0000                	unimp
     a14:	2600                	fld	fs0,8(a2)
     a16:	0314                	addi	a3,sp,384
     a18:	0000                	unimp
     a1a:	6d01                	0x6d01
     a1c:	0a02                	c.slli64	s4
     a1e:	00000b63          	beqz	zero,a34 <generate_keys+0x114>
     a22:	003c                	addi	a5,sp,8
     a24:	0000                	unimp
     a26:	01004e27          	fsq	fa6,28(zero) # 1c <__DYNAMIC+0x1c>
     a2a:	026e                	slli	tp,tp,0x1b
     a2c:	5d09                	li	s10,-30
     a2e:	0000                	unimp
     a30:	3500                	fld	fs0,40(a0)
     a32:	01007027          	0x1007027
     a36:	5d09026f          	jal	tp,91006 <_stack_start+0x81006>
     a3a:	0000                	unimp
     a3c:	0300                	addi	s0,sp,384
     a3e:	01007127          	0x1007127
     a42:	0270                	addi	a2,sp,268
     a44:	5d09                	li	s10,-30
     a46:	0000                	unimp
     a48:	6500                	flw	fs0,8(a0)
     a4a:	9028                	0x9028
     a4c:	01000003          	lb	zero,16(zero) # 10 <__DYNAMIC+0x10>
     a50:	0272                	slli	tp,tp,0x1c
     a52:	6909                	lui	s2,0x2
     a54:	0300000b          	0x300000b
     a58:	dc91                	beqz	s1,974 <generate_keys+0x54>
     a5a:	05262677          	0x5262677
     a5e:	0000                	unimp
     a60:	7301                	lui	t1,0xfffe0
    polyR[0] = -1;
     a62:	0902                	c.slli64	s2
     a64:	0b79                	addi	s6,s6,30
    for(i = 1; i < N; ++i){
     a66:	0000                	unimp
     a68:	005d                	c.nop	23
     a6a:	0000                	unimp
     a6c:	ae26                	fsd	fs1,280(sp)
    for (i = N; i < 55; ++i ){
     a6e:	0000                	unimp
     a70:	0100                	addi	s0,sp,128
     a72:	0274                	addi	a3,sp,268
     a74:	8b09                	andi	a4,a4,2
    for(i = 0; i < N; ++i){
     a76:	b100000b          	0xb100000b
        random_keys[i] = f[i];
     a7a:	0000                	unimp
     a7c:	2900                	fld	fs0,16(a0)
     a7e:	000000bb          	0xbb
    for(i = 0; i < N; ++i){
     a82:	7501                	lui	a0,0xfffe0
     a84:	0902                	c.slli64	s2
     a86:	0b9d                	addi	s7,s7,7
    for(i = N; i < (2*N); ++i){
     a88:	0000                	unimp
     a8a:	5126                	lw	sp,104(sp)
     a8c:	0005                	c.nop	1
     a8e:	0100                	addi	s0,sp,128
        random_keys[i] = g[i-N];
     a90:	0276                	slli	tp,tp,0x1d
     a92:	af09                	j	11a4 <_endtext+0xec>
     a94:	1200000b          	0x1200000b
    for(i = N; i < (2*N); ++i){
     a98:	0001                	nop
     a9a:	2900                	fld	fs0,16(a0)
    for(i = (2*N); i < (3*N); ++i){
     a9c:	0246                	slli	tp,tp,0x11
     a9e:	0000                	unimp
     aa0:	7701                	lui	a4,0xfffe0
    fp = ext_euclid(polyR, f, (N+1), p);
     aa2:	0902                	c.slli64	s2
     aa4:	0bc1                	addi	s7,s7,16
     aa6:	0000                	unimp
     aa8:	f426                	fsw	fs1,40(sp)
     aaa:	01000003          	lb	zero,16(zero) # 10 <__DYNAMIC+0x10>
    for(i = (2*N); i < (3*N); ++i){
     aae:	0278                	addi	a4,sp,268
        random_keys[i] = fp[i-(2*N)];
     ab0:	d309                	beqz	a4,9b2 <generate_keys+0x92>
     ab2:	6500000b          	0x6500000b
     ab6:	0001                	nop
    for(i = (2*N); i < (3*N); ++i){
     ab8:	2a00                	fld	fs0,16(a2)
     aba:	0069                	c.nop	26
    fq = ext_euclid(polyR, f, (N+1), q);
     abc:	7901                	lui	s2,0xfffe0
     abe:	0902                	c.slli64	s2
     ac0:	005d                	c.nop	23
     ac2:	0000                	unimp
     ac4:	01b9                	addi	gp,gp,14
     ac6:	0000                	unimp
    for(i = (3*N); i < (4*N); ++i){
     ac8:	000f962b          	0xf962b
     acc:	8100                	0x8100
     ace:	001a                	c.slli	zero,0x6
        random_keys[i] = fq[i-(3*N)];
     ad0:	ec00                	fsw	fs0,24(s0)
     ad2:	000a                	c.slli	zero,0x2
     ad4:	2c00                	fld	fs0,24(s0)
     ad6:	5a01                	li	s4,-32
    for(i = (3*N); i < (4*N); ++i){
     ad8:	77dc9103          	lh	sp,1917(s9)
    fg = polymult2(fq, N, g, N, 0);
     adc:	012c                	addi	a1,sp,136
     ade:	7803055b          	0x7803055b
     ae2:	0011                	c.nop	4
     ae4:	2c00                	fld	fs0,24(s0)
     ae6:	5c01                	li	s8,-32
    for(i = 0; i < (2*N-1); ++i){
     ae8:	0802                	c.slli64	a6
     aea:	00c0                	addi	s0,sp,68
     aec:	000fb42b          	0xfb42b
     af0:	9500                	0x9500
     af2:	000e                	c.slli	zero,0x3
    pk = polydiv(fg, (2*N-1), polyR, (N+1), q);
     af4:	0b00                	addi	s0,sp,400
     af6:	2c00000b          	0x2c00000b
     afa:	5a01                	li	s4,-32
    for(i = (4*N); i < (5*N); ++i){
     afc:	0802                	c.slli64	a6
     afe:	2c35                	jal	d3a <ntru_deceypt+0x90>
     b00:	5b01                	li	s6,-32
     b02:	3301                	jal	802 <ext_euclid+0x12c>
     b04:	012c                	addi	a1,sp,136
        random_keys[i] = pk[i-(4*N)+(2*N-1)];
     b06:	025c                	addi	a5,sp,260
     b08:	6508                	flw	fa0,8(a0)
     b0a:	2b00                	fld	fs0,16(a4)
     b0c:	1034                	addi	a3,sp,40
    for(i = (4*N); i < (5*N); ++i){
     b0e:	0000                	unimp
     b10:	0d66                	slli	s10,s10,0x19
     b12:	0000                	unimp
    for(i = (5*N); i < (6*N+1); ++i){
     b14:	00000b33          	add	s6,zero,zero
        random_keys[i] = polyR[i-(5*N)];
     b18:	012c                	addi	a1,sp,136
     b1a:	025a                	slli	tp,tp,0x16
     b1c:	3508                	fld	fa0,40(a0)
     b1e:	012c                	addi	a1,sp,136
    for(i = (5*N); i < (6*N+1); ++i){
     b20:	6508025b          	0x6508025b
     b24:	012c                	addi	a1,sp,136
     b26:	035c                	addi	a5,sp,388
     b28:	dc91                	beqz	s1,a44 <generate_keys+0x124>
     b2a:	5e012c77          	0x5e012c77
}
     b2e:	7e989103          	lh	sp,2025(a7) # 7e9 <ext_euclid+0x113>
     b32:	2d00                	fld	fs0,24(a0)
     b34:	1056                	c.slli	zero,0x35
     b36:	0000                	unimp
     b38:	0be5                	addi	s7,s7,25
     b3a:	0000                	unimp
     b3c:	012c                	addi	a1,sp,136
     b3e:	025a                	slli	tp,tp,0x16
     b40:	3508                	fld	fa0,40(a0)
     b42:	012c                	addi	a1,sp,136
     b44:	2c33015b          	0x2c33015b
     b48:	5c01                	li	s8,-32
     b4a:	0802                	c.slli64	a6
     b4c:	2c65                	jal	e04 <memcpy+0x1c>
     b4e:	5d01                	li	s10,-32
     b50:	7af09103          	lh	sp,1967(ra) # 114f <_endtext+0x97>
     b54:	012c                	addi	a1,sp,136
     b56:	025e                	slli	tp,tp,0x17
     b58:	0082                	c.slli64	ra
     b5a:	012c                	addi	a1,sp,136
     b5c:	0360                	addi	s0,sp,396
     b5e:	9891                	andi	s1,s1,-28
     b60:	007e                	c.slli	zero,0x1f
     b62:	1000                	addi	s0,sp,32
     b64:	5d04                	lw	s1,56(a0)
     b66:	0000                	unimp
     b68:	0900                	addi	s0,sp,144
     b6a:	005d                	c.nop	23
        polyR[i] = 0;
     b6c:	0000                	unimp
     b6e:	0b79                	addi	s6,s6,30
     b70:	0000                	unimp
     b72:	690a                	flw	fs2,128(sp)
     b74:	0000                	unimp
    for(i = 1; i < N; ++i){
     b76:	2f00                	fld	fs0,24(a4)
     b78:	0900                	addi	s0,sp,144
        f[i] = 0;
     b7a:	005d                	c.nop	23
     b7c:	0000                	unimp
     b7e:	00000b8b          	0xb8b
     b82:	692e                	flw	fs2,200(sp)
     b84:	0000                	unimp
     b86:	0200                	addi	s0,sp,256
        g[i] = 0;
     b88:	3408                	fld	fa0,40(s0)
     b8a:	0900                	addi	s0,sp,144
     b8c:	005d                	c.nop	23
     b8e:	0000                	unimp
     b90:	0b9d                	addi	s7,s7,7
    for (i = N; i < 55; ++i ){
     b92:	0000                	unimp
     b94:	692e                	flw	fs2,200(sp)
        random_keys[i] = f[i];
     b96:	0000                	unimp
     b98:	0200                	addi	s0,sp,256
     b9a:	3408                	fld	fa0,40(s0)
     b9c:	0900                	addi	s0,sp,144
     b9e:	005d                	c.nop	23
     ba0:	0000                	unimp
     ba2:	00000baf          	0xbaf
    for(i = 0; i < N; ++i){
     ba6:	692e                	flw	fs2,200(sp)
        random_keys[i] = f[i];
     ba8:	0000                	unimp
    for(i = 0; i < N; ++i){
     baa:	0200                	addi	s0,sp,256
        random_keys[i] = g[i-N];
     bac:	3408                	fld	fa0,40(s0)
     bae:	0900                	addi	s0,sp,144
     bb0:	005d                	c.nop	23
     bb2:	0000                	unimp
     bb4:	0bc1                	addi	s7,s7,16
    for(i = N; i < (2*N); ++i){
     bb6:	0000                	unimp
     bb8:	692e                	flw	fs2,200(sp)
     bba:	0000                	unimp
        random_keys[i] = fp[i-(2*N)];
     bbc:	0200                	addi	s0,sp,256
     bbe:	3408                	fld	fa0,40(s0)
     bc0:	0900                	addi	s0,sp,144
     bc2:	005d                	c.nop	23
     bc4:	0000                	unimp
    for(i = (2*N); i < (3*N); ++i){
     bc6:	00000bd3          	fadd.s	fs7,ft0,ft0,rne
     bca:	692e                	flw	fs2,200(sp)
        random_keys[i] = fq[i-(3*N)];
     bcc:	0000                	unimp
     bce:	0200                	addi	s0,sp,256
     bd0:	3408                	fld	fa0,40(s0)
     bd2:	0900                	addi	s0,sp,144
     bd4:	005d                	c.nop	23
     bd6:	0000                	unimp
     bd8:	0be5                	addi	s7,s7,25
    for(i = (3*N); i < (4*N); ++i){
     bda:	0000                	unimp
        random_keys[i] = fq[i-(3*N)];
     bdc:	692e                	flw	fs2,200(sp)
    for(i = (3*N); i < (4*N); ++i){
     bde:	0000                	unimp
        fg[i] = fg[i]*p;
     be0:	0200                	addi	s0,sp,256
    for(i = 0; i < (2*N-1); ++i){
     be2:	3508                	fld	fa0,40(a0)
     be4:	2f00                	fld	fs0,24(a4)
        fg[i] = fg[i]*p;
     be6:	01c5                	addi	gp,gp,17
     be8:	0000                	unimp
     bea:	3e01                	jal	6fa <ext_euclid+0x24>
     bec:	0602                	c.slli64	a2
    for(i = 0; i < (2*N-1); ++i){
     bee:	00000b63          	beqz	zero,c04 <generate_keys+0x2e4>
        random_keys[i] = pk[i-(4*N)+(2*N-1)];
     bf2:	0caa                	slli	s9,s9,0xa
     bf4:	0000                	unimp
     bf6:	00c8                	addi	a0,sp,68
     bf8:	0000                	unimp
     bfa:	9c01                	0x9c01
    for(i = (4*N); i < (5*N); ++i){
     bfc:	0d66                	slli	s10,s10,0x19
     bfe:	0000                	unimp
        random_keys[i] = polyR[i-(5*N)];
     c00:	4e30                	lw	a2,88(a2)
     c02:	0100                	addi	s0,sp,128
     c04:	023e                	slli	tp,tp,0xf
     c06:	00005d17          	auipc	s10,0x5
     c0a:	d900                	sw	s0,48(a0)
     c0c:	0001                	nop
    for(i = (5*N); i < (6*N+1); ++i){
     c0e:	3000                	fld	fs0,32(s0)
        random_keys[i] = polyR[i-(5*N)];
     c10:	0070                	addi	a2,sp,12
    for(i = (5*N); i < (6*N+1); ++i){
     c12:	3e01                	jal	722 <ext_euclid+0x4c>
int* ntru_encyrpt(int N, int q, int* message, int* public_key, int* polyR){
     c14:	1e02                	slli	t3,t3,0x20
     c16:	005d                	c.nop	23
     c18:	0000                	unimp
     c1a:	021d                	addi	tp,tp,7
     c1c:	0000                	unimp
     c1e:	7130                	flw	fa2,96(a0)
     c20:	0100                	addi	s0,sp,128
    int random_val[48] = { 1, -1, 0, 1, -1, 1, -1, 0,1, 1, 0, -1, 1, -1, 1, 0,1, 1, 0, -1, 1, -1, 1, 0,1, 1, 0, 1, -1, 1, -1, 0, 1, -1, 0, 1, -1, 1, -1, 0,1, 1, 0, -1, 1, -1, 1, 0};
     c22:	023e                	slli	tp,tp,0xf
     c24:	5d25                	li	s10,-23
     c26:	0000                	unimp
     c28:	5400                	lw	s0,40(s0)
     c2a:	0002                	c.slli64	zero
     c2c:	3100                	fld	fs0,32(a0)
     c2e:	00ae                	slli	ra,ra,0xb
int* ntru_encyrpt(int N, int q, int* message, int* public_key, int* polyR){
     c30:	0000                	unimp
     c32:	3e01                	jal	742 <ext_euclid+0x6c>
     c34:	2d02                	fld	fs10,0(sp)
     c36:	00000b63          	beqz	zero,c4c <ntru_encyrpt+0x38>
    int random_val[48] = { 1, -1, 0, 1, -1, 1, -1, 0,1, 1, 0, -1, 1, -1, 1, 0,1, 1, 0, -1, 1, -1, 1, 0,1, 1, 0, 1, -1, 1, -1, 0, 1, -1, 0, 1, -1, 1, -1, 0,1, 1, 0, -1, 1, -1, 1, 0};
     c3a:	0000028b          	0x28b
    temp = polymult(public_key,N,random_val,48,q,0);
     c3e:	5131                	li	sp,-20
     c40:	0005                	c.nop	1
     c42:	0100                	addi	s0,sp,128
     c44:	023e                	slli	tp,tp,0xf
     c46:	6340                	flw	fs0,4(a4)
     c48:	b700000b          	0xb700000b
     c4c:	0002                	c.slli64	zero
     c4e:	3100                	fld	fs0,32(a0)
    for(i = 0; i < 48; ++i){
     c50:	03d5                	addi	t2,t2,21
     c52:	0000                	unimp
        temp[i] = temp[i] + message[i];
     c54:	3e01                	jal	764 <ext_euclid+0x8e>
     c56:	5402                	lw	s0,32(sp)
     c58:	00000b63          	beqz	zero,c6e <ntru_encyrpt+0x5a>
     c5c:	02ee                	slli	t0,t0,0x1b
     c5e:	0000                	unimp
     c60:	7c31                	lui	s8,0xfffec
     c62:	0006                	c.slli	zero,0x1
     c64:	0100                	addi	s0,sp,128
    for(i = 0; i < 48; ++i){
     c66:	023e                	slli	tp,tp,0xf
     c68:	6366                	flw	ft6,88(sp)
    CT = polydiv(temp,(2*N),polyR,(N+1),q);
     c6a:	0f00000b          	0xf00000b
     c6e:	29000003          	lb	zero,656(zero) # 290 <polymult2+0x4>
     c72:	02b1                	addi	t0,t0,12
     c74:	0000                	unimp
     c76:	4001                	c.li	zero,0
     c78:	0a02                	c.slli64	s4
     c7a:	00000b63          	beqz	zero,c90 <ntru_encyrpt+0x7c>
    for(i = (2*N); i < (3*N); ++i){
     c7e:	612a                	flw	ft2,136(sp)
     c80:	0100                	addi	s0,sp,128
     c82:	0241                	addi	tp,tp,16
     c84:	630a                	flw	ft6,128(sp)
     c86:	4600000b          	0x4600000b
}
     c8a:	2a000003          	lb	zero,672(zero) # 2a0 <polymult2+0x14>
     c8e:	3261                	jal	616 <polydiv+0x21a>
     c90:	0100                	addi	s0,sp,128
     c92:	0242                	slli	tp,tp,0x10
     c94:	630a                	flw	ft6,128(sp)
     c96:	5900000b          	0x5900000b
        CT[i-(2*N)] = CT[i];
     c9a:	2a000003          	lb	zero,672(zero) # 2a0 <polymult2+0x14>
     c9e:	43010063          	beq	sp,a6,10be <_endtext+0x6>
    for(i = (2*N); i < (3*N); ++i){
     ca2:	0a02                	c.slli64	s4
        CT[i-(2*N)] = CT[i];
     ca4:	00000b63          	beqz	zero,cba <ntru_deceypt+0x10>
    for(i = (2*N); i < (3*N); ++i){
     ca8:	0382                	c.slli64	t2
int* ntru_deceypt(int N, int p, int q, int* secret_key_f, int* secret_key_fp, int* Enc_Message, int* polyR){
     caa:	0000                	unimp
     cac:	632a                	flw	ft6,136(sp)
     cae:	0032                	c.slli	zero,0xc
     cb0:	4401                	li	s0,0
    for(i = (2*N); i < ((2*N)+N); ++i){
     cb2:	0a02                	c.slli64	s4
     cb4:	00000b63          	beqz	zero,cca <ntru_deceypt+0x20>
int* ntru_deceypt(int N, int p, int q, int* secret_key_f, int* secret_key_fp, int* Enc_Message, int* polyR){
     cb8:	0395                	addi	t2,t2,5
     cba:	0000                	unimp
     cbc:	692a                	flw	fs2,136(sp)
     cbe:	0100                	addi	s0,sp,128
     cc0:	0245                	addi	tp,tp,17
    a = polymult2(secret_key_f,N,Enc_Message,N,0);
     cc2:	5d09                	li	s10,-30
     cc4:	0000                	unimp
int* ntru_deceypt(int N, int p, int q, int* secret_key_f, int* secret_key_fp, int* Enc_Message, int* polyR){
     cc6:	b300                	fsd	fs0,32(a4)
     cc8:	2b000003          	lb	zero,688(zero) # 2b0 <polymult2+0x24>
    a = polymult2(secret_key_f,N,Enc_Message,N,0);
     ccc:	0ce0                	addi	s0,sp,604
int* ntru_deceypt(int N, int p, int q, int* secret_key_f, int* secret_key_fp, int* Enc_Message, int* polyR){
     cce:	0000                	unimp
     cd0:	16d9                	addi	a3,a3,-10
     cd2:	0000                	unimp
     cd4:	0cf8                	addi	a4,sp,604
     cd6:	0000                	unimp
    a2 = polydiv(a,(2*N),polyR,(N+1),q);
     cd8:	012c                	addi	a1,sp,136
     cda:	035a                	slli	t1,t1,0x16
    a = polymult2(secret_key_f,N,Enc_Message,N,0);
     cdc:	2c5d01f3          	0x2c5d01f3
    a2 = polydiv(a,(2*N),polyR,(N+1),q);
     ce0:	5b01                	li	s6,-32
     ce2:	7802                	flw	fa6,32(sp)
     ce4:	2c00                	fld	fs0,24(s0)
     ce6:	5c01                	li	s8,-32
     ce8:	5f01f303          	0x5f01f303
     cec:	012c                	addi	a1,sp,136
     cee:	025d                	addi	tp,tp,23
     cf0:	0078                	addi	a4,sp,12
    for(i = (2*N); i < ((2*N)+N); ++i){
     cf2:	012c                	addi	a1,sp,136
     cf4:	015e                	slli	sp,sp,0x17
     cf6:	0030                	addi	a2,sp,8
     cf8:	000cf02b          	0xcf02b
        if(a2[i] <= q/2)
     cfc:	c800                	sw	s0,16(s0)
     cfe:	1e000013          	li	zero,480
    for (i = 0; i < N; ++i){
     d02:	000d                	c.nop	3
     d04:	2c00                	fld	fs0,24(s0)
     d06:	5b01                	li	s6,-32
    c = polymult2(secret_key_fp,N,a2,N,0);
     d08:	7902                	flw	fs2,32(sp)
     d0a:	2c00                	fld	fs0,24(s0)
     d0c:	5c01                	li	s8,-32
     d0e:	8402                	jr	s0
     d10:	2c00                	fld	fs0,24(s0)
     d12:	5d01                	li	s10,-32
    c2 = polydiv(c,(2*N),polyR,(N+1),p);
     d14:	8602                	jr	a2
     d16:	2c00                	fld	fs0,24(s0)
     d18:	5e01                	li	t3,-32
     d1a:	8202                	jr	tp
     d1c:	0000                	unimp
     d1e:	000d142b          	0xd142b
    for(i = (2*N); i < ((2*N)+N); ++i){
     d22:	d900                	sw	s0,48(a0)
     d24:	0016                	c.slli	zero,0x5
}
     d26:	4300                	lw	s0,0(a4)
     d28:	000d                	c.nop	3
     d2a:	2c00                	fld	fs0,24(s0)
     d2c:	5a01                	li	s4,-32
     d2e:	8702                	jr	a4
     d30:	2c00                	fld	fs0,24(s0)
     d32:	5b01                	li	s6,-32
     d34:	7802                	flw	fa6,32(sp)
     d36:	2c00                	fld	fs0,24(s0)
     d38:	5d01                	li	s10,-32
     d3a:	7802                	flw	fa6,32(sp)
        a2[i-(2*N)] = a2[i];
     d3c:	2c00                	fld	fs0,24(s0)
     d3e:	5e01                	li	t3,-32
     d40:	3001                	jal	540 <polydiv+0x144>
     d42:	2d00                	fld	fs0,24(a0)
    for(i = (2*N); i < ((2*N)+N); ++i){
     d44:	0d20                	addi	s0,sp,664
     d46:	0000                	unimp
        a2[i-(2*N)] = a2[i];
     d48:	13c8                	addi	a0,sp,484
     d4a:	0000                	unimp
    for(i = (2*N); i < ((2*N)+N); ++i){
     d4c:	012c                	addi	a1,sp,136
        if(a2[i] <= q/2)
     d4e:	0079025b          	0x79025b
     d52:	012c                	addi	a1,sp,136
            a2[i] = (-1)*(q-a2[i]);
     d54:	025c                	addi	a5,sp,260
     d56:	0084                	addi	s1,sp,64
     d58:	012c                	addi	a1,sp,136
    for (i = 0; i < N; ++i){
     d5a:	025d                	addi	tp,tp,23
     d5c:	0086                	slli	ra,ra,0x1
     d5e:	012c                	addi	a1,sp,136
        c2[i-(2*N)] = c2[i];
     d60:	025e                	slli	tp,tp,0x17
     d62:	0085                	addi	ra,ra,1
     d64:	0000                	unimp
     d66:	00063e2f          	0x63e2f
    for(i = (2*N); i < ((2*N)+N); ++i){
     d6a:	0100                	addi	s0,sp,128
        c2[i-(2*N)] = c2[i];
     d6c:	021c                	addi	a5,sp,256
     d6e:	6306                	flw	ft6,64(sp)
    for(i = (2*N); i < ((2*N)+N); ++i){
     d70:	1400000b          	0x1400000b
  jal x0, default_exc_handler
     d74:	000c                	0xc
  mv  x1, x0
     d76:	9600                	0x9600
     d78:	0000                	unimp
  mv  x2, x1
     d7a:	0100                	addi	s0,sp,128
  mv  x3, x1
     d7c:	959c                	0x959c
  mv  x4, x1
     d7e:	000e                	c.slli	zero,0x3
  mv  x5, x1
     d80:	3000                	fld	fs0,32(s0)
  mv  x6, x1
     d82:	004e                	c.slli	zero,0x13
  mv  x7, x1
     d84:	1c01                	addi	s8,s8,-32
  mv  x8, x1
     d86:	1702                	slli	a4,a4,0x20
  mv  x9, x1
     d88:	005d                	c.nop	23
  mv x10, x1
     d8a:	0000                	unimp
  mv x11, x1
     d8c:	0438                	addi	a4,sp,520
  mv x12, x1
     d8e:	0000                	unimp
  mv x13, x1
     d90:	7130                	flw	fa2,96(a0)
  mv x14, x1
     d92:	0100                	addi	s0,sp,128
  mv x15, x1
     d94:	021c                	addi	a5,sp,256
  mv x16, x1
     d96:	5d1e                	lw	s10,228(sp)
  mv x17, x1
     d98:	0000                	unimp
  mv x18, x1
     d9a:	6400                	flw	fs0,8(s0)
  mv x19, x1
     d9c:	0004                	0x4
  mv x20, x1
     d9e:	3100                	fld	fs0,32(a0)
  mv x21, x1
     da0:	0390                	addi	a2,sp,448
  mv x22, x1
     da2:	0000                	unimp
  mv x23, x1
     da4:	1c01                	addi	s8,s8,-32
  mv x24, x1
     da6:	2602                	fld	fa2,0(sp)
  mv x25, x1
     da8:	00000b63          	beqz	zero,dbe <_start>
  mv x27, x1
     dac:	0000049b          	0x49b
  mv x29, x1
     db0:	2631                	jal	10bc <_endtext+0x4>
  mv x30, x1
     db2:	0005                	c.nop	1
  mv x31, x1
     db4:	0100                	addi	s0,sp,128
  la   x2, _stack_start
     db6:	021c                	addi	a5,sp,256
     db8:	6334                	flw	fa3,64(a4)
     dba:	c700000b          	0xc700000b
  la x26, _bss_start
     dbe:	0004                	0x4
     dc0:	3100                	fld	fs0,32(a0)
     dc2:	067c                	addi	a5,sp,780
     dc4:	0000                	unimp
  la x27, _bss_end
     dc6:	1c01                	addi	s8,s8,-32
     dc8:	4502                	lw	a0,0(sp)
     dca:	00000b63          	beqz	zero,de0 <main_entry+0x4>
  bge x26, x27, zero_loop_end
     dce:	04fe                	slli	s1,s1,0x1f
     dd0:	0000                	unimp
  sw x0, 0(x26)
     dd2:	a129                	j	11dc <_endtext+0x124>
     dd4:	0002                	c.slli64	zero
  addi x26, x26, 4
     dd6:	0100                	addi	s0,sp,128
  ble x26, x27, zero_loop
     dd8:	021e                	slli	tp,tp,0x7
     dda:	630a                	flw	ft6,128(sp)
  addi x10, x0, 0
     ddc:	3200000b          	0x3200000b
  addi x11, x0, 0
     de0:	01005443          	fmadd.s	fs0,ft0,fa6,ft0,unknown
  jal x1, main
     de4:	021f 630a 000b      	0xb630a021f
     dea:	0100                	addi	s0,sp,128
     dec:	285a                	fld	fa6,400(sp)
     dee:	0369                	addi	t1,t1,26
     df0:	0000                	unimp
     df2:	2101                	jal	11f2 <_endtext+0x13a>
     df4:	0902                	c.slli64	s2
     df6:	0b69                	addi	s6,s6,26
     df8:	0000                	unimp
     dfa:	7ea09103          	lh	sp,2026(ra)
     dfe:	2026                	fld	ft0,72(sp)
     e00:	0002                	c.slli64	zero
     e02:	0100                	addi	s0,sp,128
     e04:	0222                	slli	tp,tp,0x8
     e06:	630a                	flw	ft6,128(sp)
     e08:	3500000b          	0x3500000b
     e0c:	0005                	c.nop	1
     e0e:	2a00                	fld	fs0,16(a2)
     e10:	0069                	c.nop	26
     e12:	2301                	jal	1312 <_bss_start+0xd6>
     e14:	0902                	c.slli64	s2
     e16:	005d                	c.nop	23
     e18:	0000                	unimp
     e1a:	0548                	addi	a0,sp,644
     e1c:	0000                	unimp
     e1e:	000c3c2b          	0xc3c2b
     e22:	8100                	0x8100
     e24:	001a                	c.slli	zero,0x6
     e26:	4100                	lw	s0,0(a0)
     e28:	000e                	c.slli	zero,0x3
     e2a:	2c00                	fld	fs0,24(s0)
     e2c:	5a01                	li	s4,-32
     e2e:	7202                	flw	ft4,32(sp)
     e30:	2c00                	fld	fs0,24(s0)
     e32:	5b01                	li	s6,-32
     e34:	0305                	addi	t1,t1,1
     e36:	10b8                	addi	a4,sp,104
     e38:	0000                	unimp
     e3a:	012c                	addi	a1,sp,136
     e3c:	025c                	addi	a5,sp,260
     e3e:	c008                	sw	a0,0(s0)
     e40:	2b00                	fld	fs0,16(a4)
     e42:	0c4e                	slli	s8,s8,0x13
     e44:	0000                	unimp
     e46:	17f9                	addi	a5,a5,-2
     e48:	0000                	unimp
     e4a:	0e72                	slli	t3,t3,0x1c
     e4c:	0000                	unimp
     e4e:	012c                	addi	a1,sp,136
     e50:	025a                	slli	tp,tp,0x16
     e52:	0084                	addi	s1,sp,64
     e54:	012c                	addi	a1,sp,136
     e56:	0078025b          	0x78025b
     e5a:	012c                	addi	a1,sp,136
     e5c:	025c                	addi	a5,sp,260
     e5e:	0072                	c.slli	zero,0x1c
     e60:	012c                	addi	a1,sp,136
     e62:	025d                	addi	tp,tp,23
     e64:	3008                	fld	fa0,32(s0)
     e66:	012c                	addi	a1,sp,136
     e68:	025e                	slli	tp,tp,0x17
     e6a:	0082                	c.slli64	ra
     e6c:	012c                	addi	a1,sp,136
     e6e:	015f 0030 7c2d      	0x7c2d0030015f
     e74:	000c                	0xc
     e76:	c800                	sw	s0,16(s0)
     e78:	2c000013          	li	zero,704
     e7c:	5b01                	li	s6,-32
     e7e:	7902                	flw	fs2,32(sp)
     e80:	2c00                	fld	fs0,24(s0)
     e82:	5c01                	li	s8,-32
     e84:	8302                	jr	t1
     e86:	2c00                	fld	fs0,24(s0)
     e88:	5d01                	li	s10,-32
     e8a:	7802                	flw	fa6,32(sp)
     e8c:	2c01                	jal	109c <main+0x12e>
     e8e:	5e01                	li	t3,-32
     e90:	8202                	jr	tp
     e92:	0000                	unimp
     e94:	2f00                	fld	fs0,24(a4)
     e96:	0000030b          	0x30b
     e9a:	c301                	beqz	a4,e9a <memcpy+0xb2>
     e9c:	0601                	addi	a2,a2,0
     e9e:	00000b63          	beqz	zero,eb4 <memcpy+0xcc>
     ea2:	0920                	addi	s0,sp,152
     ea4:	0000                	unimp
     ea6:	02f4                	addi	a3,sp,332
     ea8:	0000                	unimp
     eaa:	9c01                	0x9c01
     eac:	1045                	c.nop	-15
     eae:	0000                	unimp
     eb0:	4e30                	lw	a2,88(a2)
     eb2:	0100                	addi	s0,sp,128
     eb4:	5d1801c3          	0x5d1801c3
     eb8:	0000                	unimp
     eba:	8a00                	0x8a00
     ebc:	0005                	c.nop	1
     ebe:	3000                	fld	fs0,32(s0)
     ec0:	0070                	addi	a2,sp,12
     ec2:	c301                	beqz	a4,ec2 <memcpy+0xda>
     ec4:	1f01                	addi	t5,t5,-32
     ec6:	005d                	c.nop	23
     ec8:	0000                	unimp
     eca:	000005db          	0x5db
     ece:	7130                	flw	fa2,96(a0)
     ed0:	0100                	addi	s0,sp,128
     ed2:	5d2601c3          	0x5d2601c3
     ed6:	0000                	unimp
     ed8:	1200                	addi	s0,sp,288
     eda:	0006                	c.slli	zero,0x1
     edc:	3200                	fld	fs0,32(a2)
     ede:	0066                	c.slli	zero,0x19
     ee0:	c601                	beqz	a2,ee8 <memset+0x22>
     ee2:	0901                	addi	s2,s2,0
     ee4:	1045                	c.nop	-15
     ee6:	0000                	unimp
     ee8:	7c989103          	lh	sp,1993(a7)
     eec:	6732                	flw	fa4,12(sp)
     eee:	0100                	addi	s0,sp,128
     ef0:	450901c7          	0x450901c7
     ef4:	0010                	0x10
     ef6:	0300                	addi	s0,sp,384
     ef8:	f491                	bnez	s1,e04 <memcpy+0x1c>
     efa:	2a7d                	jal	10b8 <_endtext>
     efc:	7066                	flw	ft0,120(sp)
     efe:	0100                	addi	s0,sp,128
     f00:	01c9                	addi	gp,gp,18
     f02:	630a                	flw	ft6,128(sp)
     f04:	4900000b          	0x4900000b
     f08:	0006                	c.slli	zero,0x1
     f0a:	2a00                	fld	fs0,16(a2)
     f0c:	7166                	flw	ft2,120(sp)
     f0e:	0100                	addi	s0,sp,128
     f10:	01ca                	slli	gp,gp,0x12
     f12:	630a                	flw	ft6,128(sp)
     f14:	5c00000b          	0x5c00000b
     f18:	0006                	c.slli	zero,0x1
     f1a:	2a00                	fld	fs0,16(a2)
     f1c:	6766                	flw	fa4,88(sp)
     f1e:	0100                	addi	s0,sp,128
     f20:	630a01cb          	fnmsub.d	ft3,fs4,fa6,fa2,rne
     f24:	7a00000b          	0x7a00000b
     f28:	0006                	c.slli	zero,0x1
     f2a:	2a00                	fld	fs0,16(a2)
     f2c:	6b70                	flw	fa2,84(a4)
     f2e:	0100                	addi	s0,sp,128
     f30:	01cc                	addi	a1,sp,196
     f32:	630a                	flw	ft6,128(sp)
     f34:	9800000b          	0x9800000b
     f38:	0006                	c.slli	zero,0x1
     f3a:	2600                	fld	fs0,8(a2)
     f3c:	067c                	addi	a5,sp,780
     f3e:	0000                	unimp
     f40:	cd01                	beqz	a0,f58 <memset+0x92>
     f42:	0901                	addi	s2,s2,0
     f44:	1055                	c.nop	-11
     f46:	0000                	unimp
     f48:	06b6                	slli	a3,a3,0xd
     f4a:	0000                	unimp
     f4c:	692a                	flw	fs2,136(sp)
     f4e:	0100                	addi	s0,sp,128
     f50:	01ce                	slli	gp,gp,0x13
     f52:	5d09                	li	s10,-30
     f54:	0000                	unimp
     f56:	1900                	addi	s0,sp,176
     f58:	26000007          	0x26000007
     f5c:	03a1                	addi	t2,t2,8
     f5e:	0000                	unimp
     f60:	cf01                	beqz	a4,f78 <main+0xa>
     f62:	0a01                	addi	s4,s4,0
     f64:	00000b63          	beqz	zero,f7a <main+0xc>
     f68:	0855                	addi	a6,a6,21
     f6a:	0000                	unimp
     f6c:	00006933          	or	s2,zero,zero
int main(){
     f70:	6d00                	flw	fs0,24(a0)
    int message[48] = {1, 1, 2, 1, 1, 1, 1, 2,1, 1, 0, 1, 1, 2, 1, 0,1, 2, 0, 1, 1, 1, 1, 0,1, 1, 0, 2, 1, 2, 1, 0, 1, 1, 2, 1, 1, 1, 1, 2, 1, 1, 2, 1, 1, 1, 1, 2};
     f72:	0008                	0x8
     f74:	2b00                	fld	fs0,16(a4)
     f76:	0966                	slli	s2,s2,0x19
     f78:	0000                	unimp
     f7a:	1a8c                	addi	a1,sp,368
     f7c:	0000                	unimp
     f7e:	0f95                	addi	t6,t6,5
int main(){
     f80:	0000                	unimp
     f82:	012c                	addi	a1,sp,136
     f84:	035a                	slli	t1,t1,0x16
     f86:	a478                	fsd	fa4,200(s0)
     f88:	2c7c                	fld	fa5,216(s0)
     f8a:	5b01                	li	s6,-32
     f8c:	3001                	jal	78c <ext_euclid+0xb6>
     f8e:	012c                	addi	a1,sp,136
    resultkon[0] = 0xaaaaaaa0;
     f90:	025c                	addi	a5,sp,260
     f92:	d008                	sw	a0,32(s0)
    int message[48] = {1, 1, 2, 1, 1, 1, 1, 2,1, 1, 0, 1, 1, 2, 1, 0,1, 2, 0, 1, 1, 1, 1, 0,1, 1, 0, 2, 1, 2, 1, 0, 1, 1, 2, 1, 1, 1, 1, 2, 1, 1, 2, 1, 1, 1, 1, 2};
     f94:	2b00                	fld	fs0,16(a4)
    resultkon[0] = 0xaaaaaaa0;
     f96:	09e6                	slli	s3,s3,0x19
     f98:	0000                	unimp
     f9a:	1a8c                	addi	a1,sp,368
     f9c:	0000                	unimp
     f9e:	0fb5                	addi	t6,t6,13
     fa0:	0000                	unimp
    keys = generate_keys(N, p, q);
     fa2:	012c                	addi	a1,sp,136
     fa4:	035a                	slli	t1,t1,0x16
     fa6:	f878                	fsw	fa4,116(s0)
     fa8:	2c7d                	jal	1266 <_bss_start+0x2a>
     faa:	5b01                	li	s6,-32
    resultkon[0] = 0xaaaaaaa0;
     fac:	3001                	jal	7ac <ext_euclid+0xd6>
    resultkon[0] = 0xaaaaaaa1;
     fae:	012c                	addi	a1,sp,136
     fb0:	025c                	addi	a5,sp,260
    keys = generate_keys(N, p, q);
     fb2:	d808                	sw	a0,48(s0)
    resultkon[0] = 0xaaaaaaa1;
     fb4:	2b00                	fld	fs0,16(a4)
     fb6:	0aae                	slli	s5,s5,0xb
    for(i = 0; i < N; ++i){
     fb8:	0000                	unimp
     fba:	1068                	addi	a0,sp,44
        secret_key_f[i] = keys[i];
     fbc:	0000                	unimp
     fbe:	0fdc                	addi	a5,sp,980
     fc0:	0000                	unimp
     fc2:	012c                	addi	a1,sp,136
     fc4:	025a                	slli	tp,tp,0x16
     fc6:	0072                	c.slli	zero,0x1c
    for(i = 0; i < N; ++i){
     fc8:	012c                	addi	a1,sp,136
     fca:	9878035b          	0x9878035b
    for(i = N; i < (2*N); ++i){
     fce:	2c7c                	fld	fa5,216(s0)
     fd0:	5c01                	li	s8,-32
     fd2:	8502                	jr	a0
     fd4:	2c00                	fld	fs0,24(s0)
     fd6:	5d01                	li	s10,-32
     fd8:	8702                	jr	a4
        secret_key_fp[i-(2*N)] = keys[i];
     fda:	0000                	unimp
     fdc:	000ac82b          	0xac82b
     fe0:	6800                	flw	fs0,16(s0)
     fe2:	0010                	0x10
    for(i = (2*N); i < (3*N); ++i){
     fe4:	0300                	addi	s0,sp,384
     fe6:	0010                	0x10
    for(i = (3*N); i < (4*N); ++i){
     fe8:	2c00                	fld	fs0,24(s0)
     fea:	5a01                	li	s4,-32
     fec:	7202                	flw	ft4,32(sp)
     fee:	2c00                	fld	fs0,24(s0)
     ff0:	5b01                	li	s6,-32
     ff2:	7c987803          	0x7c987803
        public_key[i-(4*N)] = keys[i];
     ff6:	012c                	addi	a1,sp,136
     ff8:	025c                	addi	a5,sp,260
     ffa:	0085                	addi	ra,ra,1
     ffc:	012c                	addi	a1,sp,136
    for(i = (4*N); i < (5*N); ++i){
     ffe:	025d                	addi	tp,tp,23
    1000:	0086                	slli	ra,ra,0x1
    1002:	2b00                	fld	fs0,16(a4)
    1004:	0ae8                	addi	a0,sp,348
    1006:	0000                	unimp
    1008:	16d9                	addi	a3,a3,-10
        ring_poly[i-(5*N)] = keys[i];
    100a:	0000                	unimp
    100c:	1028                	addi	a0,sp,40
    100e:	0000                	unimp
    1010:	012c                	addi	a1,sp,136
    1012:	0082025b          	0x82025b
    for(i = (5*N); i < (6*N+1); ++i){
    1016:	012c                	addi	a1,sp,136
    resultkon[0] = 0xbbbbbbb0;
    1018:	025c                	addi	a5,sp,260
    101a:	0089                	addi	ra,ra,2
    101c:	012c                	addi	a1,sp,136
    101e:	025d                	addi	tp,tp,23
    Enc_Message = ntru_encyrpt(N, q, message, public_key, ring_poly);
    1020:	0082                	c.slli64	ra
    1022:	012c                	addi	a1,sp,136
    1024:	015e                	slli	sp,sp,0x17
    1026:	0030                	addi	a2,sp,8
    resultkon[0] = 0xbbbbbbb1;
    1028:	fc2d                	bnez	s0,fa2 <main+0x34>
    102a:	000a                	c.slli	zero,0x2
    Enc_Message = ntru_encyrpt(N, q, message, public_key, ring_poly);
    102c:	c800                	sw	s0,16(s0)
    102e:	2c000013          	li	zero,704
    1032:	5c01                	li	s8,-32
    resultkon[0] = 0xbbbbbbb1;
    1034:	7202                	flw	ft4,32(sp)
    resultkon[0] = 0xccccccc0;
    1036:	2c00                	fld	fs0,24(s0)
    1038:	5d01                	li	s10,-32
    103a:	8502                	jr	a0
    103c:	2c00                	fld	fs0,24(s0)
    Enc_Message = ntru_encyrpt(N, q, message, public_key, ring_poly);
    103e:	5e01                	li	t3,-32
    resultkon[0] = 0xccccccc0;
    1040:	8602                	jr	a2
    Dec_Message = ntru_deceypt(N, p, q, secret_key_f, secret_key_fp, Enc_Message, ring_poly);
    1042:	0000                	unimp
    1044:	0900                	addi	s0,sp,144
    1046:	005d                	c.nop	23
    1048:	0000                	unimp
    104a:	1055                	c.nop	-11
    104c:	0000                	unimp
    104e:	690a                	flw	fs2,128(sp)
    1050:	0000                	unimp
    1052:	3600                	fld	fs0,40(a2)
    1054:	0900                	addi	s0,sp,144
    resultkon[0] = 0xccccccc1;	
    1056:	005d                	c.nop	23
    1058:	0000                	unimp
            resultkon[0] = 0xDEDEDEDE;
    105a:	1068                	addi	a0,sp,44
    105c:	0000                	unimp
    resultkon[0] = 0xccccccc1;	
    105e:	6934                	flw	fa3,80(a0)
    1060:	0000                	unimp
            resultkon[0] = 0xDEDEDEDE;
    1062:	6c00                	flw	fs0,24(s0)
    1064:	0000000f          	fence	unknown,unknown
    for(i = 0; i < 32; ++i){
    1068:	0003482f          	0x3482f
        if(!(message[i] == Dec_Message[i])){
    106c:	0100                	addi	s0,sp,128
    106e:	6306014b          	fnmsub.d	ft2,fa2,fa6,fa2,rne
    1072:	d600000b          	0xd600000b
    1076:	0006                	c.slli	zero,0x1
    1078:	4a00                	lw	s0,16(a2)
            resultkon[0] = 0xBABABABA;
    107a:	0002                	c.slli64	zero
    107c:	0100                	addi	s0,sp,128
    107e:	439c                	lw	a5,0(a5)
    1080:	31000013          	li	zero,784
}
    1084:	067c                	addi	a5,sp,780
    1086:	0000                	unimp
    1088:	4b01                	li	s6,0
    108a:	1601                	addi	a2,a2,-32
    108c:	00000b63          	beqz	zero,10a2 <main+0x134>
    1090:	000008b3          	add	a7,zero,zero
    1094:	8831                	andi	s0,s0,12
    1096:	0001                	nop
    1098:	0100                	addi	s0,sp,128
    109a:	6322014b          	fnmsub.d	ft2,ft4,fs2,fa2,rne
    for(i = 0; i < 32; ++i){
    109e:	ed00000b          	0xed00000b
    10a2:	0008                	0x8
    10a4:	3100                	fld	fs0,32(a0)
    10a6:	0012                	c.slli	zero,0x4
    10a8:	0000                	unimp
    10aa:	4b01                	li	s6,0
    10ac:	2d01                	jal	16bc <product2+0x228>
    10ae:	005d                	c.nop	23
    10b0:	0000                	unimp
    10b2:	00000927          	0x927
    10b6:	6d30                	flw	fa2,88(a0)
    10b8:	0100646f          	jal	s0,70c8 <_stack_len+0x30c8>
    10bc:	5d37014b          	0x5d37014b
    10c0:	0000                	unimp
    10c2:	5e00                	lw	s0,56(a2)
    10c4:	0009                	c.nop	2
    10c6:	2600                	fld	fs0,8(a2)
    10c8:	028a                	slli	t0,t0,0x2
    10ca:	0000                	unimp
    10cc:	4e01                	li	t3,0
    10ce:	0a01                	addi	s4,s4,0
    10d0:	00000b63          	beqz	zero,10e6 <_endtext+0x2e>
    10d4:	0995                	addi	s3,s3,5
    10d6:	0000                	unimp
    10d8:	4e2a                	lw	t3,136(sp)
    10da:	0100                	addi	s0,sp,128
    10dc:	5d09014f          	0x5d09014f
    10e0:	0000                	unimp
    10e2:	ad00                	fsd	fs0,24(a0)
    10e4:	0009                	c.nop	2
    10e6:	2a00                	fld	fs0,16(a2)
    10e8:	0069                	c.nop	26
    10ea:	4f01                	li	t5,0
    10ec:	0c01                	addi	s8,s8,0
    10ee:	005d                	c.nop	23
    10f0:	0000                	unimp
    10f2:	09e8                	addi	a0,sp,220
    10f4:	0000                	unimp
    10f6:	6a2a                	flw	fs4,136(sp)
    10f8:	0100                	addi	s0,sp,128
    10fa:	5d0f014f          	0x5d0f014f
    10fe:	0000                	unimp
    1100:	9100                	0x9100
    1102:	2600000b          	0x2600000b
    1106:	000004f3          	0x4f3
    110a:	5001                	c.li	zero,-32
    110c:	0901                	addi	s2,s2,0
    110e:	00001343          	fmadd.s	ft6,ft0,ft0,ft0,rtz
    1112:	00000baf          	0xbaf
    1116:	9026                	c.add	zero,s1
    1118:	0005                	c.nop	1
    111a:	0100                	addi	s0,sp,128
    111c:	0151                	addi	sp,sp,20
    111e:	5609                	li	a2,-30
    1120:	cf000013          	li	zero,-784
    1124:	2a00000b          	0x2a00000b
    1128:	6972                	flw	fs2,28(sp)
    112a:	0100                	addi	s0,sp,128
    112c:	0152                	slli	sp,sp,0x14
    112e:	6909                	lui	s2,0x2
    1130:	ef000013          	li	zero,-272
    1134:	2600000b          	0x2600000b
    1138:	0410                	addi	a2,sp,512
    113a:	0000                	unimp
    113c:	5401                	li	s0,-32
    113e:	0901                	addi	s2,s2,0
    1140:	137c                	addi	a5,sp,428
    1142:	0000                	unimp
    1144:	00000c0f          	0xc0f
    1148:	742a                	flw	fs0,168(sp)
    114a:	0069                	c.nop	26
    114c:	5501                	li	a0,-32
    114e:	0901                	addi	s2,s2,0
    1150:	0000138f          	0x138f
    1154:	0c45                	addi	s8,s8,17
    1156:	0000                	unimp
    1158:	2826                	fld	fa6,72(sp)
    115a:	0004                	0x4
    115c:	0100                	addi	s0,sp,128
    115e:	0156                	slli	sp,sp,0x15
    1160:	a209                	j	1262 <_bss_start+0x26>
    1162:	65000013          	li	zero,1616
    1166:	000c                	0xc
    1168:	2600                	fld	fs0,8(a2)
    116a:	0220                	addi	s0,sp,264
    116c:	0000                	unimp
    116e:	5701                	li	a4,-32
    1170:	0901                	addi	s2,s2,0
    1172:	13b5                	addi	t2,t2,-19
    1174:	0000                	unimp
    1176:	00000c9b          	0xc9b
    117a:	722a                	flw	ft4,168(sp)
    117c:	7365                	lui	t1,0xffff9
    117e:	0100                	addi	s0,sp,128
    1180:	0158                	addi	a4,sp,132
    1182:	630a                	flw	ft6,128(sp)
    1184:	f500000b          	0xf500000b
    1188:	000c                	0xc
    118a:	2600                	fld	fs0,8(a2)
    118c:	0000014f          	fnmadd.s	ft2,ft0,ft0,ft0,rne
    1190:	5901                	li	s2,-32
    1192:	0a01                	addi	s4,s4,0
    1194:	00000b63          	beqz	zero,11aa <_endtext+0xf2>
    1198:	00000d13          	li	s10,0
    119c:	5426                	lw	s0,104(sp)
    119e:	0001                	nop
    11a0:	0100                	addi	s0,sp,128
    11a2:	015a                	slli	sp,sp,0x16
    11a4:	630a                	flw	ft6,128(sp)
    11a6:	3100000b          	0x3100000b
    11aa:	000d                	c.nop	3
    11ac:	2600                	fld	fs0,8(a2)
    11ae:	03e1                	addi	t2,t2,24
    11b0:	0000                	unimp
    11b2:	5b01                	li	s6,-32
    11b4:	0901                	addi	s2,s2,0
    11b6:	005d                	c.nop	23
    11b8:	0000                	unimp
    11ba:	00000d4f          	fnmadd.s	fs10,ft0,ft0,ft0,rne
    11be:	00006933          	or	s2,zero,zero
    11c2:	a800                	fsd	fs0,16(s0)
    11c4:	000d                	c.nop	3
    11c6:	3300                	fld	fs0,32(a4)
    11c8:	0069                	c.nop	26
    11ca:	0000                	unimp
    11cc:	00000de3          	beqz	zero,19e6 <ti_2+0xa2>
    11d0:	00006933          	or	s2,zero,zero
    11d4:	1e00                	addi	s0,sp,816
    11d6:	000e                	c.slli	zero,0x3
    11d8:	3300                	fld	fs0,32(a4)
    11da:	0069                	c.nop	26
    11dc:	0000                	unimp
    11de:	0e59                	addi	t3,t3,22
    11e0:	0000                	unimp
    11e2:	00006933          	or	s2,zero,zero
    11e6:	9400                	0x9400
    11e8:	000e                	c.slli	zero,0x3
    11ea:	3300                	fld	fs0,32(a4)
    11ec:	0069                	c.nop	26
    11ee:	0000                	unimp
    11f0:	00000ecf          	fnmadd.s	ft9,ft0,ft0,ft0,rne
    11f4:	00006933          	or	s2,zero,zero
    11f8:	0a00                	addi	s0,sp,272
    11fa:	2b00000f          	0x2b00000f
    11fe:	075c                	addi	a5,sp,900
    1200:	0000                	unimp
    1202:	000019bf 0000121d 	0x121d000019bf
    120a:	012c                	addi	a1,sp,136
    120c:	025a                	slli	tp,tp,0x16
    120e:	012c0083          	lb	ra,18(s8) # fffec012 <_stack_start+0xfffdc012>
    1212:	0079025b          	0x79025b
    1216:	012c                	addi	a1,sp,136
    1218:	025c                	addi	a5,sp,260
    121a:	2b00008b          	0x2b00008b
    121e:	0764                	addi	s1,sp,908
    1220:	0000                	unimp
    1222:	000019bf 0000123d 	0x123d000019bf
    122a:	012c                	addi	a1,sp,136
    122c:	025a                	slli	tp,tp,0x16
    122e:	0085                	addi	ra,ra,1
    1230:	012c                	addi	a1,sp,136
    1232:	0079025b          	0x79025b
    1236:	012c                	addi	a1,sp,136
    1238:	025c                	addi	a5,sp,260
    123a:	2b00008b          	0x2b00008b
    123e:	0770                	addi	a2,sp,908
    1240:	0000                	unimp
    1242:	13c8                	addi	a0,sp,484
    1244:	0000                	unimp
    1246:	1269                	addi	tp,tp,-6
    1248:	0000                	unimp
    124a:	012c                	addi	a1,sp,136
    124c:	025a                	slli	tp,tp,0x16
    124e:	012c0083          	lb	ra,18(s8)
    1252:	008b025b          	0x8b025b
    1256:	012c                	addi	a1,sp,136
    1258:	025c                	addi	a5,sp,260
    125a:	0085                	addi	ra,ra,1
    125c:	012c                	addi	a1,sp,136
    125e:	025d                	addi	tp,tp,23
    1260:	012c008b          	0x12c008b
    1264:	025e                	slli	tp,tp,0x17
    1266:	0079                	c.nop	30
    1268:	2b00                	fld	fs0,16(a4)
    126a:	078c                	addi	a1,sp,960
    126c:	0000                	unimp
    126e:	000019bf 00001289 	0x1289000019bf
    1276:	012c                	addi	a1,sp,136
    1278:	025a                	slli	tp,tp,0x16
    127a:	0072                	c.slli	zero,0x1c
    127c:	012c                	addi	a1,sp,136
    127e:	0079025b          	0x79025b
    1282:	012c                	addi	a1,sp,136
    1284:	025c                	addi	a5,sp,260
    1286:	2b00008b          	0x2b00008b
    128a:	0798                	addi	a4,sp,960
    128c:	0000                	unimp
    128e:	13c8                	addi	a0,sp,484
    1290:	0000                	unimp
    1292:	12b5                	addi	t0,t0,-19
    1294:	0000                	unimp
    1296:	012c                	addi	a1,sp,136
    1298:	025a                	slli	tp,tp,0x16
    129a:	0072                	c.slli	zero,0x1c
    129c:	012c                	addi	a1,sp,136
    129e:	008b025b          	0x8b025b
    12a2:	012c                	addi	a1,sp,136
    12a4:	025c                	addi	a5,sp,260
    12a6:	0085                	addi	ra,ra,1
    12a8:	012c                	addi	a1,sp,136
    12aa:	025d                	addi	tp,tp,23
    12ac:	012c008b          	0x12c008b
    12b0:	025e                	slli	tp,tp,0x17
    12b2:	0079                	c.nop	30
    12b4:	2b00                	fld	fs0,16(a4)
    12b6:	07a6                	slli	a5,a5,0x9
    12b8:	0000                	unimp
    12ba:	000019bf 000012d5 	0x12d5000019bf
    12c2:	012c                	addi	a1,sp,136
    12c4:	025a                	slli	tp,tp,0x16
    12c6:	012c0087          	0x12c0087
    12ca:	0079025b          	0x79025b
    12ce:	012c                	addi	a1,sp,136
    12d0:	025c                	addi	a5,sp,260
    12d2:	2b00008b          	0x2b00008b
    12d6:	07b4                	addi	a3,sp,968
    12d8:	0000                	unimp
    12da:	17f9                	addi	a5,a5,-2
    12dc:	0000                	unimp
    12de:	1306                	slli	t1,t1,0x21
    12e0:	0000                	unimp
    12e2:	012c                	addi	a1,sp,136
    12e4:	025a                	slli	tp,tp,0x16
    12e6:	012c0087          	0x12c0087
    12ea:	008b025b          	0x8b025b
    12ee:	012c                	addi	a1,sp,136
    12f0:	025c                	addi	a5,sp,260
    12f2:	0086                	slli	ra,ra,0x1
    12f4:	012c                	addi	a1,sp,136
    12f6:	025d                	addi	tp,tp,23
    12f8:	012c008b          	0x12c008b
    12fc:	025e                	slli	tp,tp,0x17
    12fe:	0079                	c.nop	30
    1300:	012c                	addi	a1,sp,136
    1302:	015f 0030 c22b      	0xc22b0030015f
    1308:	bf000007          	0xbf000007
    130c:	0019                	c.nop	6
    130e:	2600                	fld	fs0,8(a2)
    1310:	2c000013          	li	zero,704
    1314:	5a01                	li	s4,-32
    1316:	7202                	flw	ft4,32(sp)
    1318:	2c00                	fld	fs0,24(s0)
    131a:	5b01                	li	s6,-32
    131c:	7902                	flw	fs2,32(sp)
    131e:	2c00                	fld	fs0,24(s0)
    1320:	5c01                	li	s8,-32
    1322:	8b02                	jr	s6
    1324:	0000                	unimp
    1326:	d22d                	beqz	a2,1288 <_bss_start+0x4c>
    1328:	bf000007          	0xbf000007
    132c:	0019                	c.nop	6
    132e:	2c00                	fld	fs0,24(s0)
    1330:	5a01                	li	s4,-32
    1332:	8902                	jr	s2
    1334:	2c00                	fld	fs0,24(s0)
    1336:	5b01                	li	s6,-32
    1338:	7902                	flw	fs2,32(sp)
    133a:	2c00                	fld	fs0,24(s0)
    133c:	5c01                	li	s8,-32
    133e:	8b02                	jr	s6
    1340:	0000                	unimp
    1342:	0900                	addi	s0,sp,144
    1344:	005d                	c.nop	23
    1346:	0000                	unimp
    1348:	1356                	slli	t1,t1,0x35
    134a:	0000                	unimp
    134c:	6934                	flw	fa3,80(a0)
    134e:	0000                	unimp
    1350:	be00                	fsd	fs0,56(a2)
    1352:	0011                	c.nop	4
    1354:	0000                	unimp
    1356:	5d09                	li	s10,-30
    1358:	0000                	unimp
    135a:	6900                	flw	fs0,16(a0)
    135c:	34000013          	li	zero,832
    1360:	0069                	c.nop	26
    1362:	0000                	unimp
    1364:	000011c7          	fmsub.s	ft3,ft0,ft0,ft0,rtz
    1368:	0900                	addi	s0,sp,144
    136a:	005d                	c.nop	23
    136c:	0000                	unimp
    136e:	137c                	addi	a5,sp,428
    1370:	0000                	unimp
    1372:	6934                	flw	fa3,80(a0)
    1374:	0000                	unimp
    1376:	d000                	sw	s0,32(s0)
    1378:	0011                	c.nop	4
    137a:	0000                	unimp
    137c:	5d09                	li	s10,-30
    137e:	0000                	unimp
    1380:	8f00                	0x8f00
    1382:	34000013          	li	zero,832
    1386:	0069                	c.nop	26
    1388:	0000                	unimp
    138a:	11d9                	addi	gp,gp,-10
    138c:	0000                	unimp
    138e:	0900                	addi	s0,sp,144
    1390:	005d                	c.nop	23
    1392:	0000                	unimp
    1394:	13a2                	slli	t2,t2,0x28
    1396:	0000                	unimp
    1398:	6934                	flw	fa3,80(a0)
    139a:	0000                	unimp
    139c:	e200                	fsw	fs0,0(a2)
    139e:	0011                	c.nop	4
    13a0:	0000                	unimp
    13a2:	5d09                	li	s10,-30
    13a4:	0000                	unimp
    13a6:	b500                	fsd	fs0,40(a0)
    13a8:	34000013          	li	zero,832
    13ac:	0069                	c.nop	26
    13ae:	0000                	unimp
    13b0:	000011eb          	0x11eb
    13b4:	0900                	addi	s0,sp,144
    13b6:	005d                	c.nop	23
    13b8:	0000                	unimp
    13ba:	13c8                	addi	a0,sp,484
    13bc:	0000                	unimp
    13be:	6934                	flw	fa3,80(a0)
    13c0:	0000                	unimp
    13c2:	f400                	fsw	fs0,40(s0)
    13c4:	0011                	c.nop	4
    13c6:	0000                	unimp
    13c8:	8035                	srli	s0,s0,0xd
    13ca:	0001                	nop
    13cc:	0100                	addi	s0,sp,128
    13ce:	06a9                	addi	a3,a3,10
    13d0:	00000b63          	beqz	zero,13e6 <_bss_start+0x1aa>
    13d4:	03fc                	addi	a5,sp,460
    13d6:	0000                	unimp
    13d8:	02da                	slli	t0,t0,0x16
    13da:	0000                	unimp
    13dc:	9c01                	0x9c01
    13de:	168d                	addi	a3,a3,-29
    13e0:	0000                	unimp
    13e2:	6e36                	flw	ft8,76(sp)
    13e4:	6d75                	lui	s10,0x1d
    13e6:	0100                	addi	s0,sp,128
    13e8:	13a9                	addi	t2,t2,-22
    13ea:	00000b63          	beqz	zero,1400 <_bss_start+0x1c4>
    13ee:	0f45                	addi	t5,t5,17
    13f0:	0000                	unimp
    13f2:	0000fc37          	lui	s8,0xf
    13f6:	0100                	addi	s0,sp,128
    13f8:	1ca9                	addi	s9,s9,-22
    13fa:	005d                	c.nop	23
    13fc:	0000                	unimp
    13fe:	0f98                	addi	a4,sp,976
    1400:	0000                	unimp
    1402:	00065e37          	lui	t3,0x65
    1406:	0100                	addi	s0,sp,128
    1408:	28a9                	jal	1462 <_bss_start+0x226>
    140a:	00000b63          	beqz	zero,1420 <_bss_start+0x1e4>
    140e:	1015                	c.nop	-27
    1410:	0000                	unimp
    1412:	00068237          	lui	tp,0x68
    1416:	0100                	addi	s0,sp,128
    1418:	33a9                	jal	1162 <_endtext+0xaa>
    141a:	005d                	c.nop	23
    141c:	0000                	unimp
    141e:	0000107b          	0x107b
    1422:	6d36                	flw	fs10,76(sp)
    1424:	0100646f          	jal	s0,7434 <_stack_len+0x3434>
    1428:	3fa9                	jal	1382 <_bss_start+0x146>
    142a:	005d                	c.nop	23
    142c:	0000                	unimp
    142e:	10b2                	slli	ra,ra,0x2c
    1430:	0000                	unimp
    1432:	7538                	flw	fa4,104(a0)
    1434:	0100                	addi	s0,sp,128
    1436:	09ac                	addi	a1,sp,216
    1438:	005d                	c.nop	23
    143a:	0000                	unimp
    143c:	10e9                	addi	ra,ra,-6
    143e:	0000                	unimp
    1440:	6438                	flw	fa4,72(s0)
    1442:	0100                	addi	s0,sp,128
    1444:	0bac                	addi	a1,sp,472
    1446:	005d                	c.nop	23
    1448:	0000                	unimp
    144a:	1112                	slli	sp,sp,0x24
    144c:	0000                	unimp
    144e:	6439                	lui	s0,0xe
    1450:	0032                	c.slli	zero,0xc
    1452:	ac01                	j	1662 <product2+0x1ce>
    1454:	5d0d                	li	s10,-29
    1456:	0000                	unimp
    1458:	3800                	fld	fs0,48(s0)
    145a:	0069                	c.nop	26
    145c:	ac01                	j	166c <product2+0x1d8>
    145e:	5d10                	lw	a2,56(a0)
    1460:	0000                	unimp
    1462:	3000                	fld	fs0,32(s0)
    1464:	0011                	c.nop	4
    1466:	3900                	fld	fs0,48(a0)
    1468:	5f62                	lw	t5,56(sp)
    146a:	004e                	c.slli	zero,0x13
    146c:	ac01                	j	167c <product2+0x1e8>
    146e:	5d12                	lw	s10,36(sp)
    1470:	0000                	unimp
    1472:	3800                	fld	fs0,48(s0)
    1474:	5f72                	lw	t5,60(sp)
    1476:	0064                	addi	s1,sp,12
    1478:	ac01                	j	1688 <product2+0x1f4>
    147a:	5d16                	lw	s10,100(sp)
    147c:	0000                	unimp
    147e:	ba00                	fsd	fs0,48(a2)
    1480:	0012                	c.slli	zero,0x4
    1482:	3a00                	fld	fs0,48(a2)
    1484:	027a                	slli	tp,tp,0x1e
    1486:	0000                	unimp
    1488:	ad01                	j	1a98 <ti_2+0x154>
    148a:	630a                	flw	ft6,128(sp)
    148c:	d800000b          	0xd800000b
    1490:	0012                	c.slli	zero,0x4
    1492:	3800                	fld	fs0,48(s0)
    1494:	0076                	c.slli	zero,0x1d
    1496:	af01                	j	1ba6 <random_keys+0xd2>
    1498:	8d09                	sub	a0,a0,a0
    149a:	0016                	c.slli	zero,0x5
    149c:	f000                	fsw	fs0,32(s0)
    149e:	0012                	c.slli	zero,0x4
    14a0:	3800                	fld	fs0,48(s0)
    14a2:	0071                	c.nop	28
    14a4:	b001                	j	ca4 <ntru_encyrpt+0x90>
    14a6:	a009                	j	14a8 <product2+0x14>
    14a8:	0016                	c.slli	zero,0x5
    14aa:	1000                	addi	s0,sp,32
    14ac:	3a000013          	li	zero,928
    14b0:	0178                	addi	a4,sp,140
    14b2:	0000                	unimp
    14b4:	b101                	j	10b4 <__CTOR_END__+0x6>
    14b6:	630a                	flw	ft6,128(sp)
    14b8:	3000000b          	0x3000000b
    14bc:	3a000013          	li	zero,928
    14c0:	021c                	addi	a5,sp,256
    14c2:	0000                	unimp
    14c4:	b201                	j	dc4 <_start+0x6>
    14c6:	b309                	j	11c8 <_endtext+0x110>
    14c8:	0016                	c.slli	zero,0x5
    14ca:	5d00                	lw	s0,56(a0)
    14cc:	3a000013          	li	zero,928
    14d0:	021a                	slli	tp,tp,0x6
    14d2:	0000                	unimp
    14d4:	b301                	j	11d4 <_endtext+0x11c>
    14d6:	c609                	beqz	a2,14e0 <product2+0x4c>
    14d8:	0016                	c.slli	zero,0x5
    14da:	a900                	fsd	fs0,16(a0)
    14dc:	33000013          	li	zero,816
    14e0:	0069                	c.nop	26
    14e2:	0000                	unimp
    14e4:	13d5                	addi	t2,t2,-11
    14e6:	0000                	unimp
    14e8:	00006933          	or	s2,zero,zero
    14ec:	0300                	addi	s0,sp,384
    14ee:	0014                	0x14
    14f0:	3300                	fld	fs0,32(a4)
    14f2:	0069                	c.nop	26
    14f4:	0000                	unimp
    14f6:	1431                	addi	s0,s0,-20
    14f8:	0000                	unimp
    14fa:	00006933          	or	s2,zero,zero
    14fe:	5f00                	lw	s0,56(a4)
    1500:	0014                	0x14
    1502:	2b00                	fld	fs0,16(a4)
    1504:	046a                	slli	s0,s0,0x1a
    1506:	0000                	unimp
    1508:	000019bf 00001523 	0x1523000019bf
    1510:	012c                	addi	a1,sp,136
    1512:	025a                	slli	tp,tp,0x16
    1514:	012c0083          	lb	ra,18(s8) # f012 <_stack+0x1012>
    1518:	0079025b          	0x79025b
    151c:	012c                	addi	a1,sp,136
    151e:	025c                	addi	a5,sp,260
    1520:	6908                	flw	fa0,16(a0)
    1522:	2b00                	fld	fs0,16(a4)
    1524:	0488                	addi	a0,sp,576
    1526:	0000                	unimp
    1528:	000019bf 00001543 	0x1543000019bf
    1530:	012c                	addi	a1,sp,136
    1532:	025a                	slli	tp,tp,0x16
    1534:	0072                	c.slli	zero,0x1c
    1536:	012c                	addi	a1,sp,136
    1538:	0079025b          	0x79025b
    153c:	012c                	addi	a1,sp,136
    153e:	025c                	addi	a5,sp,260
    1540:	0086                	slli	ra,ra,0x1
    1542:	2b00                	fld	fs0,16(a4)
    1544:	04ca                	slli	s1,s1,0x12
    1546:	0000                	unimp
    1548:	000019bf 00001563 	0x1563000019bf
    1550:	012c                	addi	a1,sp,136
    1552:	025a                	slli	tp,tp,0x16
    1554:	012c0083          	lb	ra,18(s8)
    1558:	0079025b          	0x79025b
    155c:	012c                	addi	a1,sp,136
    155e:	025c                	addi	a5,sp,260
    1560:	0082                	c.slli64	ra
    1562:	2b00                	fld	fs0,16(a4)
    1564:	053a                	slli	a0,a0,0xe
    1566:	0000                	unimp
    1568:	000019bf 00001583 	0x1583000019bf
    1570:	012c                	addi	a1,sp,136
    1572:	025a                	slli	tp,tp,0x16
    1574:	0084                	addi	s1,sp,64
    1576:	012c                	addi	a1,sp,136
    1578:	0079025b          	0x79025b
    157c:	012c                	addi	a1,sp,136
    157e:	025c                	addi	a5,sp,260
    1580:	6908                	flw	fa0,16(a0)
    1582:	2b00                	fld	fs0,16(a4)
    1584:	0558                	addi	a4,sp,644
    1586:	0000                	unimp
    1588:	17f9                	addi	a5,a5,-2
    158a:	0000                	unimp
    158c:	15b4                	addi	a3,sp,744
    158e:	0000                	unimp
    1590:	012c                	addi	a1,sp,136
    1592:	025a                	slli	tp,tp,0x16
    1594:	0072                	c.slli	zero,0x1c
    1596:	012c                	addi	a1,sp,136
    1598:	0086025b          	0x86025b
    159c:	012c                	addi	a1,sp,136
    159e:	025c                	addi	a5,sp,260
    15a0:	0084                	addi	s1,sp,64
    15a2:	012c                	addi	a1,sp,136
    15a4:	025d                	addi	tp,tp,23
    15a6:	0086                	slli	ra,ra,0x1
    15a8:	012c                	addi	a1,sp,136
    15aa:	025e                	slli	tp,tp,0x17
    15ac:	0079                	c.nop	30
    15ae:	012c                	addi	a1,sp,136
    15b0:	015f 0030 682b      	0x682b0030015f
    15b6:	0005                	c.nop	1
    15b8:	bf00                	fsd	fs0,56(a4)
    15ba:	0019                	c.nop	6
    15bc:	d600                	sw	s0,40(a2)
    15be:	0015                	c.nop	5
    15c0:	2c00                	fld	fs0,24(s0)
    15c2:	5a01                	li	s4,-32
    15c4:	7804                	flw	fs1,48(s0)
    15c6:	7fbc                	flw	fa5,120(a5)
    15c8:	2c06                	fld	fs8,64(sp)
    15ca:	5b01                	li	s6,-32
    15cc:	7902                	flw	fs2,32(sp)
    15ce:	2c00                	fld	fs0,24(s0)
    15d0:	5c01                	li	s8,-32
    15d2:	0802                	c.slli64	a6
    15d4:	0069                	c.nop	26
    15d6:	0005922b          	0x5922b
    15da:	bf00                	fsd	fs0,56(a4)
    15dc:	0019                	c.nop	6
    15de:	f600                	fsw	fs0,40(a2)
    15e0:	0015                	c.nop	5
    15e2:	2c00                	fld	fs0,24(s0)
    15e4:	5a01                	li	s4,-32
    15e6:	8302                	jr	t1
    15e8:	2c00                	fld	fs0,24(s0)
    15ea:	5b01                	li	s6,-32
    15ec:	7902                	flw	fs2,32(sp)
    15ee:	2c00                	fld	fs0,24(s0)
    15f0:	5c01                	li	s8,-32
    15f2:	0802                	c.slli64	a6
    15f4:	0069                	c.nop	26
    15f6:	0005b82b          	0x5b82b
    15fa:	bf00                	fsd	fs0,56(a4)
    15fc:	0019                	c.nop	6
    15fe:	1600                	addi	s0,sp,800
    1600:	0016                	c.slli	zero,0x5
    1602:	2c00                	fld	fs0,24(s0)
    1604:	5a01                	li	s4,-32
    1606:	8502                	jr	a0
    1608:	2c00                	fld	fs0,24(s0)
    160a:	5b01                	li	s6,-32
    160c:	7902                	flw	fs2,32(sp)
    160e:	2c00                	fld	fs0,24(s0)
    1610:	5c01                	li	s8,-32
    1612:	0802                	c.slli64	a6
    1614:	0069                	c.nop	26
    1616:	0005ea2b          	0x5ea2b
    161a:	bf00                	fsd	fs0,56(a4)
    161c:	0019                	c.nop	6
    161e:	3600                	fld	fs0,40(a2)
    1620:	0016                	c.slli	zero,0x5
    1622:	2c00                	fld	fs0,24(s0)
    1624:	5a01                	li	s4,-32
    1626:	8402                	jr	s0
    1628:	2c00                	fld	fs0,24(s0)
    162a:	5b01                	li	s6,-32
    162c:	7902                	flw	fs2,32(sp)
    162e:	2c00                	fld	fs0,24(s0)
    1630:	5c01                	li	s8,-32
    1632:	8202                	jr	tp
    1634:	0000                	unimp
    1636:	0005fa2b          	0x5fa2b
    163a:	bf00                	fsd	fs0,56(a4)
    163c:	0019                	c.nop	6
    163e:	5000                	lw	s0,32(s0)
    1640:	0016                	c.slli	zero,0x5
    1642:	2c00                	fld	fs0,24(s0)
    1644:	5b01                	li	s6,-32
    1646:	7902                	flw	fs2,32(sp)
    1648:	2c00                	fld	fs0,24(s0)
    164a:	5c01                	li	s8,-32
    164c:	8202                	jr	tp
    164e:	0000                	unimp
    1650:	0006262b          	0x6262b
    1654:	bf00                	fsd	fs0,56(a4)
    1656:	0019                	c.nop	6
    1658:	7000                	flw	fs0,32(s0)
    165a:	0016                	c.slli	zero,0x5
    165c:	2c00                	fld	fs0,24(s0)
    165e:	5a01                	li	s4,-32
    1660:	8302                	jr	t1
    1662:	2c00                	fld	fs0,24(s0)
    1664:	5b01                	li	s6,-32
    1666:	7902                	flw	fs2,32(sp)
    1668:	2c00                	fld	fs0,24(s0)
    166a:	5c01                	li	s8,-32
    166c:	8202                	jr	tp
    166e:	0000                	unimp
    1670:	4e2d                	li	t3,11
    1672:	0006                	c.slli	zero,0x1
    1674:	bf00                	fsd	fs0,56(a4)
    1676:	0019                	c.nop	6
    1678:	2c00                	fld	fs0,24(s0)
    167a:	5a01                	li	s4,-32
    167c:	8502                	jr	a0
    167e:	2c00                	fld	fs0,24(s0)
    1680:	5b01                	li	s6,-32
    1682:	7902                	flw	fs2,32(sp)
    1684:	2c00                	fld	fs0,24(s0)
    1686:	5c01                	li	s8,-32
    1688:	8202                	jr	tp
    168a:	0000                	unimp
    168c:	0900                	addi	s0,sp,144
    168e:	005d                	c.nop	23
    1690:	0000                	unimp
    1692:	16a0                	addi	s0,sp,872
    1694:	0000                	unimp
    1696:	6934                	flw	fa3,80(a0)
    1698:	0000                	unimp
    169a:	df00                	sw	s0,56(a4)
    169c:	0014                	0x14
    169e:	0000                	unimp
    16a0:	5d09                	li	s10,-30
    16a2:	0000                	unimp
    16a4:	b300                	fsd	fs0,32(a4)
    16a6:	0016                	c.slli	zero,0x5
    16a8:	3400                	fld	fs0,40(s0)
    16aa:	0069                	c.nop	26
    16ac:	0000                	unimp
    16ae:	14e8                	addi	a0,sp,620
    16b0:	0000                	unimp
    16b2:	0900                	addi	s0,sp,144
    16b4:	005d                	c.nop	23
    16b6:	0000                	unimp
    16b8:	16c6                	slli	a3,a3,0x31
    16ba:	0000                	unimp
    16bc:	6934                	flw	fa3,80(a0)
    16be:	0000                	unimp
    16c0:	f100                	fsw	fs0,32(a0)
    16c2:	0014                	0x14
    16c4:	0000                	unimp
    16c6:	5d09                	li	s10,-30
    16c8:	0000                	unimp
    16ca:	d900                	sw	s0,48(a0)
    16cc:	0016                	c.slli	zero,0x5
    16ce:	3400                	fld	fs0,40(s0)
    16d0:	0069                	c.nop	26
    16d2:	0000                	unimp
    16d4:	14fa                	slli	s1,s1,0x3e
    16d6:	0000                	unimp
    16d8:	3500                	fld	fs0,40(a0)
    16da:	002a                	c.slli	zero,0xa
    16dc:	0000                	unimp
    16de:	7101                	addi	sp,sp,-512
    16e0:	6306                	flw	ft6,64(sp)
    16e2:	8c00000b          	0x8c00000b
    16e6:	0002                	c.slli64	zero
    16e8:	7000                	flw	fs0,32(s0)
    16ea:	0001                	nop
    16ec:	0100                	addi	s0,sp,128
    16ee:	b99c                	fsd	fa5,48(a1)
    16f0:	36000017          	auipc	zero,0x36000
    16f4:	0061                	c.nop	24
    16f6:	7101                	addi	sp,sp,-512
    16f8:	6315                	lui	t1,0x5
    16fa:	b400000b          	0xb400000b
    16fe:	0014                	0x14
    1700:	3700                	fld	fs0,40(a4)
    1702:	06d1                	addi	a3,a3,20
    1704:	0000                	unimp
    1706:	7101                	addi	sp,sp,-512
    1708:	5d1c                	lw	a5,56(a0)
    170a:	0000                	unimp
    170c:	ee00                	fsw	fs0,24(a2)
    170e:	0014                	0x14
    1710:	3600                	fld	fs0,40(a2)
    1712:	0062                	c.slli	zero,0x18
    1714:	7101                	addi	sp,sp,-512
    1716:	6329                	lui	t1,0xa
    1718:	2600000b          	0x2600000b
    171c:	0015                	c.nop	5
    171e:	3b00                	fld	fs0,48(a4)
    1720:	06d8                	addi	a4,sp,836
    1722:	0000                	unimp
    1724:	7101                	addi	sp,sp,-512
    1726:	5d30                	lw	a2,120(a0)
    1728:	0000                	unimp
    172a:	0100                	addi	s0,sp,128
    172c:	375d                	jal	16d2 <product2+0x23e>
    172e:	000004e3          	beqz	zero,1f36 <random_keys+0x462>
    1732:	7101                	addi	sp,sp,-512
    1734:	5d3c                	lw	a5,120(a0)
    1736:	0000                	unimp
    1738:	6000                	flw	fs0,0(s0)
    173a:	0015                	c.nop	5
    173c:	3a00                	fld	fs0,48(a2)
    173e:	0624                	addi	s1,sp,776
    1740:	0000                	unimp
    1742:	7401                	lui	s0,0xfffe0
    1744:	b909                	j	1356 <_bss_start+0x11a>
    1746:	9a000017          	auipc	zero,0x9a000
    174a:	0015                	c.nop	5
    174c:	3800                	fld	fs0,48(s0)
    174e:	0069                	c.nop	26
    1750:	7501                	lui	a0,0xfffe0
    1752:	5d09                	li	s10,-30
    1754:	0000                	unimp
    1756:	de00                	sw	s0,56(a2)
    1758:	0015                	c.nop	5
    175a:	3800                	fld	fs0,48(s0)
    175c:	006a                	c.slli	zero,0x1a
    175e:	7501                	lui	a0,0xfffe0
    1760:	00005d0b          	0x5d0b
    1764:	8700                	0x8700
    1766:	0016                	c.slli	zero,0x5
    1768:	3800                	fld	fs0,48(s0)
    176a:	7501006b          	0x7501006b
    176e:	5d0d                	li	s10,-29
    1770:	0000                	unimp
    1772:	d100                	sw	s0,32(a0)
    1774:	0016                	c.slli	zero,0x5
    1776:	3a00                	fld	fs0,48(a2)
    1778:	026a                	slli	tp,tp,0x1a
    177a:	0000                	unimp
    177c:	7601                	lui	a2,0xfffe0
    177e:	630a                	flw	ft6,128(sp)
    1780:	1f00000b          	0x1f00000b
    1784:	22000017          	auipc	zero,0x22000
    1788:	000c                	0xc
    178a:	0000                	unimp
    178c:	7701                	lui	a4,0xfffe0
    178e:	d409                	beqz	s0,1698 <product2+0x204>
    1790:	02000017          	auipc	zero,0x2000
    1794:	0075                	c.nop	29
    1796:	643a                	flw	fs0,140(sp)
    1798:	01000003          	lb	zero,16(zero) # 10 <__DYNAMIC+0x10>
    179c:	0978                	addi	a4,sp,156
    179e:	17e6                	slli	a5,a5,0x39
    17a0:	0000                	unimp
    17a2:	00001737          	lui	a4,0x1
    17a6:	00006933          	or	s2,zero,zero
    17aa:	6d00                	flw	fs0,24(a0)
    17ac:	33000017          	auipc	zero,0x33000
    17b0:	0069                	c.nop	26
    17b2:	0000                	unimp
    17b4:	17a5                	addi	a5,a5,-23
    17b6:	0000                	unimp
    17b8:	0900                	addi	s0,sp,144
    17ba:	005d                	c.nop	23
    17bc:	0000                	unimp
    17be:	17d4                	addi	a3,sp,996
    17c0:	0000                	unimp
    17c2:	6934                	flw	fa3,80(a0)
    17c4:	0000                	unimp
    17c6:	a600                	fsd	fs0,8(a2)
    17c8:	2e000017          	auipc	zero,0x2e000
    17cc:	0069                	c.nop	26
    17ce:	0000                	unimp
    17d0:	8d02                	jr	s10
    17d2:	0000                	unimp
    17d4:	5d09                	li	s10,-30
    17d6:	0000                	unimp
    17d8:	e600                	fsw	fs0,8(a2)
    17da:	2e000017          	auipc	zero,0x2e000
    17de:	0069                	c.nop	26
    17e0:	0000                	unimp
    17e2:	8f02                	jr	t5
    17e4:	0000                	unimp
    17e6:	5d09                	li	s10,-30
    17e8:	0000                	unimp
    17ea:	f900                	fsw	fs0,48(a0)
    17ec:	34000017          	auipc	zero,0x34000
    17f0:	0069                	c.nop	26
    17f2:	0000                	unimp
    17f4:	000017af          	0x17af
    17f8:	3500                	fld	fs0,40(a0)
    17fa:	010d                	addi	sp,sp,3
    17fc:	0000                	unimp
    17fe:	3001                	jal	ffe <main+0x90>
    1800:	6306                	flw	ft6,64(sp)
    1802:	b000000b          	0xb000000b
    1806:	0000                	unimp
    1808:	dc00                	sw	s0,56(s0)
    180a:	0001                	nop
    180c:	0100                	addi	s0,sp,128
    180e:	7d9c                	flw	fa5,56(a1)
    1810:	0019                	c.nop	6
    1812:	3600                	fld	fs0,40(a2)
    1814:	0061                	c.nop	24
    1816:	3001                	jal	1016 <main+0xa8>
    1818:	6314                	flw	fa3,0(a4)
    181a:	dd00000b          	0xdd00000b
    181e:	37000017          	auipc	zero,0x37000
    1822:	06d1                	addi	a3,a3,20
    1824:	0000                	unimp
    1826:	3001                	jal	1026 <main+0xb8>
    1828:	00005d1b          	0x5d1b
    182c:	1700                	addi	s0,sp,928
    182e:	0018                	0x18
    1830:	3600                	fld	fs0,40(a2)
    1832:	0062                	c.slli	zero,0x18
    1834:	3001                	jal	1034 <main+0xc6>
    1836:	6328                	flw	fa0,64(a4)
    1838:	6800000b          	0x6800000b
    183c:	0018                	0x18
    183e:	3700                	fld	fs0,40(a4)
    1840:	06d8                	addi	a4,sp,836
    1842:	0000                	unimp
    1844:	3001                	jal	1044 <main+0xd6>
    1846:	00005d2f          	0x5d2f
    184a:	b800                	fsd	fs0,48(s0)
    184c:	0018                	0x18
    184e:	3600                	fld	fs0,40(a2)
    1850:	6f6d                	lui	t5,0x1b
    1852:	0064                	addi	s1,sp,12
    1854:	3001                	jal	1054 <main+0xe6>
    1856:	00005d3b          	0x5d3b
    185a:	ef00                	fsw	fs0,24(a4)
    185c:	0018                	0x18
    185e:	3700                	fld	fs0,40(a4)
    1860:	000004e3          	beqz	zero,2068 <_min_stack+0x68>
    1864:	3001                	jal	1064 <main+0xf6>
    1866:	5d44                	lw	s1,60(a0)
    1868:	0000                	unimp
    186a:	2600                	fld	fs0,8(a2)
    186c:	0019                	c.nop	6
    186e:	3a00                	fld	fs0,48(a2)
    1870:	0624                	addi	s1,sp,776
    1872:	0000                	unimp
    1874:	3201                	jal	1174 <_endtext+0xbc>
    1876:	7d09                	lui	s10,0xfffe2
    1878:	0019                	c.nop	6
    187a:	5300                	lw	s0,32(a4)
    187c:	0019                	c.nop	6
    187e:	3800                	fld	fs0,48(s0)
    1880:	0069                	c.nop	26
    1882:	3301                	jal	1582 <product2+0xee>
    1884:	5d09                	li	s10,-30
    1886:	0000                	unimp
    1888:	a300                	fsd	fs0,0(a4)
    188a:	0019                	c.nop	6
    188c:	3800                	fld	fs0,48(s0)
    188e:	006a                	c.slli	zero,0x1a
    1890:	3301                	jal	1590 <product2+0xfc>
    1892:	00005d0b          	0x5d0b
    1896:	6300                	flw	fs0,0(a4)
    1898:	001a                	c.slli	zero,0x6
    189a:	3800                	fld	fs0,48(s0)
    189c:	3301006b          	0x3301006b
    18a0:	5d0d                	li	s10,-29
    18a2:	0000                	unimp
    18a4:	ad00                	fsd	fs0,24(a0)
    18a6:	001a                	c.slli	zero,0x6
    18a8:	3a00                	fld	fs0,48(a2)
    18aa:	025a                	slli	tp,tp,0x16
    18ac:	0000                	unimp
    18ae:	3401                	jal	12ae <_bss_start+0x72>
    18b0:	630a                	flw	ft6,128(sp)
    18b2:	fb00000b          	0xfb00000b
    18b6:	001a                	c.slli	zero,0x6
    18b8:	3a00                	fld	fs0,48(a2)
    18ba:	000c                	0xc
    18bc:	0000                	unimp
    18be:	3501                	jal	16be <product2+0x22a>
    18c0:	9909                	andi	a0,a0,-30
    18c2:	0019                	c.nop	6
    18c4:	1300                	addi	s0,sp,416
    18c6:	3a00001b          	0x3a00001b
    18ca:	0364                	addi	s1,sp,396
    18cc:	0000                	unimp
    18ce:	3601                	jal	13ce <_bss_start+0x192>
    18d0:	ac09                	j	1ae2 <random_keys+0xe>
    18d2:	0019                	c.nop	6
    18d4:	4a00                	lw	s0,16(a2)
    18d6:	3300001b          	0x3300001b
    18da:	0069                	c.nop	26
    18dc:	0000                	unimp
    18de:	1bb9                	addi	s7,s7,-18
    18e0:	0000                	unimp
    18e2:	00006933          	or	s2,zero,zero
    18e6:	0e00                	addi	s0,sp,784
    18e8:	001c                	0x1c
    18ea:	3300                	fld	fs0,32(a4)
    18ec:	0069                	c.nop	26
    18ee:	0000                	unimp
    18f0:	1c51                	addi	s8,s8,-12
    18f2:	0000                	unimp
    18f4:	00006933          	or	s2,zero,zero
    18f8:	7f00                	flw	fs0,56(a4)
    18fa:	001c                	0x1c
    18fc:	2b00                	fld	fs0,16(a4)
    18fe:	0144                	addi	s1,sp,132
    1900:	0000                	unimp
    1902:	000019bf 0000191d 	0x191d000019bf
    190a:	012c                	addi	a1,sp,136
    190c:	025a                	slli	tp,tp,0x16
    190e:	0089                	addi	ra,ra,2
    1910:	012c                	addi	a1,sp,136
    1912:	0088025b          	0x88025b
    1916:	012c                	addi	a1,sp,136
    1918:	025c                	addi	a5,sp,260
    191a:	0186                	slli	gp,gp,0x1
    191c:	2b00                	fld	fs0,16(a4)
    191e:	0156                	slli	sp,sp,0x15
    1920:	0000                	unimp
    1922:	000019bf 0000193d 	0x193d000019bf
    192a:	012c                	addi	a1,sp,136
    192c:	025a                	slli	tp,tp,0x16
    192e:	0072                	c.slli	zero,0x1c
    1930:	012c                	addi	a1,sp,136
    1932:	0088025b          	0x88025b
    1936:	012c                	addi	a1,sp,136
    1938:	025c                	addi	a5,sp,260
    193a:	0082                	c.slli64	ra
    193c:	2b00                	fld	fs0,16(a4)
    193e:	01e2                	slli	gp,gp,0x18
    1940:	0000                	unimp
    1942:	000019bf 00001960 	0x1960000019bf
    194a:	012c                	addi	a1,sp,136
    194c:	055a                	slli	a0,a0,0x16
    194e:	00123c03          	0x123c03
    1952:	2c00                	fld	fs0,24(s0)
    1954:	5b01                	li	s6,-32
    1956:	8802                	jr	a6
    1958:	2c00                	fld	fs0,24(s0)
    195a:	5c01                	li	s8,-32
    195c:	8402                	jr	s0
    195e:	0000                	unimp
    1960:	602d                	c.lui	zero,0xb
    1962:	0002                	c.slli64	zero
    1964:	bf00                	fsd	fs0,56(a4)
    1966:	0019                	c.nop	6
    1968:	2c00                	fld	fs0,24(s0)
    196a:	5a01                	li	s4,-32
    196c:	8502                	jr	a0
    196e:	2c00                	fld	fs0,24(s0)
    1970:	5b01                	li	s6,-32
    1972:	8802                	jr	a6
    1974:	2c00                	fld	fs0,24(s0)
    1976:	5c01                	li	s8,-32
    1978:	8402                	jr	s0
    197a:	0000                	unimp
    197c:	0900                	addi	s0,sp,144
    197e:	005d                	c.nop	23
    1980:	0000                	unimp
    1982:	1999                	addi	s3,s3,-26
    1984:	0000                	unimp
    1986:	6934                	flw	fa3,80(a0)
    1988:	0000                	unimp
    198a:	d900                	sw	s0,48(a0)
    198c:	0018                	0x18
    198e:	3400                	fld	fs0,40(s0)
    1990:	0069                	c.nop	26
    1992:	0000                	unimp
    1994:	18e2                	slli	a7,a7,0x38
    1996:	0000                	unimp
    1998:	0900                	addi	s0,sp,144
    199a:	005d                	c.nop	23
    199c:	0000                	unimp
    199e:	19ac                	addi	a1,sp,248
    19a0:	0000                	unimp
    19a2:	6934                	flw	fa3,80(a0)
    19a4:	0000                	unimp
    19a6:	eb00                	fsw	fs0,16(a4)
    19a8:	0018                	0x18
    19aa:	0000                	unimp
    19ac:	5d09                	li	s10,-30
    19ae:	0000                	unimp
    19b0:	bf00                	fsd	fs0,56(a4)
    19b2:	0019                	c.nop	6
    19b4:	3400                	fld	fs0,40(s0)
    19b6:	0069                	c.nop	26
    19b8:	0000                	unimp
    19ba:	18f4                	addi	a3,sp,124
    19bc:	0000                	unimp
    19be:	3c00                	fld	fs0,56(s0)
    19c0:	0531                	addi	a0,a0,12
    19c2:	0000                	unimp
    19c4:	2001                	jal	19c4 <ti_2+0x80>
    19c6:	9206                	add	tp,tp,ra
    19c8:	0000                	unimp
    19ca:	1e00                	addi	s0,sp,816
    19cc:	0000                	unimp
    19ce:	0100                	addi	s0,sp,128
    19d0:	329c                	fld	fa5,32(a3)
    19d2:	001a                	c.slli	zero,0x6
    19d4:	3d00                	fld	fs0,56(a0)
    19d6:	3161                	jal	165e <product2+0x1ca>
    19d8:	0100                	addi	s0,sp,128
    19da:	1520                	addi	s0,sp,680
    19dc:	00000b63          	beqz	zero,19f2 <ti_2+0xae>
    19e0:	5a01                	li	s4,-32
    19e2:	6d3d                	lui	s10,0xf
    19e4:	0100646f          	jal	s0,79f4 <_stack_len+0x39f4>
    19e8:	1d20                	addi	s0,sp,696
    19ea:	005d                	c.nop	23
    19ec:	0000                	unimp
    19ee:	5b01                	li	s6,-32
    19f0:	00051637          	lui	a2,0x51
    19f4:	0100                	addi	s0,sp,128
    19f6:	2520                	fld	fs0,72(a0)
    19f8:	005d                	c.nop	23
    19fa:	0000                	unimp
    19fc:	1cd4                	addi	a3,sp,628
    19fe:	0000                	unimp
    1a00:	6938                	flw	fa4,80(a0)
    1a02:	0100                	addi	s0,sp,128
    1a04:	0525                	addi	a0,a0,9
    1a06:	005d                	c.nop	23
    1a08:	0000                	unimp
    1a0a:	1cf5                	addi	s9,s9,-3
    1a0c:	0000                	unimp
    1a0e:	323e                	fld	ft4,488(sp)
    1a10:	001a                	c.slli	zero,0x6
    1a12:	9800                	0x9800
    1a14:	0000                	unimp
    1a16:	0000                	unimp
    1a18:	0000                	unimp
    1a1a:	0100                	addi	s0,sp,128
    1a1c:	0928                	addi	a0,sp,152
    1a1e:	001a4a3f 001d1400 	0x1d1400001a4a3f
    1a26:	3f00                	fld	fs0,56(a4)
    1a28:	00001a3f 00001d27 	0x1d2700001a3f
    1a30:	0000                	unimp
    1a32:	0340                	addi	s0,sp,388
    1a34:	0001                	nop
    1a36:	0100                	addi	s0,sp,128
    1a38:	0611                	addi	a2,a2,4
    1a3a:	5701                	li	a4,-32
    1a3c:	001a                	c.slli	zero,0x6
    1a3e:	4100                	lw	s0,0(a0)
    1a40:	3161                	jal	16c8 <product2+0x234>
    1a42:	0100                	addi	s0,sp,128
    1a44:	1e11                	addi	t3,t3,-28
    1a46:	00001a57          	0x1a57
    1a4a:	6d41                	lui	s10,0x10
    1a4c:	0100646f          	jal	s0,7a5c <_stack_len+0x3a5c>
    1a50:	2f11                	jal	2164 <_min_stack+0x164>
    1a52:	0069                	c.nop	26
    1a54:	0000                	unimp
    1a56:	1000                	addi	s0,sp,32
    1a58:	6904                	flw	fs1,16(a0)
    1a5a:	0000                	unimp
    1a5c:	4200                	lw	s0,0(a2)
    1a5e:	1a32                	slli	s4,s4,0x2c
    1a60:	0000                	unimp
    1a62:	008c                	addi	a1,sp,64
    1a64:	0000                	unimp
    1a66:	0006                	c.slli	zero,0x1
    1a68:	0000                	unimp
    1a6a:	9c01                	0x9c01
    1a6c:	1a81                	addi	s5,s5,-32
    1a6e:	0000                	unimp
    1a70:	001a3f3f 001d4100 	0x1d4100001a3f3f
    1a78:	4300                	lw	s0,0(a4)
    1a7a:	1a4a                	slli	s4,s4,0x32
    1a7c:	0000                	unimp
    1a7e:	5b01                	li	s6,-32
    1a80:	4400                	lw	s0,8(s0)
    1a82:	00000323          	sb	zero,6(zero) # 6 <__DYNAMIC+0x6>
    1a86:	0319                	addi	t1,t1,6
    1a88:	0000                	unimp
    1a8a:	64440007          	0x64440007
    1a8e:	0000                	unimp
    1a90:	5a00                	lw	s0,48(a2)
    1a92:	0000                	unimp
    1a94:	0700                	addi	s0,sp,896
    1a96:	0000                	unimp
    1a98:	001e                	c.slli	zero,0x7
    1a9a:	0000                	unimp
    1a9c:	0002                	c.slli64	zero
    1a9e:	00000403          	lb	s0,0(zero) # 0 <__DYNAMIC>
    1aa2:	0104                	addi	s1,sp,128
    1aa4:	263a                	fld	fa2,392(sp)
    1aa6:	0000                	unimp
    1aa8:	0030                	addi	a2,sp,8
    1aaa:	0000                	unimp
    1aac:	06df 0000 0564      	0x564000006df
    1ab2:	0000                	unimp
    1ab4:	06e6                	slli	a3,a3,0x19
    1ab6:	0000                	unimp
    1ab8:	8001                	c.srli64	s0

Disassembly of section .debug_abbrev:

00000000 <.debug_abbrev>:
  .endr
   0:	1101                	addi	sp,sp,-32
   2:	2501                	jal	602 <polydiv+0x206>
   4:	130e                	slli	t1,t1,0x23
   6:	1b0e030b          	0x1b0e030b
   a:	550e                	lw	a0,224(sp)
   c:	10011117          	auipc	sp,0x10011
  10:	02000017          	auipc	zero,0x2000
  14:	0024                	addi	s1,sp,8
  16:	0b3e0b0b          	0xb3e0b0b
  1a:	00000e03          	lb	t3,0(zero) # 0 <__DYNAMIC>
  1e:	0b002403          	lw	s0,176(zero) # b0 <polymult>
  22:	030b3e0b          	0x30b3e0b
  26:	0008                	0x8
  28:	0400                	addi	s0,sp,512
  2a:	0035                	c.nop	13
  2c:	1349                	addi	t1,t1,-14
  2e:	0000                	unimp
  30:	1605                	addi	a2,a2,-31
  32:	0300                	addi	s0,sp,384
  34:	3a0e                	fld	fs4,224(sp)
  36:	39053b0b          	0x39053b0b
  3a:	0013490b          	0x13490b
  3e:	0600                	addi	s0,sp,768
  40:	0016                	c.slli	zero,0x5
  42:	0b3a0e03          	lb	t3,179(s4)
  46:	0b390b3b          	0xb390b3b
  4a:	1349                	addi	t1,t1,-14
  4c:	0000                	unimp
  4e:	0b011707          	0xb011707
  52:	3b0b3a0b          	0x3b0b3a0b
  56:	010b390b          	0x10b390b
  5a:	08000013          	li	zero,128
  5e:	000d                	c.nop	3
  60:	0b3a0e03          	lb	t3,179(s4)
  64:	0b390b3b          	0xb390b3b
  68:	1349                	addi	t1,t1,-14
  6a:	0000                	unimp
  6c:	0109                	addi	sp,sp,2
  6e:	4901                	li	s2,0
  70:	00130113          	addi	sp,t1,1 # a001 <_stack_len+0x6001>
  74:	0a00                	addi	s0,sp,272
  76:	0021                	c.nop	8
  78:	1349                	addi	t1,t1,-14
  7a:	00000b2f          	0xb2f
  jal x0, default_exc_handler
  7e:	0b01130b          	0xb01130b
  jal x0, reset_handler
  82:	3b0b3a0b          	0x3b0b3a0b
  jal x0, default_exc_handler
  86:	010b390b          	0x10b390b
  jal x0, default_exc_handler
  8a:	0c000013          	li	zero,192
    asm volatile(
  8e:	000d                	c.nop	3
}
  90:	0b3a0e03          	lb	t3,179(s4)
    for(i=0;i<(length/3);i++) {
  94:	0b390b3b          	0xb390b3b
    asm volatile(
  98:	1349                	addi	t1,t1,-14
    for(i=0;i<(length/3);i++) {
  9a:	0b38                	addi	a4,sp,408
  9c:	0000                	unimp
  9e:	0f0d                	addi	t5,t5,3
}
  a0:	0b00                	addi	s0,sp,400
    asm volatile(
  a2:	0e00000b          	0xe00000b
  a6:	0e030113          	addi	sp,t1,224
  aa:	0b3a0b0b          	0xb3a0b0b
    for(i=0;i<(length/3);i++) {
  ae:	0b390b3b          	0xb390b3b
int *polymult(int *a, int size_a, int *b, int size_b, int mod, int star_mult){
  b2:	1301                	addi	t1,t1,-32
  b4:	0000                	unimp
  b6:	03000d0f          	0x3000d0f
  ba:	3a08                	fld	fa0,48(a2)
    int line[size_b][size_a + size_b];
  bc:	390b3b0b          	0x390b3b0b
int *polymult(int *a, int size_a, int *b, int size_b, int mod, int star_mult){
  c0:	3813490b          	0x3813490b
    int line[size_b][size_a + size_b];
  c4:	1000000b          	0x1000000b
  c8:	0b0b000f          	0xb0b000f
  cc:	1349                	addi	t1,t1,-14
  ce:	0000                	unimp
int *polymult(int *a, int size_a, int *b, int size_b, int mod, int star_mult){
  d0:	1311                	addi	t1,t1,-28
  d2:	0301                	addi	t1,t1,0
  d4:	0b0e                	slli	s6,s6,0x3
  d6:	3a05                	jal	fffffa06 <_stack_start+0xfffefa06>
  d8:	390b3b0b          	0x390b3b0b
  dc:	0013010b          	0x13010b
  e0:	1200                	addi	s0,sp,288
    int line[size_b][size_a + size_b];
  e2:	000d                	c.nop	3
int *polymult(int *a, int size_a, int *b, int size_b, int mod, int star_mult){
  e4:	0b3a0e03          	lb	t3,179(s4)
    int line[size_b][size_a + size_b];
  e8:	0b390b3b          	0xb390b3b
    int pola[size_a];
  ec:	1349                	addi	t1,t1,-14
  ee:	0538                	addi	a4,sp,648
  f0:	0000                	unimp
int *polymult(int *a, int size_a, int *b, int size_b, int mod, int star_mult){
  f2:	27001513          	0x27001513
    int line[size_b][size_a + size_b];
  f6:	0019                	c.nop	6
    int pola[size_a];
  f8:	1400                	addi	s0,sp,544
    int polb[size_b];
  fa:	0115                	addi	sp,sp,5
  fc:	13491927          	0x13491927
 100:	1301                	addi	t1,t1,-32
    int pola[size_a];
 102:	0000                	unimp
 104:	0515                	addi	a0,a0,5
int *polymult(int *a, int size_a, int *b, int size_b, int mod, int star_mult){
 106:	4900                	lw	s0,16(a0)
 108:	16000013          	li	zero,352
            line[i][j] = 0;
 10c:	0026                	c.slli	zero,0x9
 10e:	1349                	addi	t1,t1,-14
    int polb[size_b];
 110:	0000                	unimp
 112:	03011317          	auipc	t1,0x3011
    int pola[size_a];
 116:	0b0e                	slli	s6,s6,0x3
 118:	3a05                	jal	fffffa48 <_stack_start+0xfffefa48>
    int polb[size_b];
 11a:	39053b0b          	0x39053b0b
            line[i][j] = 0;
 11e:	0013010b          	0x13010b
    for (i = 0; i < size_b; ++i){
 122:	1800                	addi	s0,sp,48
 124:	000d                	c.nop	3
            product[j] = 0;
 126:	0b3a0e03          	lb	t3,179(s4)
 12a:	0b39053b          	0xb39053b
    for (i = 0; i < size_b; ++i){
 12e:	1349                	addi	t1,t1,-14
 130:	0b38                	addi	a4,sp,408
    for (i = 0; i < size_a; ++i){
 132:	0000                	unimp
 134:	0d19                	addi	s10,s10,6
 136:	0300                	addi	s0,sp,384
	array_mod(pola,mod,size_a);
 138:	3a0e                	fld	fs4,224(sp)
 13a:	39053b0b          	0x39053b0b
 13e:	3813490b          	0x3813490b
 142:	0005                	c.nop	1
    for (i = 0; i < size_b; ++i){
 144:	1a00                	addi	s0,sp,304
 146:	0e030113          	addi	sp,t1,224 # 30111f2 <_stack_start+0x30011f2>
 14a:	0b3a0b0b          	0xb3a0b0b
	array_mod(polb,mod,size_b);
 14e:	0b39053b          	0xb39053b
 152:	1301                	addi	t1,t1,-32
 154:	0000                	unimp
    if(star_mult == 1){
 156:	0b01131b          	0xb01131b
 15a:	3b0b3a0b          	0x3b0b3a0b
 15e:	3905                	jal	fffffd8e <_stack_start+0xfffefd8e>
 160:	0013010b          	0x13010b
 164:	1c00                	addi	s0,sp,560
 166:	0b0b0117          	auipc	sp,0xb0b0
        for (j = size_b -1; j >= 0; j = j-1){
 16a:	0b3a                	slli	s6,s6,0xe
 16c:	0b39053b          	0xb39053b
            for (k = size_a-1; k >= 0; k = k-1 ){
 170:	1301                	addi	t1,t1,-32
            product[j] = 0;
 172:	0000                	unimp
 174:	0d1d                	addi	s10,s10,7
 176:	0300                	addi	s0,sp,384
            line[i][j] = 0;
 178:	3a0e                	fld	fs4,224(sp)
 17a:	39053b0b          	0x39053b0b
            product[j] = 0;
 17e:	0013490b          	0x13490b
        for(j = 0; j < size_a + size_b -1; ++j){
 182:	1e00                	addi	s0,sp,816
 184:	0e030013          	addi	zero,t1,224
    for (i = 0; i < size_b; ++i){
 188:	193c                	addi	a5,sp,184
 18a:	0000                	unimp
 18c:	151f 2701 0119      	0x1192701151f
        for(j = 0; j < size_a + size_b -1; ++j){
 192:	20000013          	li	zero,512
        pola[i] = a[i];
 196:	0034                	addi	a3,sp,8
 198:	0b3a0e03          	lb	t3,179(s4)
 19c:	0b39053b          	0xb39053b
    for (i = 0; i < size_a; ++i){
 1a0:	1349                	addi	t1,t1,-14
        pola[i] = a[i];
 1a2:	193c193f 34210000 	0x34210000193c193f
        polb[i] = b[i];
 1aa:	0300                	addi	s0,sp,384
 1ac:	3a0e                	fld	fs4,224(sp)
 1ae:	390b3b0b          	0x390b3b0b
 1b2:	3f13490b          	0x3f13490b
 1b6:	3c19                	jal	fffffbcc <_stack_start+0xfffefbcc>
    for (i = 0; i < size_b; ++i){
 1b8:	0019                	c.nop	6
    if(star_mult == 1){
 1ba:	2200                	fld	fs0,0(a2)
        for (j = size_b -1; j >= 0; j = j-1){
 1bc:	0034                	addi	a3,sp,8
 1be:	0b3a0e03          	lb	t3,179(s4)
    for (i = 0; i < size_b; ++i){
 1c2:	0b390b3b          	0xb390b3b
 1c6:	1349                	addi	t1,t1,-14
 1c8:	1802                	slli	a6,a6,0x20
 1ca:	0000                	unimp
 1cc:	49002123          	sw	a6,1154(zero) # 482 <polydiv+0x86>
    for(j = 0; j < size_a + size_b -1; ++j){
 1d0:	00052f13          	slti	t5,a0,0
    array_mod(product,mod,size_a+size_b-1);
 1d4:	2400                	fld	fs0,8(s0)
 1d6:	0034                	addi	a3,sp,8
 1d8:	0b3a0e03          	lb	t3,179(s4)
 1dc:	0b390b3b          	0xb390b3b
 1e0:	1349                	addi	t1,t1,-14
}
 1e2:	1802193f 2e250000 	0x2e2500001802193f
 1ea:	3f01                	jal	fa <polymult+0x4a>
 1ec:	0319                	addi	t1,t1,6
 1ee:	3a0e                	fld	fs4,224(sp)
 1f0:	39053b0b          	0x39053b0b
 1f4:	1113490b          	0x1113490b
 1f8:	1201                	addi	tp,tp,-32
 1fa:	4006                	0x4006
 1fc:	9718                	0x9718
 1fe:	1942                	slli	s2,s2,0x30
 200:	1301                	addi	t1,t1,-32
 202:	0000                	unimp
 204:	3426                	fld	fs0,104(sp)
 206:	0300                	addi	s0,sp,384
 208:	3a0e                	fld	fs4,224(sp)
 20a:	39053b0b          	0x39053b0b
                line[size_b-1-j][k] = pola[k]*polb[j];
 20e:	0213490b          	0x213490b
 212:	27000017          	auipc	zero,0x27000
 216:	0034                	addi	a3,sp,8
 218:	0b3a0803          	lb	a6,179(s4)
            for (k = size_a-1; k >= 0; k = k-1 ){
 21c:	0b39053b          	0xb39053b
                line[size_b-1-j][k] = pola[k]*polb[j];
 220:	1349                	addi	t1,t1,-14
 222:	0b1c                	addi	a5,sp,400
            for (k = size_a-1; k >= 0; k = k-1 ){
 224:	0000                	unimp
 226:	3428                	fld	fa0,104(s0)
        for (j = size_b -1; j >= 0; j = j-1){
 228:	0300                	addi	s0,sp,384
 22a:	3a0e                	fld	fs4,224(sp)
 22c:	39053b0b          	0x39053b0b
            for (k = size_a-1; k >= 0; k = k-1 ){
 230:	0213490b          	0x213490b
                line[size_b-1-j][k + j] = pola[k]*polb[j];
 234:	0018                	0x18
 236:	2900                	fld	fs0,16(a0)
 238:	0034                	addi	a3,sp,8
 23a:	0b3a0e03          	lb	t3,179(s4)
 23e:	0b39053b          	0xb39053b
 242:	1349                	addi	t1,t1,-14
            for (k = size_a-1; k >= 0; k = k-1 ){
 244:	0000                	unimp
                line[size_b-1-j][k + j] = pola[k]*polb[j];
 246:	342a                	fld	fs0,168(sp)
 248:	0300                	addi	s0,sp,384
 24a:	3a08                	fld	fa0,48(a2)
            for (k = size_a-1; k >= 0; k = k-1 ){
 24c:	39053b0b          	0x39053b0b
        for (j = size_b -1; j >= 0; j = j-1){
 250:	0213490b          	0x213490b
 254:	2b000017          	auipc	zero,0x2b000
        array_mod(line[i],mod,(size_a+size_b-1));
 258:	8289                	srli	a3,a3,0x2
 25a:	0101                	addi	sp,sp,0
 25c:	0111                	addi	sp,sp,4
 25e:	1331                	addi	t1,t1,-20
    for (i = 0; i < size_b; ++i){
 260:	1301                	addi	t1,t1,-32
 262:	0000                	unimp
 264:	8a2c                	0x8a2c
            product[j] += line[i][j];
 266:	0182                	c.slli64	gp
 268:	0200                	addi	s0,sp,256
 26a:	9118                	0x9118
 26c:	1842                	slli	a6,a6,0x30
 26e:	0000                	unimp
        for(i = 0; i < size_b; ++i){
 270:	892d                	andi	a0,a0,11
            product[j] += line[i][j];
 272:	0182                	c.slli64	gp
 274:	1101                	addi	sp,sp,-32
 276:	3101                	jal	fffffe76 <_stack_start+0xfffefe76>
 278:	2e000013          	li	zero,736
 27c:	0021                	c.nop	8
        for(i = 0; i < size_b; ++i){
 27e:	1349                	addi	t1,t1,-14
 280:	0000182f          	0x182f
    for(j = 0; j < size_a + size_b -1; ++j){
 284:	3f012e2f          	0x3f012e2f
        for(i = 0; i < size_b; ++i){
 288:	0319                	addi	t1,t1,6
 28a:	3a0e                	fld	fs4,224(sp)
    int line[size_b][size_a + size_b];
 28c:	39053b0b          	0x39053b0b
 290:	4919270b          	0x4919270b
 294:	12011113          	0x12011113
 298:	4006                	0x4006
 29a:	9718                	0x9718
 29c:	1942                	slli	s2,s2,0x30
 29e:	1301                	addi	t1,t1,-32
int *polymult2(int *a, int size_a, int *b, int size_b, int star_mult){
 2a0:	0000                	unimp
 2a2:	0530                	addi	a2,sp,648
 2a4:	0300                	addi	s0,sp,384
 2a6:	3a08                	fld	fa0,48(a2)
 2a8:	39053b0b          	0x39053b0b
 2ac:	0213490b          	0x213490b
 2b0:	31000017          	auipc	zero,0x31000
    int line[size_b][size_a + size_b];
 2b4:	0005                	c.nop	1
 2b6:	0b3a0e03          	lb	t3,179(s4)
    int pola[size_a];
 2ba:	0b39053b          	0xb39053b
 2be:	1349                	addi	t1,t1,-14
 2c0:	1702                	slli	a4,a4,0x20
    int line[size_b][size_a + size_b];
 2c2:	0000                	unimp
    int pola[size_a];
 2c4:	3432                	fld	fs0,296(sp)
 2c6:	0300                	addi	s0,sp,384
    int polb[size_b];
 2c8:	3a08                	fld	fa0,48(a2)
 2ca:	39053b0b          	0x39053b0b
    int pola[size_a];
 2ce:	0213490b          	0x213490b
    int polb[size_b];
 2d2:	0018                	0x18
    int line[size_b][size_a + size_b];
 2d4:	3300                	fld	fs0,32(a4)
 2d6:	0034                	addi	a3,sp,8
    int pola[size_a];
 2d8:	1349                	addi	t1,t1,-14
 2da:	1934                	addi	a3,sp,184
    int polb[size_b];
 2dc:	1702                	slli	a4,a4,0x20
            line[i][j] = 0;
 2de:	0000                	unimp
 2e0:	2134                	fld	fa3,64(a0)
 2e2:	4900                	lw	s0,16(a0)
    for (i = 0; i < size_b; ++i){
 2e4:	00132f13          	slti	t5,t1,1
            product2[j] = 0;
 2e8:	3500                	fld	fs0,40(a0)
 2ea:	012e                	slli	sp,sp,0xb
 2ec:	0e03193f 0b3b0b3a 	0xb3b0b3a0e03193f
    for(i = 0; i < size_a; ++i){
 2f4:	0b39                	addi	s6,s6,14
 2f6:	13491927          	0x13491927
    for(i = 0; i < size_b; ++i){
 2fa:	0111                	addi	sp,sp,4
 2fc:	0612                	slli	a2,a2,0x4
 2fe:	1840                	addi	s0,sp,52
    if(star_mult == 1){
 300:	01194297          	auipc	t0,0x1194
 304:	36000013          	li	zero,864
 308:	0005                	c.nop	1
 30a:	0b3a0803          	lb	a6,179(s4)
        for (j = size_b -1; j >= 0; j = j-1){
 30e:	0b390b3b          	0xb390b3b
            for (k = size_a-1; k >= 0; k = k-1 ){
 312:	1349                	addi	t1,t1,-14
 314:	1702                	slli	a4,a4,0x20
            product2[j] = 0;
 316:	0000                	unimp
 318:	03000537          	lui	a0,0x3000
            line[i][j] = 0;
 31c:	3a0e                	fld	fs4,224(sp)
 31e:	390b3b0b          	0x390b3b0b
            product2[j] = 0;
 322:	0213490b          	0x213490b
        for(j = 0; j < size_a + size_b -1; ++j){
 326:	38000017          	auipc	zero,0x38000
 32a:	0034                	addi	a3,sp,8
    for (i = 0; i < size_b; ++i){
 32c:	0b3a0803          	lb	a6,179(s4)
 330:	0b390b3b          	0xb390b3b
        for(j = 0; j < size_a + size_b -1; ++j){
 334:	1349                	addi	t1,t1,-14
 336:	1702                	slli	a4,a4,0x20
        pola[i] = a[i];
 338:	0000                	unimp
 33a:	3439                	jal	fffffd48 <_stack_start+0xfffefd48>
 33c:	0300                	addi	s0,sp,384
 33e:	3a08                	fld	fa0,48(a2)
 340:	390b3b0b          	0x390b3b0b
    for(i = 0; i < size_a; ++i){
 344:	0013490b          	0x13490b
        pola[i] = a[i];
 348:	3a00                	fld	fs0,48(a2)
    for(i = 0; i < size_a; ++i){
 34a:	0034                	addi	a3,sp,8
        polb[i] = b[i];
 34c:	0b3a0e03          	lb	t3,179(s4)
 350:	0b390b3b          	0xb390b3b
 354:	1349                	addi	t1,t1,-14
 356:	1702                	slli	a4,a4,0x20
    for(i = 0; i < size_b; ++i){
 358:	0000                	unimp
        polb[i] = b[i];
 35a:	0300053b          	0x300053b
    for(i = 0; i < size_b; ++i){
 35e:	3a0e                	fld	fs4,224(sp)
                line[size_b-1-j][k] = pola[k]*polb[j];
 360:	390b3b0b          	0x390b3b0b
 364:	0213490b          	0x213490b
 368:	0018                	0x18
 36a:	3c00                	fld	fs0,56(s0)
 36c:	012e                	slli	sp,sp,0xb
 36e:	0e03193f 0b3b0b3a 	0xb3b0b3a0e03193f
 376:	0b39                	addi	s6,s6,14
            for (k = size_a-1; k >= 0; k = k-1 ){
 378:	01111927          	0x1111927
        for (j = size_b -1; j >= 0; j = j-1){
 37c:	0612                	slli	a2,a2,0x4
 37e:	1840                	addi	s0,sp,52
 380:	01194297          	auipc	t0,0x1194
 384:	3d000013          	li	zero,976
 388:	0005                	c.nop	1
 38a:	0b3a0803          	lb	a6,179(s4)
        for(i = 0; i < size_b; ++i){
 38e:	0b390b3b          	0xb390b3b
    for(j = 0; j < size_a + size_b -1; ++j){
 392:	1349                	addi	t1,t1,-14
}
 394:	1802                	slli	a6,a6,0x20
 396:	0000                	unimp
 398:	1d3e                	slli	s10,s10,0x2f
 39a:	3101                	jal	ffffff9a <_stack_start+0xfffeff9a>
 39c:	55015213          	0x55015213
 3a0:	590b5817          	auipc	a6,0x590b5
 3a4:	000b570b          	0xb570b
 3a8:	3f00                	fld	fs0,56(a4)
 3aa:	0005                	c.nop	1
 3ac:	1331                	addi	t1,t1,-20
 3ae:	1702                	slli	a4,a4,0x20
 3b0:	0000                	unimp
            for (k = size_a-1; k >= 0; k = k-1 ){
 3b2:	2e40                	fld	fs0,152(a2)
 3b4:	3f01                	jal	2c4 <polymult2+0x38>
                line[size_b-1-j][k + j] = pola[k]*polb[j];
 3b6:	0319                	addi	t1,t1,6
 3b8:	3a0e                	fld	fs4,224(sp)
 3ba:	390b3b0b          	0x390b3b0b
 3be:	2019270b          	0x2019270b
 3c2:	0013010b          	0x13010b
            for (k = size_a-1; k >= 0; k = k-1 ){
 3c6:	4100                	lw	s0,0(a0)
                line[size_b-1-j][k + j] = pola[k]*polb[j];
 3c8:	0005                	c.nop	1
 3ca:	0b3a0803          	lb	a6,179(s4)
            for (k = size_a-1; k >= 0; k = k-1 ){
 3ce:	0b390b3b          	0xb390b3b
        for (j = size_b -1; j >= 0; j = j-1){
 3d2:	1349                	addi	t1,t1,-14
 3d4:	0000                	unimp
 3d6:	2e42                	fld	ft8,16(sp)
 3d8:	3101                	jal	ffffffd8 <_stack_start+0xfffeffd8>
            product2[j] += line[i][j];
 3da:	12011113          	0x12011113
 3de:	4006                	0x4006
        for(i = 0; i < size_b; ++i){
 3e0:	9718                	0x9718
            product2[j] += line[i][j];
 3e2:	1942                	slli	s2,s2,0x30
 3e4:	1301                	addi	t1,t1,-32
 3e6:	0000                	unimp
 3e8:	31000543          	fmadd.s	fa0,ft0,fa6,ft6,rne
 3ec:	00180213          	addi	tp,a6,1 # 590b53a1 <_stack_start+0x590a53a1>
        for(i = 0; i < size_b; ++i){
 3f0:	4400                	lw	s0,8(s0)
    for(j = 0; j < size_a + size_b -1; ++j){
 3f2:	002e                	c.slli	zero,0xb
 3f4:	193c193f 0e030e6e 	0xe030e6e193c193f
    int v[size_N];
 3fc:	0b3a                	slli	s6,s6,0xe
 3fe:	00000b3b          	0xb3b
 402:	0100                	addi	s0,sp,128
 404:	0011                	c.nop	4
int *polydiv(int *num, int size_N, int*denum, int size_D, int mod){
 406:	0610                	addi	a2,sp,768
 408:	0655                	addi	a2,a2,21
 40a:	0e1b0e03          	lb	t3,225(s6)
 40e:	0e25                	addi	t3,t3,9
 410:	00000513          	li	a0,0
	...

Disassembly of section .debug_loc:

00000000 <.debug_loc>:
  .endr
       0:	1040                	addi	s0,sp,36
       2:	0000                	unimp
       4:	1054                	addi	a3,sp,36
       6:	0000                	unimp
       8:	0001                	nop
       a:	545a                	lw	s0,180(sp)
       c:	0010                	0x10
       e:	5500                	lw	s0,40(a0)
      10:	0010                	0x10
      12:	0100                	addi	s0,sp,128
      14:	5f00                	lw	s0,56(a4)
	...
      1e:	1056                	c.slli	zero,0x35
      20:	0000                	unimp
      22:	1096                	slli	ra,ra,0x25
      24:	0000                	unimp
      26:	0001                	nop
      28:	9c5a                	add	s8,s8,s6
      2a:	0010                	0x10
      2c:	a600                	fsd	fs0,8(a2)
      2e:	0010                	0x10
      30:	0100                	addi	s0,sp,128
      32:	5a00                	lw	s0,48(a2)
	...
      3c:	0fb4                	addi	a3,sp,984
      3e:	0000                	unimp
      40:	1008                	addi	a0,sp,32
      42:	0000                	unimp
      44:	0001                	nop
      46:	085a                	slli	a6,a6,0x16
      48:	0010                	0x10
      4a:	3000                	fld	fs0,32(s0)
      4c:	0010                	0x10
      4e:	0400                	addi	s0,sp,512
      50:	7a00                	flw	fs0,48(a2)
      52:	7684                	flw	fs1,40(a3)
      54:	009f 0000 0000      	0x9f
      5a:	0000                	unimp
      5c:	9600                	0x9600
      5e:	ea00000f          	0xea00000f
      62:	0300000f          	fence	rw,unknown
      66:	9100                	0x9100
      68:	799c                	flw	fa5,48(a1)
      6a:	0fea                	slli	t6,t6,0x1a
      6c:	0000                	unimp
      6e:	0ff4                	addi	a3,sp,988
      70:	0000                	unimp
      72:	0002                	c.slli64	zero
      74:	007e                	c.slli	zero,0x1f
      76:	0ff4                	addi	a3,sp,988
      78:	0000                	unimp
      7a:	00001033          	sll	zero,zero,zero
  jal x0, default_exc_handler
      7e:	0002                	c.slli64	zero
  jal x0, reset_handler
      80:	007d                	c.nop	31
      82:	00001033          	sll	zero,zero,zero
  jal x0, default_exc_handler
      86:	109a                	slli	ra,ra,0x26
  jal x0, default_exc_handler
      88:	0000                	unimp
      8a:	9c910003          	lb	zero,-1591(sp) # b0afb2f <_stack_start+0xb09fb2f>
    asm volatile(
      8e:	9a79                	andi	a2,a2,-2
}
      90:	0010                	0x10
    for(i=0;i<(length/3);i++) {
      92:	9c00                	0x9c00
      94:	0010                	0x10
      96:	0300                	addi	s0,sp,384
    asm volatile(
      98:	7200                	flw	fs0,32(a2)
    for(i=0;i<(length/3);i++) {
      9a:	799c                	flw	fa5,48(a1)
      9c:	109c                	addi	a5,sp,96
      9e:	0000                	unimp
}
      a0:	10a6                	slli	ra,ra,0x29
    asm volatile(
      a2:	0000                	unimp
      a4:	9c910003          	lb	zero,-1591(sp)
      a8:	0079                	c.nop	30
      aa:	0000                	unimp
    for(i=0;i<(length/3);i++) {
      ac:	0000                	unimp
      ae:	0000                	unimp
int *polymult(int *a, int size_a, int *b, int size_b, int mod, int star_mult){
      b0:	9600                	0x9600
      b2:	c400000f          	0xc400000f
      b6:	0300000f          	fence	rw,unknown
      ba:	9100                	0x9100
    int line[size_b][size_a + size_b];
      bc:	7af0                	flw	fa2,116(a3)
      be:	0fc4                	addi	s1,sp,980
int *polymult(int *a, int size_a, int *b, int size_b, int mod, int star_mult){
      c0:	0000                	unimp
      c2:	0fc6                	slli	t6,t6,0x11
    int line[size_b][size_a + size_b];
      c4:	0000                	unimp
      c6:	0002                	c.slli64	zero
      c8:	007d                	c.nop	31
      ca:	0fc6                	slli	t6,t6,0x11
      cc:	0000                	unimp
      ce:	104c                	addi	a1,sp,36
int *polymult(int *a, int size_a, int *b, int size_b, int mod, int star_mult){
      d0:	0000                	unimp
      d2:	f0910003          	lb	zero,-247(sp)
      d6:	4c7a                	lw	s8,156(sp)
      d8:	0010                	0x10
      da:	5500                	lw	s0,40(a0)
      dc:	0010                	0x10
      de:	0200                	addi	s0,sp,256
      e0:	7d00                	flw	fs0,56(a0)
    int line[size_b][size_a + size_b];
      e2:	5500                	lw	s0,40(a0)
int *polymult(int *a, int size_a, int *b, int size_b, int mod, int star_mult){
      e4:	0010                	0x10
    int line[size_b][size_a + size_b];
      e6:	9a00                	0x9a00
      e8:	0010                	0x10
      ea:	0300                	addi	s0,sp,384
    int pola[size_a];
      ec:	9100                	0x9100
      ee:	7af0                	flw	fa2,116(a3)
      f0:	109a                	slli	ra,ra,0x26
int *polymult(int *a, int size_a, int *b, int size_b, int mod, int star_mult){
      f2:	0000                	unimp
    int line[size_b][size_a + size_b];
      f4:	109c                	addi	a5,sp,96
      f6:	0000                	unimp
    int pola[size_a];
      f8:	f0720003          	lb	zero,-249(tp) # 67f07 <_stack_start+0x57f07>
    int polb[size_b];
      fc:	9c7a                	add	s8,s8,t5
    int line[size_b][size_a + size_b];
      fe:	0010                	0x10
    int polb[size_b];
     100:	a600                	fsd	fs0,8(a2)
    int pola[size_a];
     102:	0010                	0x10
     104:	0300                	addi	s0,sp,384
int *polymult(int *a, int size_a, int *b, int size_b, int mod, int star_mult){
     106:	9100                	0x9100
     108:	7af0                	flw	fa2,116(a3)
	...
    int polb[size_b];
     112:	0f96                	slli	t6,t6,0x5
int *polymult(int *a, int size_a, int *b, int size_b, int mod, int star_mult){
     114:	0000                	unimp
    int pola[size_a];
     116:	0fd0                	addi	a2,sp,980
     118:	0000                	unimp
    int polb[size_b];
     11a:	c4910003          	lb	zero,-951(sp)
            line[i][j] = 0;
     11e:	d07c                	sw	a5,100(s0)
     120:	da00000f          	0xda00000f
    for (i = 0; i < size_b; ++i){
     124:	0200000f          	fence	r,unknown
            product[j] = 0;
     128:	7e00                	flw	fs0,56(a2)
     12a:	da00                	sw	s0,48(a2)
     12c:	9400000f          	0x9400000f
    for (i = 0; i < size_b; ++i){
     130:	0010                	0x10
    for (i = 0; i < size_a; ++i){
     132:	0200                	addi	s0,sp,256
     134:	8200                	0x8200
     136:	9400                	0x9400
	array_mod(pola,mod,size_a);
     138:	0010                	0x10
     13a:	9a00                	0x9a00
     13c:	0010                	0x10
     13e:	0300                	addi	s0,sp,384
     140:	9100                	0x9100
     142:	7cc4                	flw	fs1,60(s1)
    for (i = 0; i < size_b; ++i){
     144:	109a                	slli	ra,ra,0x26
     146:	0000                	unimp
     148:	109c                	addi	a5,sp,96
     14a:	0000                	unimp
     14c:	c4720003          	lb	zero,-953(tp) # fffffc47 <_stack_start+0xfffefc47>
	array_mod(polb,mod,size_b);
     150:	9c7c                	0x9c7c
     152:	0010                	0x10
     154:	a600                	fsd	fs0,8(a2)
    if(star_mult == 1){
     156:	0010                	0x10
     158:	0200                	addi	s0,sp,256
     15a:	8200                	0x8200
	...
     164:	9600                	0x9600
     166:	0400000f          	fence	o,unknown
        for (j = size_b -1; j >= 0; j = j-1){
     16a:	0010                	0x10
     16c:	0300                	addi	s0,sp,384
            for (k = size_a-1; k >= 0; k = k-1 ){
     16e:	9100                	0x9100
     170:	7e98                	flw	fa4,56(a3)
            product[j] = 0;
     172:	1004                	addi	s1,sp,32
     174:	0000                	unimp
     176:	100a                	c.slli	zero,0x22
            line[i][j] = 0;
     178:	0000                	unimp
     17a:	0002                	c.slli64	zero
            product[j] = 0;
     17c:	007c                	addi	a5,sp,12
     17e:	100a                	c.slli	zero,0x22
        for(j = 0; j < size_a + size_b -1; ++j){
     180:	0000                	unimp
     182:	00001033          	sll	zero,zero,zero
     186:	0002                	c.slli64	zero
    for (i = 0; i < size_b; ++i){
     188:	0080                	addi	s0,sp,64
     18a:	00001033          	sll	zero,zero,zero
     18e:	109a                	slli	ra,ra,0x26
        for(j = 0; j < size_a + size_b -1; ++j){
     190:	0000                	unimp
     192:	98910003          	lb	zero,-1655(sp)
        pola[i] = a[i];
     196:	9a7e                	add	s4,s4,t6
     198:	0010                	0x10
     19a:	9c00                	0x9c00
     19c:	0010                	0x10
     19e:	0300                	addi	s0,sp,384
    for (i = 0; i < size_a; ++i){
     1a0:	7200                	flw	fs0,32(a2)
        pola[i] = a[i];
     1a2:	7e98                	flw	fa4,56(a3)
     1a4:	109c                	addi	a5,sp,96
    for (i = 0; i < size_a; ++i){
     1a6:	0000                	unimp
        polb[i] = b[i];
     1a8:	10a6                	slli	ra,ra,0x29
     1aa:	0000                	unimp
     1ac:	98910003          	lb	zero,-1655(sp)
     1b0:	007e                	c.slli	zero,0x1f
     1b2:	0000                	unimp
    for (i = 0; i < size_b; ++i){
     1b4:	0000                	unimp
        polb[i] = b[i];
     1b6:	0000                	unimp
    for (i = 0; i < size_b; ++i){
     1b8:	b800                	fsd	fs0,48(s0)
    if(star_mult == 1){
     1ba:	bc00000f          	0xbc00000f
        for (j = size_b -1; j >= 0; j = j-1){
     1be:	0200000f          	fence	r,unknown
    for (i = 0; i < size_b; ++i){
     1c2:	3000                	fld	fs0,32(s0)
     1c4:	609f 0010 6a00      	0x6a000010609f
     1ca:	0010                	0x10
     1cc:	0200                	addi	s0,sp,256
    for(j = 0; j < size_a + size_b -1; ++j){
     1ce:	3000                	fld	fs0,32(s0)
     1d0:	009f 0000 0000      	0x9f
    array_mod(product,mod,size_a+size_b-1);
     1d6:	0000                	unimp
     1d8:	aa00                	fsd	fs0,16(a2)
     1da:	000c                	0xc
     1dc:	c200                	sw	s0,0(a2)
     1de:	000c                	0xc
     1e0:	0100                	addi	s0,sp,128
}
     1e2:	5a00                	lw	s0,48(a2)
     1e4:	0cc2                	slli	s9,s9,0x10
     1e6:	0000                	unimp
     1e8:	0d2a                	slli	s10,s10,0xa
     1ea:	0000                	unimp
     1ec:	0001                	nop
     1ee:	2a58                	fld	fa4,144(a2)
     1f0:	000d                	c.nop	3
     1f2:	3600                	fld	fs0,40(a2)
     1f4:	000d                	c.nop	3
     1f6:	0300                	addi	s0,sp,384
     1f8:	8600                	0x8600
     1fa:	9f7f                	0x9f7f
     1fc:	0d36                	slli	s10,s10,0xd
     1fe:	0000                	unimp
     200:	0d3c                	addi	a5,sp,664
     202:	0000                	unimp
     204:	0004                	0x4
     206:	9f5a01f3          	0x9f5a01f3
     20a:	0d3c                	addi	a5,sp,664
                line[size_b-1-j][k] = pola[k]*polb[j];
     20c:	0000                	unimp
     20e:	0d72                	slli	s10,s10,0x1c
     210:	0000                	unimp
     212:	0001                	nop
     214:	0058                	addi	a4,sp,4
     216:	0000                	unimp
     218:	0000                	unimp
     21a:	0000                	unimp
            for (k = size_a-1; k >= 0; k = k-1 ){
     21c:	aa00                	fsd	fs0,16(a2)
                line[size_b-1-j][k] = pola[k]*polb[j];
     21e:	000c                	0xc
     220:	cc00                	sw	s0,24(s0)
     222:	000c                	0xc
            for (k = size_a-1; k >= 0; k = k-1 ){
     224:	0100                	addi	s0,sp,128
     226:	5b00                	lw	s0,48(a4)
        for (j = size_b -1; j >= 0; j = j-1){
     228:	0ccc                	addi	a1,sp,596
     22a:	0000                	unimp
     22c:	0d34                	addi	a3,sp,664
     22e:	0000                	unimp
            for (k = size_a-1; k >= 0; k = k-1 ){
     230:	0001                	nop
     232:	3465                	jal	fffffcda <_stack_start+0xfffefcda>
                line[size_b-1-j][k + j] = pola[k]*polb[j];
     234:	000d                	c.nop	3
     236:	3c00                	fld	fs0,56(s0)
     238:	000d                	c.nop	3
     23a:	0400                	addi	s0,sp,512
     23c:	f300                	fsw	fs0,32(a4)
     23e:	5b01                	li	s6,-32
     240:	3c9f 000d 7200      	0x7200000d3c9f
     246:	000d                	c.nop	3
     248:	0100                	addi	s0,sp,128
     24a:	6500                	flw	fs0,8(a0)
	...
        for (j = size_b -1; j >= 0; j = j-1){
     254:	0caa                	slli	s9,s9,0xa
     256:	0000                	unimp
        array_mod(line[i],mod,(size_a+size_b-1));
     258:	0cc4                	addi	s1,sp,596
     25a:	0000                	unimp
     25c:	0001                	nop
     25e:	c45c                	sw	a5,12(s0)
    for (i = 0; i < size_b; ++i){
     260:	000c                	0xc
     262:	2e00                	fld	fs0,24(a2)
     264:	000d                	c.nop	3
            product[j] += line[i][j];
     266:	0100                	addi	s0,sp,128
     268:	6200                	flw	fs0,0(a2)
     26a:	0d2e                	slli	s10,s10,0xb
     26c:	0000                	unimp
     26e:	0d3c                	addi	a5,sp,664
        for(i = 0; i < size_b; ++i){
     270:	0000                	unimp
            product[j] += line[i][j];
     272:	0004                	0x4
     274:	9f5c01f3          	0x9f5c01f3
     278:	0d3c                	addi	a5,sp,664
     27a:	0000                	unimp
     27c:	0d72                	slli	s10,s10,0x1c
        for(i = 0; i < size_b; ++i){
     27e:	0000                	unimp
     280:	0001                	nop
    for(j = 0; j < size_a + size_b -1; ++j){
     282:	0062                	c.slli	zero,0x18
     284:	0000                	unimp
     286:	0000                	unimp
        for(i = 0; i < size_b; ++i){
     288:	0000                	unimp
     28a:	aa00                	fsd	fs0,16(a2)
    int line[size_b][size_a + size_b];
     28c:	000c                	0xc
     28e:	c600                	sw	s0,8(a2)
     290:	000c                	0xc
     292:	0100                	addi	s0,sp,128
     294:	5d00                	lw	s0,56(a0)
     296:	0cc6                	slli	s9,s9,0x11
     298:	0000                	unimp
     29a:	0cdf 0000 0001      	0x100000cdf
int *polymult2(int *a, int size_a, int *b, int size_b, int star_mult){
     2a0:	df5a                	sw	s6,188(sp)
     2a2:	000c                	0xc
     2a4:	7200                	flw	fs0,32(a2)
     2a6:	000d                	c.nop	3
     2a8:	0400                	addi	s0,sp,512
     2aa:	f300                	fsw	fs0,32(a4)
     2ac:	5d01                	li	s10,-32
     2ae:	009f 0000 0000      	0x9f
    int line[size_b][size_a + size_b];
     2b4:	0000                	unimp
     2b6:	aa00                	fsd	fs0,16(a2)
     2b8:	000c                	0xc
    int pola[size_a];
     2ba:	ce00                	sw	s0,24(a2)
     2bc:	000c                	0xc
     2be:	0100                	addi	s0,sp,128
     2c0:	5e00                	lw	s0,56(a2)
    int line[size_b][size_a + size_b];
     2c2:	0cce                	slli	s9,s9,0x13
    int pola[size_a];
     2c4:	0000                	unimp
     2c6:	0d38                	addi	a4,sp,664
    int polb[size_b];
     2c8:	0000                	unimp
     2ca:	0001                	nop
     2cc:	000d3867          	0xd3867
     2d0:	3c00                	fld	fs0,56(s0)
     2d2:	000d                	c.nop	3
    int line[size_b][size_a + size_b];
     2d4:	0400                	addi	s0,sp,512
     2d6:	f300                	fsw	fs0,32(a4)
    int pola[size_a];
     2d8:	5e01                	li	t3,-32
     2da:	3c9f 000d 7200      	0x7200000d3c9f
            line[i][j] = 0;
     2e0:	000d                	c.nop	3
     2e2:	0100                	addi	s0,sp,128
    for (i = 0; i < size_b; ++i){
     2e4:	6700                	flw	fs0,8(a4)
	...
            product2[j] = 0;
     2ee:	0caa                	slli	s9,s9,0xa
    for (i = 0; i < size_b; ++i){
     2f0:	0000                	unimp
     2f2:	0cdf 0000 0001      	0x100000cdf
    for(i = 0; i < size_a; ++i){
     2f8:	df5f 000c 7200      	0x7200000cdf5f
    for(i = 0; i < size_b; ++i){
     2fe:	000d                	c.nop	3
    if(star_mult == 1){
     300:	0400                	addi	s0,sp,512
     302:	f300                	fsw	fs0,32(a4)
     304:	5f01                	li	t5,-32
     306:	009f 0000 0000      	0x9f
     30c:	0000                	unimp
        for (j = size_b -1; j >= 0; j = j-1){
     30e:	aa00                	fsd	fs0,16(a2)
     310:	000c                	0xc
            for (k = size_a-1; k >= 0; k = k-1 ){
     312:	df00                	sw	s0,56(a4)
     314:	000c                	0xc
            product2[j] = 0;
     316:	0100                	addi	s0,sp,128
     318:	6000                	flw	fs0,0(s0)
     31a:	0cdf 0000 0d32      	0xd3200000cdf
     320:	0000                	unimp
     322:	0001                	nop
        for(j = 0; j < size_a + size_b -1; ++j){
     324:	3264                	fld	fs1,224(a2)
     326:	000d                	c.nop	3
     328:	3c00                	fld	fs0,56(s0)
     32a:	000d                	c.nop	3
    for (i = 0; i < size_b; ++i){
     32c:	0400                	addi	s0,sp,512
     32e:	f300                	fsw	fs0,32(a4)
     330:	6001                	0x6001
     332:	3c9f 000d 7200      	0x7200000d3c9f
        pola[i] = a[i];
     338:	000d                	c.nop	3
     33a:	0100                	addi	s0,sp,128
     33c:	6400                	flw	fs0,8(s0)
	...
     346:	0ce0                	addi	s0,sp,604
     348:	0000                	unimp
    for(i = 0; i < size_a; ++i){
     34a:	00000cef          	jal	s9,34a <polymult2+0xbe>
        polb[i] = b[i];
     34e:	0001                	nop
     350:	005a                	c.slli	zero,0x16
     352:	0000                	unimp
     354:	0000                	unimp
     356:	0000                	unimp
    for(i = 0; i < size_b; ++i){
     358:	f200                	fsw	fs0,32(a2)
        polb[i] = b[i];
     35a:	000c                	0xc
     35c:	1000                	addi	s0,sp,32
    for(i = 0; i < size_b; ++i){
     35e:	000d                	c.nop	3
                line[size_b-1-j][k] = pola[k]*polb[j];
     360:	0100                	addi	s0,sp,128
     362:	5a00                	lw	s0,48(a2)
     364:	0d10                	addi	a2,sp,656
     366:	0000                	unimp
     368:	00000d13          	li	s10,0
     36c:	0001                	nop
     36e:	3c5c                	fld	fa5,184(s0)
            for (k = size_a-1; k >= 0; k = k-1 ){
     370:	000d                	c.nop	3
                line[size_b-1-j][k] = pola[k]*polb[j];
     372:	6000                	flw	fs0,0(s0)
     374:	000d                	c.nop	3
     376:	0100                	addi	s0,sp,128
            for (k = size_a-1; k >= 0; k = k-1 ){
     378:	5a00                	lw	s0,48(a2)
	...
        for (j = size_b -1; j >= 0; j = j-1){
     382:	0d14                	addi	a3,sp,656
     384:	0000                	unimp
     386:	0d1f 0000 0001      	0x100000d1f
     38c:	005a                	c.slli	zero,0x16
        for(i = 0; i < size_b; ++i){
     38e:	0000                	unimp
    for(j = 0; j < size_a + size_b -1; ++j){
     390:	0000                	unimp
     392:	0000                	unimp
}
     394:	2000                	fld	fs0,0(s0)
     396:	000d                	c.nop	3
     398:	3c00                	fld	fs0,56(s0)
     39a:	000d                	c.nop	3
     39c:	0100                	addi	s0,sp,128
     39e:	5a00                	lw	s0,48(a2)
     3a0:	0d60                	addi	s0,sp,668
     3a2:	0000                	unimp
     3a4:	0d72                	slli	s10,s10,0x1c
     3a6:	0000                	unimp
     3a8:	0001                	nop
     3aa:	005a                	c.slli	zero,0x16
     3ac:	0000                	unimp
     3ae:	0000                	unimp
     3b0:	0000                	unimp
            for (k = size_a-1; k >= 0; k = k-1 ){
     3b2:	f200                	fsw	fs0,32(a2)
     3b4:	000c                	0xc
                line[size_b-1-j][k + j] = pola[k]*polb[j];
     3b6:	f800                	fsw	fs0,48(s0)
     3b8:	000c                	0xc
     3ba:	0100                	addi	s0,sp,128
     3bc:	5900                	lw	s0,48(a0)
     3be:	0cf8                	addi	a4,sp,604
     3c0:	0000                	unimp
     3c2:	0d04                	addi	s1,sp,656
     3c4:	0000                	unimp
            for (k = size_a-1; k >= 0; k = k-1 ){
     3c6:	0001                	nop
                line[size_b-1-j][k + j] = pola[k]*polb[j];
     3c8:	045d                	addi	s0,s0,23
     3ca:	000d                	c.nop	3
     3cc:	0a00                	addi	s0,sp,272
            for (k = size_a-1; k >= 0; k = k-1 ){
     3ce:	000d                	c.nop	3
     3d0:	0100                	addi	s0,sp,128
        for (j = size_b -1; j >= 0; j = j-1){
     3d2:	5e00                	lw	s0,56(a2)
     3d4:	0d20                	addi	s0,sp,664
     3d6:	0000                	unimp
     3d8:	0d2c                	addi	a1,sp,664
            product2[j] += line[i][j];
     3da:	0000                	unimp
     3dc:	0001                	nop
     3de:	3c59                	jal	fffffe74 <_stack_start+0xfffefe74>
        for(i = 0; i < size_b; ++i){
     3e0:	000d                	c.nop	3
            product2[j] += line[i][j];
     3e2:	4600                	lw	s0,8(a2)
     3e4:	000d                	c.nop	3
     3e6:	0100                	addi	s0,sp,128
     3e8:	5d00                	lw	s0,56(a0)
     3ea:	0d46                	slli	s10,s10,0x11
     3ec:	0000                	unimp
        for(i = 0; i < size_b; ++i){
     3ee:	0d4c                	addi	a1,sp,660
     3f0:	0000                	unimp
    for(j = 0; j < size_a + size_b -1; ++j){
     3f2:	7f7d0003          	lb	zero,2039(s10) # 107f7 <_stack_start+0x7f7>
     3f6:	4c9f 000d 4e00      	0x4e00000d4c9f
    int v[size_N];
     3fc:	000d                	c.nop	3
     3fe:	0100                	addi	s0,sp,128
int *polydiv(int *num, int size_N, int*denum, int size_D, int mod){
     400:	5d00                	lw	s0,56(a0)
    int v[size_N];
     402:	0d4e                	slli	s10,s10,0x13
     404:	0000                	unimp
int *polydiv(int *num, int size_N, int*denum, int size_D, int mod){
     406:	0d60                	addi	s0,sp,668
     408:	0000                	unimp
     40a:	0001                	nop
     40c:	605e                	flw	ft0,212(sp)
     40e:	000d                	c.nop	3
     410:	6a00                	flw	fs0,16(a2)
     412:	000d                	c.nop	3
     414:	0100                	addi	s0,sp,128
     416:	5900                	lw	s0,48(a0)
     418:	0d6a                	slli	s10,s10,0x1a
     41a:	0000                	unimp
     41c:	0d70                	addi	a2,sp,668
     41e:	0000                	unimp
     420:	7f790003          	lb	zero,2039(s2) # 27f7 <_min_stack+0x7f7>
    int v[size_N];
     424:	709f 000d 7200      	0x7200000d709f
    int q[size_N];
     42a:	000d                	c.nop	3
     42c:	0100                	addi	s0,sp,128
    int num_temp[size_N];
     42e:	5900                	lw	s0,48(a0)
	...
    int denum_temp[size_D];
     438:	0c14                	addi	a3,sp,528
    int num_temp[size_N];
     43a:	0000                	unimp
    int denum_temp[size_D];
     43c:	0c30                	addi	a2,sp,536
     43e:	0000                	unimp
int *polydiv(int *num, int size_N, int*denum, int size_D, int mod){
     440:	0001                	nop
     442:	305a                	fld	ft0,432(sp)
     444:	000c                	0xc
     446:	8200                	0x8200
    int v[size_N];
     448:	000c                	0xc
     44a:	0100                	addi	s0,sp,128
    int denum_temp[size_D];
     44c:	5800                	lw	s0,48(s0)
     44e:	0c82                	c.slli64	s9
     450:	0000                	unimp
    for (i = 0; i < size_N; ++i){
     452:	0caa                	slli	s9,s9,0xa
     454:	0000                	unimp
     456:	0004                	0x4
    if(size_N == 106) {
     458:	9f5a01f3          	0x9f5a01f3
	...
        array_mod(num_temp, mod, size_N - 1);
     464:	0c14                	addi	a3,sp,528
     466:	0000                	unimp
     468:	0c2a                	slli	s8,s8,0xa
        while(num_temp[size_N - 1] < 0){
     46a:	0000                	unimp
     46c:	0001                	nop
     46e:	000c2a5b          	0xc2a5b
        num_temp[size_N - 1] = num_temp[size_N - 1] % mod;
     472:	9000                	0x9000
     474:	000c                	0xc
     476:	0100                	addi	s0,sp,128
     478:	6200                	flw	fs0,0(a2)
    for (i = 0; i < size_N; ++i){
     47a:	0c90                	addi	a2,sp,592
    for (i = 0; i < size_D; ++i) {
     47c:	0000                	unimp
     47e:	0c98                	addi	a4,sp,592
	array_mod(denum_temp,mod,size_D);
     480:	0000                	unimp
     482:	0004                	0x4
     484:	9f5b01f3          	0x9f5b01f3
    for (i = 0; i < size_N; ++i){
     488:	0c98                	addi	a4,sp,592
     48a:	0000                	unimp
     48c:	0caa                	slli	s9,s9,0xa
    for (i = size_D-1; i >= 0; i = i-1){
     48e:	0000                	unimp
     490:	0001                	nop
     492:	0062                	c.slli	zero,0x18
     494:	0000                	unimp
     496:	0000                	unimp
     498:	0000                	unimp
    for (i = 0; i < size_N; ++i){
     49a:	1400                	addi	s0,sp,544
     49c:	000c                	0xc
        if ( (b_N*u)%mod == 1 )
     49e:	2e00                	fld	fs0,24(a2)
    for (u = 0; u < mod; ++u){
     4a0:	000c                	0xc
     4a2:	0100                	addi	s0,sp,128
     4a4:	5c00                	lw	s0,56(s0)
     4a6:	0c2e                	slli	s8,s8,0xb
        num_temp[i] = num[i];
     4a8:	0000                	unimp
     4aa:	0c6e                	slli	s8,s8,0x1b
     4ac:	0000                	unimp
     4ae:	0001                	nop
     4b0:	6e59                	lui	t3,0x16
     4b2:	000c                	0xc
    for (i = 0; i < size_N; ++i){
     4b4:	aa00                	fsd	fs0,16(a2)
        num_temp[i] = num[i];
     4b6:	000c                	0xc
    for (i = 0; i < size_N; ++i){
     4b8:	0400                	addi	s0,sp,512
            num_temp[size_N - 1] = num_temp[size_N - 1]+mod;
     4ba:	f300                	fsw	fs0,32(a4)
     4bc:	5c01                	li	s8,-32
     4be:	009f 0000 0000      	0x9f
        array_mod(num_temp, mod, size_N);
     4c4:	0000                	unimp
     4c6:	1400                	addi	s0,sp,544
     4c8:	000c                	0xc
     4ca:	3b00                	fld	fs0,48(a4)
        denum_temp[i] = denum[i];
     4cc:	000c                	0xc
     4ce:	0100                	addi	s0,sp,128
     4d0:	5d00                	lw	s0,56(a0)
     4d2:	00000c3b          	0xc3b
     4d6:	0c94                	addi	a3,sp,592
    for (i = 0; i < size_D; ++i) {
     4d8:	0000                	unimp
        denum_temp[i] = denum[i];
     4da:	0001                	nop
    for (i = 0; i < size_D; ++i) {
     4dc:	9464                	0x9464
        q[i] = 0;
     4de:	000c                	0xc
     4e0:	9800                	0x9800
     4e2:	000c                	0xc
     4e4:	0400                	addi	s0,sp,512
        v[i] = 0;
     4e6:	f300                	fsw	fs0,32(a4)
        q[i] = 0;
     4e8:	5d01                	li	s10,-32
     4ea:	989f 000c aa00      	0xaa00000c989f
    for (i = 0; i < size_N; ++i){
     4f0:	000c                	0xc
     4f2:	0100                	addi	s0,sp,128
        if( denum_temp[i] != 0 )
     4f4:	6400                	flw	fs0,8(s0)
	...
        if ( (b_N*u)%mod == 1 )
     4fe:	0c14                	addi	a3,sp,528
     500:	0000                	unimp
     502:	00000c3b          	0xc3b
    for (u = 0; u < mod; ++u){
     506:	0001                	nop
        if( num_temp[i] != 0 )
     508:	3b5e                	fld	fs6,496(sp)
    for (i = size_N-1; i >= 0; i = i-1){
     50a:	000c                	0xc
     50c:	9200                	0x9200
     50e:	000c                	0xc
     510:	0100                	addi	s0,sp,128
     512:	6300                	flw	fs0,0(a4)
     514:	0c92                	slli	s9,s9,0x4
     516:	0000                	unimp
         if(size_N == 106) {
     518:	0c98                	addi	a4,sp,592
     51a:	0000                	unimp
     51c:	0004                	0x4
        v[(d-d2)] = u*r_d;
     51e:	9f5e01f3          	0x9f5e01f3
     522:	0c98                	addi	a4,sp,592
     524:	0000                	unimp
     526:	0caa                	slli	s9,s9,0xa
     528:	0000                	unimp
     52a:	0001                	nop
         if(size_N == 106) {
     52c:	00000063          	beqz	zero,52c <polydiv+0x130>
            array_mod(v, mod, size_N - 1);
     530:	0000                	unimp
     532:	0000                	unimp
     534:	4e00                	lw	s0,24(a2)
     536:	000c                	0xc
     538:	7b00                	flw	fs0,48(a4)
            while(v[size_N - 1] < 0){
     53a:	000c                	0xc
     53c:	0100                	addi	s0,sp,128
     53e:	5a00                	lw	s0,48(a2)
	...
            v[size_N - 1] = v[size_N - 1] % mod;
     548:	0c4e                	slli	s8,s8,0x13
        product = polymult(denum_temp,size_D,v,size_D,mod,0);
     54a:	0000                	unimp
     54c:	0c54                	addi	a3,sp,532
     54e:	0000                	unimp
     550:	0002                	c.slli64	zero
     552:	9f30                	0x9f30
     554:	0c7c                	addi	a5,sp,540
     556:	0000                	unimp
        if(size_N == 106) {
     558:	0c8e                	slli	s9,s9,0x3
     55a:	0000                	unimp
     55c:	0001                	nop
     55e:	9859                	andi	s0,s0,-10
            array_mod(product, mod, size_N - 1);
     560:	000c                	0xc
     562:	a200                	fsd	fs0,0(a2)
     564:	000c                	0xc
     566:	0100                	addi	s0,sp,128
            while(product[size_N - 1] < 0){
     568:	5900                	lw	s0,48(a0)
     56a:	0ca2                	slli	s9,s9,0x8
     56c:	0000                	unimp
     56e:	0ca8                	addi	a0,sp,600
     570:	0000                	unimp
     572:	7f790003          	lb	zero,2039(s2)
            product[size_N - 1] = product[size_N - 1] % mod;
     576:	a89f 000c aa00      	0xaa00000ca89f
     57c:	000c                	0xc
     57e:	0100                	addi	s0,sp,128
        for (i = 0; i < size_N; ++i){
     580:	5900                	lw	s0,48(a0)
	...
            array_mod(num_temp, mod, size_N - 1);
     58a:	0920                	addi	s0,sp,152
     58c:	0000                	unimp
     58e:	0964                	addi	s1,sp,156
     590:	0000                	unimp
            while(num_temp[size_N - 1] < 0){
     592:	0001                	nop
     594:	645a                	flw	fs0,148(sp)
     596:	0009                	c.nop	2
     598:	2800                	fld	fs0,16(s0)
            num_temp[size_N - 1] = num_temp[size_N - 1] % mod;
     59a:	0100000b          	0x100000b
     59e:	6200                	flw	fs0,0(a2)
     5a0:	0b28                	addi	a0,sp,408
     5a2:	0000                	unimp
     5a4:	0b4c                	addi	a1,sp,404
        for(i = 0; i < size_N; ++i){
     5a6:	0000                	unimp
     5a8:	7f850003          	lb	zero,2040(a0) # 30007f8 <_stack_start+0x2ff07f8>
 	if(size_N == 106) {
     5ac:	4c9f 000b 6c00      	0x6c00000b4c9f
            array_mod(q, mod, size_N - 1);
     5b2:	0400000b          	0x400000b
     5b6:	f300                	fsw	fs0,32(a4)
            while(q[size_N - 1] < 0){
     5b8:	5a01                	li	s4,-32
     5ba:	6c9f 000b 0000      	0xb6c9f
            q[size_N - 1] = q[size_N - 1] % mod;
     5c0:	000c                	0xc
     5c2:	0100                	addi	s0,sp,128
     5c4:	6200                	flw	fs0,0(a2)
     5c6:	0c00                	addi	s0,sp,528
    int v[size_N];
     5c8:	0000                	unimp
        for (i = size_N-1; i >= 0; i = i-1){
     5ca:	0c14                	addi	a3,sp,528
     5cc:	0000                	unimp
     5ce:	7f850003          	lb	zero,2040(a0)
     5d2:	009f 0000 0000      	0x9f
     5d8:	0000                	unimp
                v[size_N - 1] = v[size_N - 1]+mod;
     5da:	2000                	fld	fs0,0(s0)
     5dc:	0009                	c.nop	2
     5de:	5c00                	lw	s0,56(s0)
     5e0:	0009                	c.nop	2
            array_mod(v, mod, size_N);
     5e2:	0100                	addi	s0,sp,128
     5e4:	5b00                	lw	s0,48(a4)
     5e6:	095c                	addi	a5,sp,148
     5e8:	0000                	unimp
     5ea:	0b54                	addi	a3,sp,404
                product[size_N - 1] = product[size_N - 1]+mod;
     5ec:	0000                	unimp
     5ee:	0001                	nop
     5f0:	000b5467          	0xb5467
            array_mod(product, mod, size_N);
     5f4:	6c00                	flw	fs0,24(s0)
     5f6:	0400000b          	0x400000b
     5fa:	f300                	fsw	fs0,32(a4)
     5fc:	5b01                	li	s6,-32
     5fe:	6c9f 000b 1400      	0x1400000b6c9f
            num_temp[i] = num_temp[i] - product[i];
     604:	000c                	0xc
     606:	0100                	addi	s0,sp,128
     608:	6700                	flw	fs0,8(a4)
	...
     612:	0920                	addi	s0,sp,152
        for (i = 0; i < size_N; ++i){
     614:	0000                	unimp
                num_temp[size_N - 1] = num_temp[size_N - 1]+mod;
     616:	0960                	addi	s0,sp,156
     618:	0000                	unimp
     61a:	0001                	nop
     61c:	605c                	flw	fa5,4(s0)
            array_mod(num_temp, mod, size_N);
     61e:	0009                	c.nop	2
     620:	5000                	lw	s0,32(s0)
     622:	0100000b          	0x100000b
     626:	6600                	flw	fs0,8(a2)
            q[i] = q[i] + v[i];
     628:	0b50                	addi	a2,sp,404
     62a:	0000                	unimp
     62c:	0b6c                	addi	a1,sp,412
     62e:	0000                	unimp
     630:	0004                	0x4
        for(i = 0; i < size_N; ++i){
     632:	9f5c01f3          	0x9f5c01f3
            q[i] = q[i] + v[i];
     636:	0b6c                	addi	a1,sp,412
     638:	0000                	unimp
     63a:	0c14                	addi	a3,sp,528
        for(i = 0; i < size_N; ++i){
     63c:	0000                	unimp
                q[size_N - 1] = q[size_N - 1]+mod;
     63e:	0001                	nop
     640:	0066                	c.slli	zero,0x19
     642:	0000                	unimp
     644:	0000                	unimp
            array_mod(q, mod, size_N);
     646:	0000                	unimp
     648:	ae00                	fsd	fs0,24(a2)
     64a:	000a                	c.slli	zero,0x2
     64c:	b800                	fsd	fs0,48(s0)
     64e:	000a                	c.slli	zero,0x2
            if( num_temp[i] != 0 )
     650:	0100                	addi	s0,sp,128
        for (i = size_N-1; i >= 0; i = i-1){
     652:	5a00                	lw	s0,48(a2)
	...
            v[i] = 0;
     65c:	0ac8                	addi	a0,sp,340
     65e:	0000                	unimp
        for (i = 0; i < size_N; ++i){
     660:	00000ae7          	jalr	s5,zero # 0 <__DYNAMIC>
     664:	0001                	nop
    while (d >= d2){
     666:	cc5a                	sw	s6,24(sp)
     668:	e000000b          	0xe000000b
        result[i] = q[i];
     66c:	0100000b          	0x100000b
     670:	5a00                	lw	s0,48(a2)
	...
    for(i = size_N; i < (2*size_N); ++i){
     67a:	0ae8                	addi	a0,sp,348
        result[i] = num_temp[i-size_N];
     67c:	0000                	unimp
     67e:	00000afb          	0xafb
     682:	0001                	nop
    for(i = size_N; i < (2*size_N); ++i){
     684:	e05a                	fsw	fs6,0(sp)
     686:	f000000b          	0xf000000b
}
     68a:	0100000b          	0x100000b
     68e:	5a00                	lw	s0,48(a2)
	...
     698:	0afc                	addi	a5,sp,348
     69a:	0000                	unimp
     69c:	0b18                	addi	a4,sp,400
     69e:	0000                	unimp
     6a0:	0001                	nop
     6a2:	f05a                	fsw	fs6,32(sp)
     6a4:	0000000b          	0xb
     6a8:	000c                	0xc
     6aa:	0100                	addi	s0,sp,128
     6ac:	5a00                	lw	s0,48(a2)
	...
        result[i] = q[i];
     6b6:	0a62                	slli	s4,s4,0x18
     6b8:	0000                	unimp
     6ba:	0b30                	addi	a2,sp,408
     6bc:	0000                	unimp
    for(i = 0; i < size_N; ++i){
     6be:	0002                	c.slli64	zero
        result[i] = q[i];
     6c0:	0072                	c.slli	zero,0x1c
    for(i = 0; i < size_N; ++i){
     6c2:	0b30                	addi	a2,sp,408
        result[i] = num_temp[i-size_N];
     6c4:	0000                	unimp
     6c6:	0b48                	addi	a0,sp,404
     6c8:	0000                	unimp
     6ca:	0002                	c.slli64	zero
     6cc:	0084                	addi	s1,sp,64
     6ce:	0b48                	addi	a0,sp,404
    for(i = size_N; i < (2*size_N); ++i){
     6d0:	0000                	unimp
     6d2:	0b4c                	addi	a1,sp,404
     6d4:	0000                	unimp
    int ri_2[size]; // MX-ring poly, a
     6d6:	0010                	0x10
     6d8:	0091                	addi	ra,ra,4
int* ext_euclid(int* polyR, int* polyf, int size, int mod) {
     6da:	0085                	addi	ra,ra,1
    int ri_2[size]; // MX-ring poly, a
     6dc:	2432                	fld	fs0,264(sp)
     6de:	f0090f23          	sb	zero,-226(s2)
int* ext_euclid(int* polyR, int* polyf, int size, int mod) {
     6e2:	1c1a                	slli	s8,s8,0x26
     6e4:	f00a                	fsw	ft2,32(sp)
     6e6:	1c01                	addi	s8,s8,-32
     6e8:	0b4c                	addi	a1,sp,404
     6ea:	0000                	unimp
     6ec:	0b6c                	addi	a1,sp,412
     6ee:	0000                	unimp
     6f0:	00910013          	addi	zero,sp,9
     6f4:	235a01f3          	0x235a01f3
     6f8:	3201                	jal	fffffff8 <_stack_start+0xfffefff8>
     6fa:	2324                	fld	fs1,64(a4)
    int ri_2[size]; // MX-ring poly, a
     6fc:	1af0090f          	0x1af0090f
     700:	0a1c                	addi	a5,sp,272
    int ri_1[size]; // f-random poly, f[N] = 0, b
     702:	01f0                	addi	a2,sp,204
     704:	6c1c                	flw	fa5,24(s0)
     706:	1400000b          	0x1400000b
    int ri[size];
     70a:	000c                	0xc
     70c:	0200                	addi	s0,sp,256
    int ti_1[size]; // ti_1[0] = 1
     70e:	7200                	flw	fs0,32(a2)
	...
    int ti[size];
     718:	6600                	flw	fs0,8(a2)
    int qi_1[size];
     71a:	000a                	c.slli	zero,0x2
     71c:	6800                	flw	fs0,16(s0)
     71e:	000a                	c.slli	zero,0x2
    int temp[size];
     720:	0200                	addi	s0,sp,256
     722:	3100                	fld	fs0,32(a0)
int* ext_euclid(int* polyR, int* polyf, int size, int mod) {
     724:	689f 000a 6e00      	0x6e00000a689f
    int ri_2[size]; // MX-ring poly, a
     72a:	000a                	c.slli	zero,0x2
    int temp[size];
     72c:	0100                	addi	s0,sp,128
    for (i = 0; i < size; ++i) {
     72e:	5f00                	lw	s0,56(a4)
     730:	0a72                	slli	s4,s4,0x1c
        ti_2[i] = 0;
     732:	0000                	unimp
     734:	0a78                	addi	a4,sp,284
     736:	0000                	unimp
     738:	0001                	nop
    for (i = 0; i < size; ++i) {
     73a:	805f 000a 8e00      	0x8e00000a805f
    ti_1[0] = 1;
     740:	000a                	c.slli	zero,0x2
     742:	0100                	addi	s0,sp,128
        for (i = N + 1; i < (2 * N + 2); ++i) {
     744:	5f00                	lw	s0,56(a4)
     746:	0a98                	addi	a4,sp,336
     748:	0000                	unimp
     74a:	0aad                	addi	s5,s5,11
            ti[i] = ti_2[i] - temp[i];
     74c:	0000                	unimp
     74e:	0001                	nop
     750:	ae5f 000a b800      	0xb800000aae5f
	array_mod(ri_2,mod,N+1);
     756:	000a                	c.slli	zero,0x2
     758:	0500                	addi	s0,sp,640
     75a:	8200                	0x8200
	array_mod(ri_1,mod,N+1);
     75c:	3100                	fld	fs0,32(a0)
     75e:	9f24                	0x9f24
     760:	0ab8                	addi	a4,sp,344
     762:	0000                	unimp
        res = polydiv(ri_2, N + 1, ri_1, N + 1, mod);
     764:	00000ac7          	fmsub.s	fs5,ft0,ft0,ft0,rne
     768:	0001                	nop
     76a:	c85f 000a d800      	0xd800000ac85f
        for (i = N + 1; i < (2 * N + 2); ++i) {
     770:	000a                	c.slli	zero,0x2
     772:	0500                	addi	s0,sp,640
     774:	8200                	0x8200
     776:	3300                	fld	fs0,32(a4)
     778:	9f1e                	add	t5,t5,t2
     77a:	0ad8                	addi	a4,sp,340
     77c:	0000                	unimp
        for (i = 0; i < N + 1; ++i) {
     77e:	0ae8                	addi	a0,sp,348
     780:	0000                	unimp
     782:	0001                	nop
        array_mod(temp,mod,N+1);
     784:	e859                	bnez	s0,81a <ext_euclid+0x144>
     786:	000a                	c.slli	zero,0x2
     788:	f000                	fsw	fs0,32(s0)
     78a:	000a                	c.slli	zero,0x2
        res1 = polydiv(temp, N + 1, ri_1, N + 1, mod);
     78c:	0200                	addi	s0,sp,256
     78e:	3000                	fld	fs0,32(s0)
     790:	f09f 000a f800      	0xf800000af09f
     796:	000a                	c.slli	zero,0x2
        for (i = 0; i < N + 1; ++i) {
     798:	0100                	addi	s0,sp,128
     79a:	5e00                	lw	s0,56(a2)
     79c:	0afc                	addi	a5,sp,348
	array_mod(qi_1,mod,size);
     79e:	0000                	unimp
     7a0:	0b0e                	slli	s6,s6,0x3
     7a2:	0000                	unimp
     7a4:	0005                	c.nop	1
        res2 = polymult(qi_1, N + 1, ti_1, N + 1, mod, 0);
     7a6:	0082                	c.slli64	ra
     7a8:	2432                	fld	fs0,264(sp)
     7aa:	0e9f 000b 2800      	0x2800000b0e9f
     7b0:	0100000b          	0x100000b
        for (i = 0; i < N + 1; ++i) {
     7b4:	6800                	flw	fs0,16(s0)
     7b6:	0b28                	addi	a0,sp,408
     7b8:	0000                	unimp
	array_mod(temp,mod,size);
     7ba:	0ba8                	addi	a0,sp,472
     7bc:	0000                	unimp
     7be:	0001                	nop
     7c0:	a85f 000b aa00      	0xaa00000ba85f
        for (i = 0; i < N + 1; ++i) {
     7c6:	0300000b          	0x300000b
        array_mod(ti,mod,N+1);
     7ca:	7f00                	flw	fs0,56(a4)
     7cc:	9f7f                	0x9f7f
     7ce:	0baa                	slli	s7,s7,0xa
     7d0:	0000                	unimp
        for (i = 0; i < N + 1; ++i) {
     7d2:	0bcc                	addi	a1,sp,468
        controlR = 0;
     7d4:	0000                	unimp
        for (i = 0; i < N + 1; ++i) {
     7d6:	0001                	nop
     7d8:	cc5f 000b dc00      	0xdc00000bcc5f
        for (j = 0; j < mod; ++j) {
     7de:	0100000b          	0x100000b
     7e2:	5900                	lw	s0,48(a0)
     7e4:	0bdc                	addi	a5,sp,468
     7e6:	0000                	unimp
     7e8:	0bde                	slli	s7,s7,0x17
     7ea:	0000                	unimp
     7ec:	7f790003          	lb	zero,2039(s2)
        for (i = 0; i < N + 1; ++i) {
     7f0:	de9f 000b e000      	0xe000000bde9f
    }
     7f6:	0100000b          	0x100000b
     7fa:	5900                	lw	s0,48(a0)
     7fc:	0be0                	addi	s0,sp,476
     7fe:	0000                	unimp
     800:	0be4                	addi	s1,sp,476
     802:	0000                	unimp
     804:	0001                	nop
     806:	e45e                	fsw	fs7,8(sp)
     808:	ee00000b          	0xee00000b
     80c:	0300000b          	0x300000b
     810:	7e00                	flw	fs0,56(a2)
     812:	9f7f                	0x9f7f
     814:	0bee                	slli	s7,s7,0x1b
     816:	0000                	unimp
     818:	0bf0                	addi	a2,sp,476
     81a:	0000                	unimp
        ri_2[i] = polyR[i];
     81c:	0001                	nop
     81e:	f05e                	fsw	fs7,32(sp)
     820:	0000000b          	0xb
     824:	000c                	0xc
     826:	0100                	addi	s0,sp,128
    for (i = 0; i < size; ++i) {
     828:	6800                	flw	fs0,16(s0)
        ri_2[i] = polyR[i];
     82a:	0c00                	addi	s0,sp,528
     82c:	0000                	unimp
        ri_1[i] = polyf[i];
     82e:	0c10                	addi	a2,sp,528
     830:	0000                	unimp
     832:	0001                	nop
     834:	105f 000c 1200      	0x1200000c105f
     83a:	000c                	0xc
     83c:	0300                	addi	s0,sp,384
        ti_2[i] = 0;
     83e:	7f00                	flw	fs0,56(a4)
     840:	9f7f                	0x9f7f
     842:	0c12                	slli	s8,s8,0x4
     844:	0000                	unimp
        ti_1[i] = 0;
     846:	0c14                	addi	a3,sp,528
     848:	0000                	unimp
     84a:	0001                	nop
     84c:	005f 0000 0000      	0x5f
            ri[i - (N + 1)] = res[i];
     852:	0000                	unimp
     854:	2c00                	fld	fs0,24(s0)
     856:	6c00000b          	0x6c00000b
        for (i = N + 1; i < (2 * N + 2); ++i) {
     85a:	0600000b          	0x600000b
            ri[i - (N + 1)] = res[i];
     85e:	0300                	addi	s0,sp,384
     860:	1ad4                	addi	a3,sp,372
        for (i = N + 1; i < (2 * N + 2); ++i) {
     862:	0000                	unimp
            temp[i] = ri_2[i] - ri[i];
     864:	009f 0000 0000      	0x9f
     86a:	0000                	unimp
     86c:	6200                	flw	fs0,0(a2)
     86e:	000a                	c.slli	zero,0x2
     870:	2800                	fld	fs0,16(s0)
     872:	0100000b          	0x100000b
     876:	6200                	flw	fs0,0(a2)
     878:	0b28                	addi	a0,sp,408
        for (i = 0; i < N + 1; ++i) {
     87a:	0000                	unimp
     87c:	0b4c                	addi	a1,sp,404
            qi_1[i] = res1[i];
     87e:	0000                	unimp
     880:	7f850003          	lb	zero,2040(a0)
     884:	4c9f 000b 6c00      	0x6c00000b4c9f
        for (i = 0; i < N + 1; ++i) {
     88a:	0400000b          	0x400000b
     88e:	f300                	fsw	fs0,32(a4)
            temp[i] = res2[i];
     890:	5a01                	li	s4,-32
     892:	6c9f 000b 0000      	0xb6c9f
     898:	000c                	0xc
     89a:	0100                	addi	s0,sp,128
        for (i = 0; i < N + 1; ++i) {
     89c:	6200                	flw	fs0,0(a2)
            temp[i] = res2[i];
     89e:	0c00                	addi	s0,sp,528
        for (i = 0; i < N + 1; ++i) {
     8a0:	0000                	unimp
            ti[i] = ti_2[i] - temp[i];
     8a2:	0c14                	addi	a3,sp,528
     8a4:	0000                	unimp
     8a6:	7f850003          	lb	zero,2040(a0)
     8aa:	009f 0000 0000      	0x9f
     8b0:	0000                	unimp
        for (i = 0; i < N + 1; ++i) {
     8b2:	d600                	sw	s0,40(a2)
            ti[i] = ti_2[i] - temp[i];
     8b4:	0006                	c.slli	zero,0x1
     8b6:	5400                	lw	s0,40(s0)
        for (i = 0; i < N + 1; ++i) {
     8b8:	01000007          	0x1000007
            ri_2[i] = ri_1[i];
     8bc:	5a00                	lw	s0,48(a2)
     8be:	0754                	addi	a3,sp,900
     8c0:	0000                	unimp
     8c2:	081c                	addi	a5,sp,16
     8c4:	0000                	unimp
        for (i = 0; i < N + 1; ++i) {
     8c6:	0004                	0x4
            ri_2[i] = ri_1[i];
     8c8:	9f5a01f3          	0x9f5a01f3
            ri_1[i] = ri[i];
     8cc:	081c                	addi	a5,sp,16
     8ce:	0000                	unimp
            ti_2[i] = ti_1[i];
     8d0:	0852                	slli	a6,a6,0x14
     8d2:	0000                	unimp
            ri_1[i] = ri[i];
     8d4:	0001                	nop
            ti_2[i] = ti_1[i];
     8d6:	525a                	lw	tp,180(sp)
     8d8:	0008                	0x8
     8da:	2000                	fld	fs0,0(s0)
     8dc:	0009                	c.nop	2
            controlR += ri[i];
     8de:	0400                	addi	s0,sp,512
            ti_2[i] = ti_1[i];
     8e0:	f300                	fsw	fs0,32(a4)
     8e2:	5a01                	li	s4,-32
            ti_1[i] = ti[i];
     8e4:	009f 0000 0000      	0x9f
     8ea:	0000                	unimp
            qi_1[i] = 0;
     8ec:	d600                	sw	s0,40(a2)
     8ee:	0006                	c.slli	zero,0x1
     8f0:	5400                	lw	s0,40(s0)
     8f2:	01000007          	0x1000007
        for (i = 0; i < N + 1; ++i) {
     8f6:	5b00                	lw	s0,48(a4)
            if (((ri_2[0] * j) % mod) == 1)
     8f8:	0754                	addi	a3,sp,900
     8fa:	0000                	unimp
     8fc:	081c                	addi	a5,sp,16
     8fe:	0000                	unimp
     900:	0004                	0x4
     902:	9f5b01f3          	0x9f5b01f3
     906:	081c                	addi	a5,sp,16
        for (j = 0; j < mod; ++j) {
     908:	0000                	unimp
     90a:	0852                	slli	a6,a6,0x14
            ti_2[i] = (ti_2[i] * j) % mod;        // ti_2[i]*j vardı..
     90c:	0000                	unimp
        for (i = 0; i < N + 1; ++i) {
     90e:	0001                	nop
     910:	0008525b          	0x8525b
            ti_2[i] = (ti_2[i] * j) % mod;        // ti_2[i]*j vardı..
     914:	2000                	fld	fs0,0(s0)
     916:	0009                	c.nop	2
     918:	0400                	addi	s0,sp,512
     91a:	f300                	fsw	fs0,32(a4)
     91c:	5b01                	li	s6,-32
        for (i = 0; i < N + 1; ++i) {
     91e:	009f 0000 0000      	0x9f
int* generate_keys(int N, int p, int q){
     924:	0000                	unimp
     926:	d600                	sw	s0,40(a2)
     928:	0006                	c.slli	zero,0x1
     92a:	3a00                	fld	fs0,48(a2)
     92c:	01000007          	0x1000007
     930:	5c00                	lw	s0,56(s0)
     932:	073a                	slli	a4,a4,0xe
     934:	0000                	unimp
     936:	0810                	addi	a2,sp,16
     938:	0000                	unimp
     93a:	0001                	nop
     93c:	0008106b          	0x8106b
     940:	1c00                	addi	s0,sp,560
     942:	0008                	0x8
     944:	0400                	addi	s0,sp,512
     946:	f300                	fsw	fs0,32(a4)
     948:	5c01                	li	s8,-32
     94a:	1c9f 0008 2000      	0x200000081c9f
     950:	0009                	c.nop	2
     952:	0100                	addi	s0,sp,128
     954:	6b00                	flw	fs0,16(a4)
	...
    int f[55] = {-1, 1, 1, 0, -1, 0, 1, 0, 0, 1, -1, -1, 0, 1, 0, -1, 0, 1, 1, 0, 0,  -1, 0, 1, 0, 0, 1, 1, 1,  -1, 0, 1, 0, 0, 1, 1, 1,    -1, 0, 1, 0, 0, 1, 1, 1};
     95e:	06d6                	slli	a3,a3,0x15
     960:	0000                	unimp
     962:	073a                	slli	a4,a4,0xe
     964:	0000                	unimp
     966:	0001                	nop
     968:	3a5d                	jal	31e <polymult2+0x92>
    int g[55] = {-1, 0, 1, 1, 0, 1, 0, 0, -1, 0, -1, -1, 0, 1, 0, -1, 0, 1, 0, 0, 1, -1, 0, 1, 0, 0, 1, -1, 0, 1, 0, 0, 1, -1, 0, 1, 0, 1,   1, 0, 0, 1, -1, 0, 1, 0, 1};
     96a:	fc000007          	0xfc000007
     96e:	01000007          	0x1000007
     972:	5900                	lw	s0,48(a0)
    int f[55] = {-1, 1, 1, 0, -1, 0, 1, 0, 0, 1, -1, -1, 0, 1, 0, -1, 0, 1, 1, 0, 0,  -1, 0, 1, 0, 0, 1, 1, 1,  -1, 0, 1, 0, 0, 1, 1, 1,    -1, 0, 1, 0, 0, 1, 1, 1};
     974:	07fc                	addi	a5,sp,972
     976:	0000                	unimp
     978:	081c                	addi	a5,sp,16
     97a:	0000                	unimp
     97c:	0004                	0x4
     97e:	9f5d01f3          	0x9f5d01f3
     982:	081c                	addi	a5,sp,16
     984:	0000                	unimp
     986:	0920                	addi	s0,sp,152
     988:	0000                	unimp
     98a:	0001                	nop
     98c:	0059                	c.nop	22
     98e:	0000                	unimp
     990:	0000                	unimp
     992:	0000                	unimp
     994:	f200                	fsw	fs0,32(a2)
     996:	1c000007          	0x1c000007
     99a:	0008                	0x8
     99c:	0600                	addi	s0,sp,768
     99e:	0300                	addi	s0,sp,384
     9a0:	1944                	addi	s1,sp,180
     9a2:	0000                	unimp
     9a4:	009f 0000 0000      	0x9f
     9aa:	0000                	unimp
     9ac:	2e00                	fld	fs0,24(a2)
     9ae:	fe000007          	0xfe000007
     9b2:	01000007          	0x1000007
     9b6:	6200                	flw	fs0,0(a2)
     9b8:	07fe                	slli	a5,a5,0x1f
     9ba:	0000                	unimp
     9bc:	0810                	addi	a2,sp,16
     9be:	0000                	unimp
     9c0:	7f8b0003          	lb	zero,2040(s6)
     9c4:	109f 0008 1c00      	0x1c000008109f
     9ca:	0008                	0x8
     9cc:	0600                	addi	s0,sp,768
     9ce:	f300                	fsw	fs0,32(a4)
     9d0:	5c01                	li	s8,-32
     9d2:	1c31                	addi	s8,s8,-20
     9d4:	1c9f 0008 2000      	0x200000081c9f
     9da:	0009                	c.nop	2
     9dc:	0100                	addi	s0,sp,128
     9de:	6200                	flw	fs0,0(a2)
	...
    int polyR[N+1];
     9e8:	072e                	slli	a4,a4,0xb
     9ea:	0000                	unimp
     9ec:	073a                	slli	a4,a4,0xe
     9ee:	0000                	unimp
     9f0:	0002                	c.slli64	zero
     9f2:	9f30                	0x9f30
    polyR[N] = 1;
     9f4:	073a                	slli	a4,a4,0xe
     9f6:	0000                	unimp
     9f8:	0754                	addi	a3,sp,900
     9fa:	0000                	unimp
     9fc:	0001                	nop
    int g[55] = {-1, 0, 1, 1, 0, 1, 0, 0, -1, 0, -1, -1, 0, 1, 0, -1, 0, 1, 0, 0, 1, -1, 0, 1, 0, 0, 1, -1, 0, 1, 0, 0, 1, -1, 0, 1, 0, 1,   1, 0, 0, 1, -1, 0, 1, 0, 1};
     9fe:	705e                	flw	ft0,244(sp)
     a00:	74000007          	0x74000007
     a04:	01000007          	0x1000007
     a08:	6b00                	flw	fs0,16(a4)
     a0a:	0774                	addi	a3,sp,908
     a0c:	0000                	unimp
     a0e:	077e                	slli	a4,a4,0x1f
     a10:	0000                	unimp
     a12:	0001                	nop
     a14:	805f 0007 8b00      	0x8b000007805f
     a1a:	01000007          	0x1000007
     a1e:	5e00                	lw	s0,56(a2)
     a20:	0798                	addi	a4,sp,960
     a22:	0000                	unimp
     a24:	079a                	slli	a5,a5,0x6
     a26:	0000                	unimp
     a28:	0002                	c.slli64	zero
     a2a:	9f30                	0x9f30
     a2c:	079a                	slli	a5,a5,0x6
     a2e:	0000                	unimp
     a30:	07a5                	addi	a5,a5,9
     a32:	0000                	unimp
     a34:	0001                	nop
     a36:	b45f 0007 b600      	0xb6000007b45f
     a3c:	02000007          	0x2000007
     a40:	3000                	fld	fs0,32(s0)
     a42:	b69f 0007 c100      	0xc1000007b69f
     a48:	01000007          	0x1000007
     a4c:	5f00                	lw	s0,56(a4)
     a4e:	07c2                	slli	a5,a5,0x10
     a50:	0000                	unimp
     a52:	07c6                	slli	a5,a5,0x11
     a54:	0000                	unimp
     a56:	0002                	c.slli64	zero
     a58:	9f30                	0x9f30
     a5a:	07c6                	slli	a5,a5,0x11
     a5c:	0000                	unimp
     a5e:	07d1                	addi	a5,a5,20
     a60:	0000                	unimp
    polyR[0] = -1;
     a62:	0001                	nop
     a64:	d25e                	sw	s7,36(sp)
    for(i = 1; i < N; ++i){
     a66:	d8000007          	0xd8000007
     a6a:	02000007          	0x2000007
    for (i = N; i < 55; ++i ){
     a6e:	3000                	fld	fs0,32(s0)
     a70:	d89f 0007 e200      	0xe2000007d89f
    for(i = 0; i < N; ++i){
     a76:	01000007          	0x1000007
        random_keys[i] = f[i];
     a7a:	5d00                	lw	s0,56(a0)
     a7c:	07ee                	slli	a5,a5,0x1b
     a7e:	0000                	unimp
    for(i = 0; i < N; ++i){
     a80:	082a                	slli	a6,a6,0xa
     a82:	0000                	unimp
     a84:	0001                	nop
     a86:	2a5e                	fld	fs4,464(sp)
    for(i = N; i < (2*N); ++i){
     a88:	0008                	0x8
     a8a:	4e00                	lw	s0,24(a2)
     a8c:	0008                	0x8
     a8e:	0300                	addi	s0,sp,384
        random_keys[i] = g[i-N];
     a90:	7e00                	flw	fs0,56(a2)
     a92:	9f7f                	0x9f7f
     a94:	084e                	slli	a6,a6,0x13
     a96:	0000                	unimp
    for(i = N; i < (2*N); ++i){
     a98:	0852                	slli	a6,a6,0x14
     a9a:	0000                	unimp
    for(i = (2*N); i < (3*N); ++i){
     a9c:	0001                	nop
     a9e:	525e                	lw	tp,244(sp)
     aa0:	0008                	0x8
    fp = ext_euclid(polyR, f, (N+1), p);
     aa2:	5c00                	lw	s0,56(s0)
     aa4:	0008                	0x8
     aa6:	0100                	addi	s0,sp,128
     aa8:	5f00                	lw	s0,56(a4)
     aaa:	085c                	addi	a5,sp,20
     aac:	0000                	unimp
    for(i = (2*N); i < (3*N); ++i){
     aae:	0862                	slli	a6,a6,0x18
        random_keys[i] = fp[i-(2*N)];
     ab0:	0000                	unimp
     ab2:	7f7f0003          	lb	zero,2039(t5) # 1b7f7 <_stack_start+0xb7f7>
     ab6:	629f 0008 6400      	0x64000008629f
    fq = ext_euclid(polyR, f, (N+1), q);
     abc:	0008                	0x8
     abe:	0100                	addi	s0,sp,128
     ac0:	5f00                	lw	s0,56(a4)
     ac2:	0864                	addi	s1,sp,28
     ac4:	0000                	unimp
     ac6:	0876                	slli	a6,a6,0x1d
    for(i = (3*N); i < (4*N); ++i){
     ac8:	0000                	unimp
     aca:	0001                	nop
     acc:	765e                	flw	fa2,244(sp)
     ace:	0008                	0x8
        random_keys[i] = fq[i-(3*N)];
     ad0:	7a00                	flw	fs0,48(a2)
     ad2:	0008                	0x8
     ad4:	0300                	addi	s0,sp,384
     ad6:	7e00                	flw	fs0,56(a2)
    for(i = (3*N); i < (4*N); ++i){
     ad8:	9f7f                	0x9f7f
     ada:	087a                	slli	a6,a6,0x1e
    fg = polymult2(fq, N, g, N, 0);
     adc:	0000                	unimp
     ade:	087e                	slli	a6,a6,0x1f
     ae0:	0000                	unimp
     ae2:	0001                	nop
     ae4:	7e5e                	flw	ft8,244(sp)
     ae6:	0008                	0x8
    for(i = 0; i < (2*N-1); ++i){
     ae8:	8c00                	0x8c00
     aea:	0008                	0x8
     aec:	0100                	addi	s0,sp,128
     aee:	5f00                	lw	s0,56(a4)
     af0:	088c                	addi	a1,sp,80
     af2:	0000                	unimp
    pk = polydiv(fg, (2*N-1), polyR, (N+1), q);
     af4:	088e                	slli	a7,a7,0x3
     af6:	0000                	unimp
     af8:	7f7f0003          	lb	zero,2039(t5)
    for(i = (4*N); i < (5*N); ++i){
     afc:	8e9f 0008 9e00      	0x9e0000088e9f
     b02:	0008                	0x8
     b04:	0100                	addi	s0,sp,128
        random_keys[i] = pk[i-(4*N)+(2*N-1)];
     b06:	5f00                	lw	s0,56(a4)
     b08:	089e                	slli	a7,a7,0x7
     b0a:	0000                	unimp
     b0c:	08a0                	addi	s0,sp,88
    for(i = (4*N); i < (5*N); ++i){
     b0e:	0000                	unimp
     b10:	7f7f0003          	lb	zero,2039(t5)
    for(i = (5*N); i < (6*N+1); ++i){
     b14:	a09f 0008 a200      	0xa2000008a09f
        random_keys[i] = polyR[i-(5*N)];
     b1a:	0008                	0x8
     b1c:	0100                	addi	s0,sp,128
     b1e:	5f00                	lw	s0,56(a4)
    for(i = (5*N); i < (6*N+1); ++i){
     b20:	08a2                	slli	a7,a7,0x8
     b22:	0000                	unimp
     b24:	08b4                	addi	a3,sp,88
     b26:	0000                	unimp
     b28:	0001                	nop
     b2a:	b45e                	fsd	fs7,40(sp)
}
     b2c:	0008                	0x8
     b2e:	b800                	fsd	fs0,48(s0)
     b30:	0008                	0x8
     b32:	0300                	addi	s0,sp,384
     b34:	7e00                	flw	fs0,56(a2)
     b36:	9f7f                	0x9f7f
     b38:	08b8                	addi	a4,sp,88
     b3a:	0000                	unimp
     b3c:	08bc                	addi	a5,sp,88
     b3e:	0000                	unimp
     b40:	0001                	nop
     b42:	bc5e                	fsd	fs7,56(sp)
     b44:	0008                	0x8
     b46:	c800                	sw	s0,16(s0)
     b48:	0008                	0x8
     b4a:	0100                	addi	s0,sp,128
     b4c:	5d00                	lw	s0,56(a0)
     b4e:	08c8                	addi	a0,sp,84
     b50:	0000                	unimp
     b52:	08f4                	addi	a3,sp,92
     b54:	0000                	unimp
     b56:	7f7d0003          	lb	zero,2039(s10)
     b5a:	f49f 0008 f800      	0xf8000008f49f
     b60:	0008                	0x8
     b62:	0100                	addi	s0,sp,128
     b64:	5d00                	lw	s0,56(a0)
     b66:	090c                	addi	a1,sp,144
     b68:	0000                	unimp
     b6a:	0910                	addi	a2,sp,144
        polyR[i] = 0;
     b6c:	0000                	unimp
     b6e:	0001                	nop
     b70:	105e                	c.slli	zero,0x37
     b72:	0009                	c.nop	2
     b74:	1e00                	addi	s0,sp,816
    for(i = 1; i < N; ++i){
     b76:	0009                	c.nop	2
     b78:	0300                	addi	s0,sp,384
        f[i] = 0;
     b7a:	7e00                	flw	fs0,56(a2)
     b7c:	9f7f                	0x9f7f
     b7e:	091e                	slli	s2,s2,0x7
     b80:	0000                	unimp
     b82:	0920                	addi	s0,sp,152
     b84:	0000                	unimp
     b86:	0001                	nop
        g[i] = 0;
     b88:	005e                	c.slli	zero,0x17
     b8a:	0000                	unimp
     b8c:	0000                	unimp
     b8e:	0000                	unimp
     b90:	e200                	fsw	fs0,0(a2)
    for (i = N; i < 55; ++i ){
     b92:	1c000007          	0x1c000007
        random_keys[i] = f[i];
     b96:	0008                	0x8
     b98:	0100                	addi	s0,sp,128
     b9a:	5f00                	lw	s0,56(a4)
     b9c:	08f8                	addi	a4,sp,92
     b9e:	0000                	unimp
     ba0:	0920                	addi	s0,sp,152
     ba2:	0000                	unimp
     ba4:	0001                	nop
    for(i = 0; i < N; ++i){
     ba6:	005f 0000 0000      	0x5f
        random_keys[i] = g[i-N];
     bac:	0000                	unimp
     bae:	2c00                	fld	fs0,24(s0)
     bb0:	00000007          	0x7
     bb4:	0008                	0x8
    for(i = N; i < (2*N); ++i){
     bb6:	0200                	addi	s0,sp,256
     bb8:	8300                	0x8300
     bba:	1c00                	addi	s0,sp,560
        random_keys[i] = fp[i-(2*N)];
     bbc:	0008                	0x8
     bbe:	2000                	fld	fs0,0(s0)
     bc0:	0009                	c.nop	2
     bc2:	0200                	addi	s0,sp,256
     bc4:	8300                	0x8300
	...
        random_keys[i] = fq[i-(3*N)];
     bce:	2c00                	fld	fs0,24(s0)
     bd0:	04000007          	0x4000007
     bd4:	0008                	0x8
     bd6:	0200                	addi	s0,sp,256
     bd8:	8500                	0x8500
    for(i = (3*N); i < (4*N); ++i){
     bda:	1c00                	addi	s0,sp,560
        random_keys[i] = fq[i-(3*N)];
     bdc:	0008                	0x8
    for(i = (3*N); i < (4*N); ++i){
     bde:	2000                	fld	fs0,0(s0)
        fg[i] = fg[i]*p;
     be0:	0009                	c.nop	2
    for(i = 0; i < (2*N-1); ++i){
     be2:	0200                	addi	s0,sp,256
     be4:	8500                	0x8500
	...
     bee:	2c00                	fld	fs0,24(s0)
        random_keys[i] = pk[i-(4*N)+(2*N-1)];
     bf0:	0a000007          	0xa000007
     bf4:	0008                	0x8
     bf6:	0200                	addi	s0,sp,256
     bf8:	8800                	0x8800
     bfa:	1c00                	addi	s0,sp,560
    for(i = (4*N); i < (5*N); ++i){
     bfc:	0008                	0x8
     bfe:	2000                	fld	fs0,0(s0)
        random_keys[i] = polyR[i-(5*N)];
     c00:	0009                	c.nop	2
     c02:	0200                	addi	s0,sp,256
     c04:	8800                	0x8800
	...
    for(i = (5*N); i < (6*N+1); ++i){
     c0e:	2c00                	fld	fs0,24(s0)
        random_keys[i] = polyR[i-(5*N)];
     c10:	06000007          	0x6000007
int* ntru_encyrpt(int N, int q, int* message, int* public_key, int* polyR){
     c14:	0008                	0x8
     c16:	0200                	addi	s0,sp,256
     c18:	8600                	0x8600
     c1a:	0600                	addi	s0,sp,768
     c1c:	0008                	0x8
     c1e:	0a00                	addi	s0,sp,272
     c20:	0008                	0x8
    int random_val[48] = { 1, -1, 0, 1, -1, 1, -1, 0,1, 1, 0, -1, 1, -1, 1, 0,1, 1, 0, -1, 1, -1, 1, 0,1, 1, 0, 1, -1, 1, -1, 0, 1, -1, 0, 1, -1, 1, -1, 0,1, 1, 0, -1, 1, -1, 1, 0};
     c22:	0c00                	addi	s0,sp,528
     c24:	8800                	0x8800
     c26:	8b00                	0x8b00
     c28:	3200                	fld	fs0,32(a2)
     c2a:	2324                	fld	fs1,64(a4)
     c2c:	1af0090f          	0x1af0090f
int* ntru_encyrpt(int N, int q, int* message, int* public_key, int* polyR){
     c30:	1c1c                	addi	a5,sp,560
     c32:	0008                	0x8
     c34:	2000                	fld	fs0,0(s0)
     c36:	0009                	c.nop	2
     c38:	0200                	addi	s0,sp,256
    int random_val[48] = { 1, -1, 0, 1, -1, 1, -1, 0,1, 1, 0, -1, 1, -1, 1, 0,1, 1, 0, -1, 1, -1, 1, 0,1, 1, 0, 1, -1, 1, -1, 0, 1, -1, 0, 1, -1, 1, -1, 0,1, 1, 0, -1, 1, -1, 1, 0};
     c3a:	8600                	0x8600
	...
    temp = polymult(public_key,N,random_val,48,q,0);
     c44:	2c00                	fld	fs0,24(s0)
     c46:	0c000007          	0xc000007
     c4a:	0008                	0x8
     c4c:	0200                	addi	s0,sp,256
     c4e:	8900                	0x8900
    for(i = 0; i < 48; ++i){
     c50:	1c00                	addi	s0,sp,560
     c52:	0008                	0x8
        temp[i] = temp[i] + message[i];
     c54:	2000                	fld	fs0,0(s0)
     c56:	0009                	c.nop	2
     c58:	0200                	addi	s0,sp,256
     c5a:	8900                	0x8900
	...
     c64:	2c00                	fld	fs0,24(s0)
    for(i = 0; i < 48; ++i){
     c66:	08000007          	0x8000007
    CT = polydiv(temp,(2*N),polyR,(N+1),q);
     c6a:	0008                	0x8
     c6c:	0200                	addi	s0,sp,256
     c6e:	8700                	0x8700
     c70:	0800                	addi	s0,sp,16
     c72:	0008                	0x8
     c74:	0c00                	addi	s0,sp,528
     c76:	0008                	0x8
     c78:	0c00                	addi	s0,sp,528
     c7a:	8900                	0x8900
    for(i = (2*N); i < (3*N); ++i){
     c7c:	8b00                	0x8b00
     c7e:	3200                	fld	fs0,32(a2)
     c80:	2324                	fld	fs1,64(a4)
     c82:	1af0090f          	0x1af0090f
     c86:	1c1c                	addi	a5,sp,560
}
     c88:	0008                	0x8
     c8a:	2000                	fld	fs0,0(s0)
     c8c:	0009                	c.nop	2
     c8e:	0200                	addi	s0,sp,256
     c90:	8700                	0x8700
	...
        CT[i-(2*N)] = CT[i];
     c9a:	2e00                	fld	fs0,24(a2)
     c9c:	f6000007          	0xf6000007
    for(i = (2*N); i < (3*N); ++i){
     ca0:	02000007          	0x2000007
        CT[i-(2*N)] = CT[i];
     ca4:	7200                	flw	fs0,32(a2)
     ca6:	f600                	fsw	fs0,40(a2)
    for(i = (2*N); i < (3*N); ++i){
     ca8:	02000007          	0x2000007
int* ntru_deceypt(int N, int p, int q, int* secret_key_f, int* secret_key_fp, int* Enc_Message, int* polyR){
     cac:	0008                	0x8
     cae:	0200                	addi	s0,sp,256
     cb0:	8400                	0x8400
    for(i = (2*N); i < ((2*N)+N); ++i){
     cb2:	0200                	addi	s0,sp,256
     cb4:	0008                	0x8
     cb6:	0800                	addi	s0,sp,16
int* ntru_deceypt(int N, int p, int q, int* secret_key_f, int* secret_key_fp, int* Enc_Message, int* polyR){
     cb8:	0008                	0x8
     cba:	0c00                	addi	s0,sp,528
     cbc:	8700                	0x8700
     cbe:	8b00                	0x8b00
     cc0:	3200                	fld	fs0,32(a2)
    a = polymult2(secret_key_f,N,Enc_Message,N,0);
     cc2:	2324                	fld	fs1,64(a4)
     cc4:	1af0090f          	0x1af0090f
int* ntru_deceypt(int N, int p, int q, int* secret_key_f, int* secret_key_fp, int* Enc_Message, int* polyR){
     cc8:	081c                	addi	a5,sp,16
    a = polymult2(secret_key_f,N,Enc_Message,N,0);
     cca:	0008                	0x8
     ccc:	0c00                	addi	s0,sp,528
int* ntru_deceypt(int N, int p, int q, int* secret_key_f, int* secret_key_fp, int* Enc_Message, int* polyR){
     cce:	0008                	0x8
     cd0:	0e00                	addi	s0,sp,784
     cd2:	8900                	0x8900
     cd4:	8b00                	0x8b00
     cd6:	3200                	fld	fs0,32(a2)
    a2 = polydiv(a,(2*N),polyR,(N+1),q);
     cd8:	2324                	fld	fs1,64(a4)
     cda:	1af0090f          	0x1af0090f
    a = polymult2(secret_key_f,N,Enc_Message,N,0);
     cde:	2431                	jal	eea <memset+0x24>
    a2 = polydiv(a,(2*N),polyR,(N+1),q);
     ce0:	1c1c                	addi	a5,sp,560
     ce2:	0008                	0x8
     ce4:	2000                	fld	fs0,0(s0)
     ce6:	0009                	c.nop	2
     ce8:	0200                	addi	s0,sp,256
     cea:	7200                	flw	fs0,32(a2)
	...
    for(i = (2*N); i < ((2*N)+N); ++i){
     cf4:	7000                	flw	fs0,32(s0)
     cf6:	8a000007          	0x8a000007
     cfa:	01000007          	0x1000007
        if(a2[i] <= q/2)
     cfe:	5a00                	lw	s0,48(a2)
     d00:	0852                	slli	a6,a6,0x14
    for (i = 0; i < N; ++i){
     d02:	0000                	unimp
     d04:	087e                	slli	a6,a6,0x1f
     d06:	0000                	unimp
    c = polymult2(secret_key_fp,N,a2,N,0);
     d08:	0001                	nop
     d0a:	005a                	c.slli	zero,0x16
     d0c:	0000                	unimp
     d0e:	0000                	unimp
     d10:	0000                	unimp
     d12:	9800                	0x9800
    c2 = polydiv(c,(2*N),polyR,(N+1),p);
     d14:	a4000007          	0xa4000007
     d18:	01000007          	0x1000007
     d1c:	5a00                	lw	s0,48(a2)
     d1e:	087e                	slli	a6,a6,0x1f
    for(i = (2*N); i < ((2*N)+N); ++i){
     d20:	0000                	unimp
     d22:	0890                	addi	a2,sp,80
     d24:	0000                	unimp
}
     d26:	0001                	nop
     d28:	005a                	c.slli	zero,0x16
     d2a:	0000                	unimp
     d2c:	0000                	unimp
     d2e:	0000                	unimp
     d30:	b400                	fsd	fs0,40(s0)
     d32:	c0000007          	0xc0000007
     d36:	01000007          	0x1000007
     d3a:	5a00                	lw	s0,48(a2)
        a2[i-(2*N)] = a2[i];
     d3c:	0890                	addi	a2,sp,80
     d3e:	0000                	unimp
     d40:	08a2                	slli	a7,a7,0x8
     d42:	0000                	unimp
    for(i = (2*N); i < ((2*N)+N); ++i){
     d44:	0001                	nop
     d46:	005a                	c.slli	zero,0x16
        a2[i-(2*N)] = a2[i];
     d48:	0000                	unimp
     d4a:	0000                	unimp
    for(i = (2*N); i < ((2*N)+N); ++i){
     d4c:	0000                	unimp
        if(a2[i] <= q/2)
     d4e:	2e00                	fld	fs0,24(a2)
     d50:	54000007          	0x54000007
            a2[i] = (-1)*(q-a2[i]);
     d54:	02000007          	0x2000007
     d58:	3100                	fld	fs0,32(a0)
    for (i = 0; i < N; ++i){
     d5a:	549f 0007 d800      	0xd8000007549f
        c2[i-(2*N)] = c2[i];
     d60:	02000007          	0x2000007
     d64:	3000                	fld	fs0,32(s0)
     d66:	d89f 0007 ee00      	0xee000007d89f
     d6c:	01000007          	0x1000007
    for(i = (2*N); i < ((2*N)+N); ++i){
     d70:	5e00                	lw	s0,56(a2)
  jal x0, default_exc_handler
     d72:	081c                	addi	a5,sp,16
     d74:	0000                	unimp
  mv  x1, x0
     d76:	0852                	slli	a6,a6,0x14
     d78:	0000                	unimp
  mv  x2, x1
     d7a:	0002                	c.slli64	zero
  mv  x3, x1
     d7c:	9f31                	0x9f31
  mv  x4, x1
     d7e:	0852                	slli	a6,a6,0x14
  mv  x5, x1
     d80:	0000                	unimp
  mv  x6, x1
     d82:	08bc                	addi	a5,sp,88
  mv  x7, x1
     d84:	0000                	unimp
  mv  x8, x1
     d86:	0002                	c.slli64	zero
  mv  x9, x1
     d88:	9f30                	0x9f30
  mv x10, x1
     d8a:	08bc                	addi	a5,sp,88
  mv x11, x1
     d8c:	0000                	unimp
  mv x12, x1
     d8e:	08e0                	addi	s0,sp,92
  mv x13, x1
     d90:	0000                	unimp
  mv x14, x1
     d92:	0001                	nop
  mv x15, x1
     d94:	f45e                	fsw	fs7,40(sp)
  mv x16, x1
     d96:	0008                	0x8
  mv x17, x1
     d98:	0c00                	addi	s0,sp,528
  mv x18, x1
     d9a:	0009                	c.nop	2
  mv x19, x1
     d9c:	0100                	addi	s0,sp,128
  mv x20, x1
     d9e:	5e00                	lw	s0,56(a2)
	...
  mv x25, x1
     da8:	072c                	addi	a1,sp,904
  mv x26, x1
     daa:	0000                	unimp
  mv x27, x1
     dac:	07fe                	slli	a5,a5,0x1f
  mv x28, x1
     dae:	0000                	unimp
  mv x29, x1
     db0:	0001                	nop
  mv x30, x1
     db2:	fe62                	fsw	fs8,60(sp)
  mv x31, x1
     db4:	10000007          	0x10000007
  la   x2, _stack_start
     db8:	0008                	0x8
     dba:	0300                	addi	s0,sp,384
     dbc:	8b00                	0x8b00
  la x26, _bss_start
     dbe:	9f7f                	0x9f7f
     dc0:	0810                	addi	a2,sp,16
     dc2:	0000                	unimp
     dc4:	081c                	addi	a5,sp,16
  la x27, _bss_end
     dc6:	0000                	unimp
     dc8:	0006                	c.slli	zero,0x1
     dca:	315c01f3          	0x315c01f3
  bge x26, x27, zero_loop_end
     dce:	9f1c                	0x9f1c
     dd0:	081c                	addi	a5,sp,16
  sw x0, 0(x26)
     dd2:	0000                	unimp
     dd4:	0920                	addi	s0,sp,152
  addi x26, x26, 4
     dd6:	0000                	unimp
  ble x26, x27, zero_loop
     dd8:	0001                	nop
     dda:	0062                	c.slli	zero,0x18
  addi x10, x0, 0
     ddc:	0000                	unimp
     dde:	0000                	unimp
  addi x11, x0, 0
     de0:	0000                	unimp
     de2:	2c00                	fld	fs0,24(s0)
  jal x1, main
     de4:	fe000007          	0xfe000007
     de8:	01000007          	0x1000007
     dec:	6200                	flw	fs0,0(a2)
     dee:	07fe                	slli	a5,a5,0x1f
     df0:	0000                	unimp
     df2:	0810                	addi	a2,sp,16
     df4:	0000                	unimp
     df6:	7f8b0003          	lb	zero,2040(s6)
     dfa:	109f 0008 1c00      	0x1c000008109f
     e00:	0008                	0x8
     e02:	0600                	addi	s0,sp,768
     e04:	f300                	fsw	fs0,32(a4)
     e06:	5c01                	li	s8,-32
     e08:	1c31                	addi	s8,s8,-20
     e0a:	1c9f 0008 2000      	0x200000081c9f
     e10:	0009                	c.nop	2
     e12:	0100                	addi	s0,sp,128
     e14:	6200                	flw	fs0,0(a2)
	...
     e1e:	072c                	addi	a1,sp,904
     e20:	0000                	unimp
     e22:	07fe                	slli	a5,a5,0x1f
     e24:	0000                	unimp
     e26:	0001                	nop
     e28:	fe62                	fsw	fs8,60(sp)
     e2a:	10000007          	0x10000007
     e2e:	0008                	0x8
     e30:	0300                	addi	s0,sp,384
     e32:	8b00                	0x8b00
     e34:	9f7f                	0x9f7f
     e36:	0810                	addi	a2,sp,16
     e38:	0000                	unimp
     e3a:	081c                	addi	a5,sp,16
     e3c:	0000                	unimp
     e3e:	0006                	c.slli	zero,0x1
     e40:	315c01f3          	0x315c01f3
     e44:	9f1c                	0x9f1c
     e46:	081c                	addi	a5,sp,16
     e48:	0000                	unimp
     e4a:	0920                	addi	s0,sp,152
     e4c:	0000                	unimp
     e4e:	0001                	nop
     e50:	0062                	c.slli	zero,0x18
     e52:	0000                	unimp
     e54:	0000                	unimp
     e56:	0000                	unimp
     e58:	2c00                	fld	fs0,24(s0)
     e5a:	fe000007          	0xfe000007
     e5e:	01000007          	0x1000007
     e62:	6200                	flw	fs0,0(a2)
     e64:	07fe                	slli	a5,a5,0x1f
     e66:	0000                	unimp
     e68:	0810                	addi	a2,sp,16
     e6a:	0000                	unimp
     e6c:	7f8b0003          	lb	zero,2040(s6)
     e70:	109f 0008 1c00      	0x1c000008109f
     e76:	0008                	0x8
     e78:	0600                	addi	s0,sp,768
     e7a:	f300                	fsw	fs0,32(a4)
     e7c:	5c01                	li	s8,-32
     e7e:	1c31                	addi	s8,s8,-20
     e80:	1c9f 0008 2000      	0x200000081c9f
     e86:	0009                	c.nop	2
     e88:	0100                	addi	s0,sp,128
     e8a:	6200                	flw	fs0,0(a2)
	...
     e94:	072c                	addi	a1,sp,904
     e96:	0000                	unimp
     e98:	07fe                	slli	a5,a5,0x1f
     e9a:	0000                	unimp
     e9c:	0001                	nop
     e9e:	fe62                	fsw	fs8,60(sp)
     ea0:	10000007          	0x10000007
     ea4:	0008                	0x8
     ea6:	0300                	addi	s0,sp,384
     ea8:	8b00                	0x8b00
     eaa:	9f7f                	0x9f7f
     eac:	0810                	addi	a2,sp,16
     eae:	0000                	unimp
     eb0:	081c                	addi	a5,sp,16
     eb2:	0000                	unimp
     eb4:	0006                	c.slli	zero,0x1
     eb6:	315c01f3          	0x315c01f3
     eba:	9f1c                	0x9f1c
     ebc:	081c                	addi	a5,sp,16
     ebe:	0000                	unimp
     ec0:	0920                	addi	s0,sp,152
     ec2:	0000                	unimp
     ec4:	0001                	nop
     ec6:	0062                	c.slli	zero,0x18
     ec8:	0000                	unimp
     eca:	0000                	unimp
     ecc:	0000                	unimp
     ece:	2c00                	fld	fs0,24(s0)
     ed0:	fe000007          	0xfe000007
     ed4:	01000007          	0x1000007
     ed8:	6200                	flw	fs0,0(a2)
     eda:	07fe                	slli	a5,a5,0x1f
     edc:	0000                	unimp
     ede:	0810                	addi	a2,sp,16
     ee0:	0000                	unimp
     ee2:	7f8b0003          	lb	zero,2040(s6)
     ee6:	109f 0008 1c00      	0x1c000008109f
     eec:	0008                	0x8
     eee:	0600                	addi	s0,sp,768
     ef0:	f300                	fsw	fs0,32(a4)
     ef2:	5c01                	li	s8,-32
     ef4:	1c31                	addi	s8,s8,-20
     ef6:	1c9f 0008 2000      	0x200000081c9f
     efc:	0009                	c.nop	2
     efe:	0100                	addi	s0,sp,128
     f00:	6200                	flw	fs0,0(a2)
	...
     f0a:	072c                	addi	a1,sp,904
     f0c:	0000                	unimp
     f0e:	07fe                	slli	a5,a5,0x1f
     f10:	0000                	unimp
     f12:	0001                	nop
     f14:	fe62                	fsw	fs8,60(sp)
     f16:	10000007          	0x10000007
     f1a:	0008                	0x8
     f1c:	0300                	addi	s0,sp,384
     f1e:	8b00                	0x8b00
     f20:	9f7f                	0x9f7f
     f22:	0810                	addi	a2,sp,16
     f24:	0000                	unimp
     f26:	081c                	addi	a5,sp,16
     f28:	0000                	unimp
     f2a:	0006                	c.slli	zero,0x1
     f2c:	315c01f3          	0x315c01f3
     f30:	9f1c                	0x9f1c
     f32:	081c                	addi	a5,sp,16
     f34:	0000                	unimp
     f36:	0920                	addi	s0,sp,152
     f38:	0000                	unimp
     f3a:	0001                	nop
     f3c:	0062                	c.slli	zero,0x18
     f3e:	0000                	unimp
     f40:	0000                	unimp
     f42:	0000                	unimp
     f44:	fc00                	fsw	fs0,56(s0)
     f46:	68000003          	lb	zero,1664(zero) # 680 <polydiv+0x284>
     f4a:	0004                	0x4
     f4c:	0100                	addi	s0,sp,128
     f4e:	5a00                	lw	s0,48(a2)
     f50:	0468                	addi	a0,sp,524
     f52:	0000                	unimp
     f54:	04a8                	addi	a0,sp,584
     f56:	0000                	unimp
     f58:	0004                	0x4
     f5a:	9f5a01f3          	0x9f5a01f3
     f5e:	04a8                	addi	a0,sp,584
     f60:	0000                	unimp
     f62:	04ba                	slli	s1,s1,0xe
     f64:	0000                	unimp
     f66:	0001                	nop
     f68:	ba5a                	fsd	fs6,304(sp)
     f6a:	0004                	0x4
     f6c:	c200                	sw	s0,0(a2)
int main(){
     f6e:	0004                	0x4
     f70:	0400                	addi	s0,sp,512
    int message[48] = {1, 1, 2, 1, 1, 1, 1, 2,1, 1, 0, 1, 1, 2, 1, 0,1, 2, 0, 1, 1, 1, 1, 0,1, 1, 0, 2, 1, 2, 1, 0, 1, 1, 2, 1, 1, 1, 1, 2, 1, 1, 2, 1, 1, 1, 1, 2};
     f72:	f300                	fsw	fs0,32(a4)
     f74:	5a01                	li	s4,-32
     f76:	c29f 0004 c800      	0xc8000004c29f
     f7c:	0004                	0x4
     f7e:	0100                	addi	s0,sp,128
int main(){
     f80:	5a00                	lw	s0,48(a2)
     f82:	04c8                	addi	a0,sp,580
     f84:	0000                	unimp
     f86:	06d6                	slli	a3,a3,0x15
     f88:	0000                	unimp
     f8a:	0004                	0x4
     f8c:	9f5a01f3          	0x9f5a01f3
	...
    resultkon[0] = 0xaaaaaaa0;
     f98:	03fc                	addi	a5,sp,460
     f9a:	0000                	unimp
     f9c:	0466                	slli	s0,s0,0x19
     f9e:	0000                	unimp
     fa0:	0001                	nop
    keys = generate_keys(N, p, q);
     fa2:	0004665b          	0x4665b
     fa6:	a800                	fsd	fs0,16(s0)
     fa8:	0004                	0x4
     faa:	0100                	addi	s0,sp,128
    resultkon[0] = 0xaaaaaaa0;
     fac:	6200                	flw	fs0,0(a2)
    resultkon[0] = 0xaaaaaaa1;
     fae:	04a8                	addi	a0,sp,584
     fb0:	0000                	unimp
    keys = generate_keys(N, p, q);
     fb2:	04ba                	slli	s1,s1,0xe
    resultkon[0] = 0xaaaaaaa1;
     fb4:	0000                	unimp
     fb6:	0001                	nop
    for(i = 0; i < N; ++i){
     fb8:	0004ba5b          	0x4ba5b
        secret_key_f[i] = keys[i];
     fbc:	c200                	sw	s0,0(a2)
     fbe:	0004                	0x4
     fc0:	0100                	addi	s0,sp,128
     fc2:	6200                	flw	fs0,0(a2)
     fc4:	04c2                	slli	s1,s1,0x10
     fc6:	0000                	unimp
    for(i = 0; i < N; ++i){
     fc8:	04c6                	slli	s1,s1,0x11
     fca:	0000                	unimp
     fcc:	0001                	nop
    for(i = N; i < (2*N); ++i){
     fce:	0004c65b          	0x4c65b
     fd2:	8400                	0x8400
     fd4:	0006                	c.slli	zero,0x1
     fd6:	0100                	addi	s0,sp,128
     fd8:	6200                	flw	fs0,0(a2)
        secret_key_fp[i-(2*N)] = keys[i];
     fda:	0684                	addi	s1,sp,832
     fdc:	0000                	unimp
     fde:	06a6                	slli	a3,a3,0x9
     fe0:	0000                	unimp
     fe2:	018b0003          	lb	zero,24(s6)
    for(i = (2*N); i < (3*N); ++i){
     fe6:	a69f 0006 b200      	0xb2000006a69f
    for(i = (3*N); i < (4*N); ++i){
     fec:	0006                	c.slli	zero,0x1
     fee:	0400                	addi	s0,sp,512
     ff0:	f300                	fsw	fs0,32(a4)
     ff2:	5b01                	li	s6,-32
        public_key[i-(4*N)] = keys[i];
     ff4:	b29f 0006 c400      	0xc4000006b29f
     ffa:	0006                	c.slli	zero,0x1
     ffc:	0100                	addi	s0,sp,128
    for(i = (4*N); i < (5*N); ++i){
     ffe:	6200                	flw	fs0,0(a2)
    1000:	06c4                	addi	s1,sp,836
    1002:	0000                	unimp
    1004:	06d6                	slli	a3,a3,0x15
    1006:	0000                	unimp
    1008:	018b0003          	lb	zero,24(s6)
        ring_poly[i-(5*N)] = keys[i];
    100c:	009f 0000 0000      	0x9f
    1012:	0000                	unimp
    for(i = (5*N); i < (6*N+1); ++i){
    1014:	fc00                	fsw	fs0,56(s0)
    1016:	64000003          	lb	zero,1600(zero) # 640 <polydiv+0x244>
    resultkon[0] = 0xbbbbbbb0;
    101a:	0004                	0x4
    101c:	0100                	addi	s0,sp,128
    101e:	5c00                	lw	s0,56(s0)
    Enc_Message = ntru_encyrpt(N, q, message, public_key, ring_poly);
    1020:	0464                	addi	s1,sp,524
    1022:	0000                	unimp
    1024:	049e                	slli	s1,s1,0x7
    1026:	0000                	unimp
    resultkon[0] = 0xbbbbbbb1;
    1028:	0001                	nop
    102a:	9e68                	0x9e68
    Enc_Message = ntru_encyrpt(N, q, message, public_key, ring_poly);
    102c:	0004                	0x4
    102e:	a800                	fsd	fs0,16(s0)
    resultkon[0] = 0xbbbbbbb0;
    1030:	0004                	0x4
    Enc_Message = ntru_encyrpt(N, q, message, public_key, ring_poly);
    1032:	0400                	addi	s0,sp,512
    resultkon[0] = 0xbbbbbbb1;
    1034:	f300                	fsw	fs0,32(a4)
    resultkon[0] = 0xccccccc0;
    1036:	5c01                	li	s8,-32
    1038:	a89f 0004 ba00      	0xba000004a89f
    Enc_Message = ntru_encyrpt(N, q, message, public_key, ring_poly);
    103e:	0004                	0x4
    resultkon[0] = 0xccccccc0;
    1040:	0100                	addi	s0,sp,128
    Dec_Message = ntru_deceypt(N, p, q, secret_key_f, secret_key_fp, Enc_Message, ring_poly);
    1042:	5c00                	lw	s0,56(s0)
    1044:	04ba                	slli	s1,s1,0xe
    1046:	0000                	unimp
    1048:	04c2                	slli	s1,s1,0x10
    104a:	0000                	unimp
    104c:	0001                	nop
    104e:	c268                	sw	a0,68(a2)
    1050:	0004                	0x4
    1052:	c400                	sw	s0,8(s0)
    1054:	0004                	0x4
    resultkon[0] = 0xccccccc1;	
    1056:	0100                	addi	s0,sp,128
    1058:	5c00                	lw	s0,56(s0)
            resultkon[0] = 0xDEDEDEDE;
    105a:	04c4                	addi	s1,sp,580
    105c:	0000                	unimp
    resultkon[0] = 0xccccccc1;	
    105e:	04fa                	slli	s1,s1,0x1e
    1060:	0000                	unimp
            resultkon[0] = 0xDEDEDEDE;
    1062:	0001                	nop
    1064:	fa68                	fsw	fa0,116(a2)
    for(i = 0; i < 32; ++i){
    1066:	0004                	0x4
    1068:	d600                	sw	s0,40(a2)
        if(!(message[i] == Dec_Message[i])){
    106a:	0006                	c.slli	zero,0x1
    106c:	0400                	addi	s0,sp,512
    106e:	f300                	fsw	fs0,32(a4)
    1070:	5c01                	li	s8,-32
    1072:	009f 0000 0000      	0x9f
    1078:	0000                	unimp
            resultkon[0] = 0xBABABABA;
    107a:	fc00                	fsw	fs0,56(s0)
    107c:	54000003          	lb	zero,1344(zero) # 540 <polydiv+0x144>
    1080:	0004                	0x4
    1082:	0100                	addi	s0,sp,128
}
    1084:	5d00                	lw	s0,56(a0)
    1086:	0454                	addi	a3,sp,516
    1088:	0000                	unimp
    108a:	069c                	addi	a5,sp,832
    108c:	0000                	unimp
    108e:	0001                	nop
    1090:	9c66                	add	s8,s8,s9
    1092:	0006                	c.slli	zero,0x1
    1094:	b200                	fsd	fs0,32(a2)
    1096:	0006                	c.slli	zero,0x1
    1098:	0400                	addi	s0,sp,512
    109a:	f300                	fsw	fs0,32(a4)
            resultkon[0] = 0xDEDEDEDE;
    109c:	5d01                	li	s10,-32
    for(i = 0; i < 32; ++i){
    109e:	b29f 0006 d600      	0xd6000006b29f
    10a4:	0006                	c.slli	zero,0x1
    10a6:	0100                	addi	s0,sp,128
    10a8:	6600                	flw	fs0,8(a2)
	...
    10b2:	03fc                	addi	a5,sp,460
    10b4:	0000                	unimp
    10b6:	0454                	addi	a3,sp,516
    10b8:	0000                	unimp
    10ba:	0001                	nop
    10bc:	545e                	lw	s0,244(sp)
    10be:	0004                	0x4
    10c0:	9200                	0x9200
    10c2:	0006                	c.slli	zero,0x1
    10c4:	0100                	addi	s0,sp,128
    10c6:	5900                	lw	s0,48(a0)
    10c8:	0692                	slli	a3,a3,0x4
    10ca:	0000                	unimp
    10cc:	06b2                	slli	a3,a3,0xc
    10ce:	0000                	unimp
    10d0:	0004                	0x4
    10d2:	9f5e01f3          	0x9f5e01f3
    10d6:	06b2                	slli	a3,a3,0xc
    10d8:	0000                	unimp
    10da:	06d6                	slli	a3,a3,0x15
    10dc:	0000                	unimp
    10de:	0001                	nop
    10e0:	0059                	c.nop	22
    10e2:	0000                	unimp
    10e4:	0000                	unimp
    10e6:	0000                	unimp
    10e8:	a000                	fsd	fs0,0(s0)
    10ea:	0004                	0x4
    10ec:	a800                	fsd	fs0,16(s0)
    10ee:	0004                	0x4
    10f0:	0100                	addi	s0,sp,128
    10f2:	6800                	flw	fs0,16(s0)
    10f4:	04fa                	slli	s1,s1,0x1e
    10f6:	0000                	unimp
    10f8:	06a0                	addi	s0,sp,840
    10fa:	0000                	unimp
    10fc:	0001                	nop
    10fe:	b268                	fsd	fa0,224(a2)
    1100:	0006                	c.slli	zero,0x1
    1102:	d600                	sw	s0,40(a2)
    1104:	0006                	c.slli	zero,0x1
    1106:	0100                	addi	s0,sp,128
    1108:	6800                	flw	fs0,16(s0)
	...
    1112:	051e                	slli	a0,a0,0x7
    1114:	0000                	unimp
    1116:	0526                	slli	a0,a0,0x9
    1118:	0000                	unimp
    111a:	0001                	nop
    111c:	665f 0006 6c00      	0x6c000006665f
    1122:	0006                	c.slli	zero,0x1
    1124:	0100                	addi	s0,sp,128
    1126:	5f00                	lw	s0,56(a4)
	...
    1130:	0452                	slli	s0,s0,0x14
    1132:	0000                	unimp
    1134:	0454                	addi	a3,sp,516
    1136:	0000                	unimp
    1138:	0002                	c.slli64	zero
    113a:	9f30                	0x9f30
    113c:	0454                	addi	a3,sp,516
    113e:	0000                	unimp
    1140:	045c                	addi	a5,sp,516
    1142:	0000                	unimp
    1144:	0001                	nop
    1146:	7c5f 0004 8700      	0x870000047c5f
    114c:	0004                	0x4
    114e:	0100                	addi	s0,sp,128
    1150:	5f00                	lw	s0,56(a4)
    1152:	0488                	addi	a0,sp,576
    1154:	0000                	unimp
    1156:	048a                	slli	s1,s1,0x2
    1158:	0000                	unimp
    115a:	0002                	c.slli64	zero
    115c:	9f30                	0x9f30
    115e:	048a                	slli	s1,s1,0x2
    1160:	0000                	unimp
    1162:	048e                	slli	s1,s1,0x3
    1164:	0000                	unimp
    1166:	0001                	nop
    1168:	8e5f 0004 a800      	0xa80000048e5f
    116e:	0004                	0x4
    1170:	0100                	addi	s0,sp,128
    1172:	6700                	flw	fs0,8(a4)
    1174:	04a8                	addi	a0,sp,584
    1176:	0000                	unimp
    1178:	04b6                	slli	s1,s1,0xd
    117a:	0000                	unimp
    117c:	0001                	nop
    117e:	b65f 0004 b800      	0xb8000004b65f
    1184:	0004                	0x4
    1186:	0300                	addi	s0,sp,384
    1188:	7f00                	flw	fs0,56(a4)
    118a:	9f7f                	0x9f7f
    118c:	04b8                	addi	a4,sp,584
    118e:	0000                	unimp
    1190:	04ba                	slli	s1,s1,0xe
    1192:	0000                	unimp
    1194:	0001                	nop
    1196:	cc5f 0004 da00      	0xda000004cc5f
    119c:	0004                	0x4
    119e:	0100                	addi	s0,sp,128
    11a0:	5f00                	lw	s0,56(a4)
    11a2:	04da                	slli	s1,s1,0x16
    11a4:	0000                	unimp
    11a6:	04dc                	addi	a5,sp,580
    11a8:	0000                	unimp
    11aa:	7f7f0003          	lb	zero,2039(t5)
    11ae:	dc9f 0004 f400      	0xf4000004dc9f
    11b4:	0004                	0x4
    11b6:	0100                	addi	s0,sp,128
    11b8:	5f00                	lw	s0,56(a4)
    11ba:	04f4                	addi	a3,sp,588
    11bc:	0000                	unimp
    11be:	0508                	addi	a0,sp,640
    11c0:	0000                	unimp
    11c2:	0001                	nop
    11c4:	00050867          	jalr	a6,a0
    11c8:	1e00                	addi	s0,sp,816
    11ca:	0005                	c.nop	1
    11cc:	0100                	addi	s0,sp,128
    11ce:	5f00                	lw	s0,56(a4)
    11d0:	0580                	addi	s0,sp,704
    11d2:	0000                	unimp
    11d4:	0591                	addi	a1,a1,4
    11d6:	0000                	unimp
    11d8:	0001                	nop
    11da:	a65f 0005 b700      	0xb7000005a65f
    11e0:	0005                	c.nop	1
    11e2:	0100                	addi	s0,sp,128
    11e4:	5f00                	lw	s0,56(a4)
    11e6:	05c8                	addi	a0,sp,708
    11e8:	0000                	unimp
    11ea:	05ca                	slli	a1,a1,0x12
    11ec:	0000                	unimp
    11ee:	0001                	nop
    11f0:	0005ca6b          	0x5ca6b
    11f4:	da00                	sw	s0,48(a2)
    11f6:	0005                	c.nop	1
    11f8:	0100                	addi	s0,sp,128
    11fa:	5f00                	lw	s0,56(a4)
    11fc:	0600                	addi	s0,sp,768
    11fe:	0000                	unimp
    1200:	060c                	addi	a1,sp,768
    1202:	0000                	unimp
    1204:	0001                	nop
    1206:	0c5f 0006 1400      	0x140000060c5f
    120c:	0006                	c.slli	zero,0x1
    120e:	0300                	addi	s0,sp,384
    1210:	7f00                	flw	fs0,56(a4)
    1212:	9f7f                	0x9f7f
    1214:	0614                	addi	a3,sp,768
    1216:	0000                	unimp
    1218:	0616                	slli	a2,a2,0x5
    121a:	0000                	unimp
    121c:	0001                	nop
    121e:	1e5f 0006 2500      	0x250000061e5f
    1224:	0006                	c.slli	zero,0x1
    1226:	0100                	addi	s0,sp,128
    1228:	5f00                	lw	s0,56(a4)
    122a:	0628                	addi	a0,sp,776
    122c:	0000                	unimp
    122e:	0634                	addi	a3,sp,776
    1230:	0000                	unimp
    1232:	0001                	nop
    1234:	345f 0006 3c00      	0x3c000006345f
    123a:	0006                	c.slli	zero,0x1
    123c:	0300                	addi	s0,sp,384
    123e:	7f00                	flw	fs0,56(a4)
    1240:	9f7f                	0x9f7f
    1242:	063c                	addi	a5,sp,776
    1244:	0000                	unimp
    1246:	063e                	slli	a2,a2,0xf
    1248:	0000                	unimp
    124a:	0001                	nop
    124c:	465f 0006 4d00      	0x4d000006465f
    1252:	0006                	c.slli	zero,0x1
    1254:	0100                	addi	s0,sp,128
    1256:	5f00                	lw	s0,56(a4)
    1258:	0650                	addi	a2,sp,772
    125a:	0000                	unimp
    125c:	0656                	slli	a2,a2,0x15
    125e:	0000                	unimp
    1260:	0001                	nop
    1262:	565f 0006 6600      	0x66000006565f
    1268:	0006                	c.slli	zero,0x1
    126a:	0100                	addi	s0,sp,128
    126c:	5d00                	lw	s0,56(a0)
    126e:	0674                	addi	a3,sp,780
    1270:	0000                	unimp
    1272:	0684                	addi	s1,sp,832
    1274:	0000                	unimp
    1276:	0001                	nop
    1278:	845f 0006 9400      	0x94000006845f
    127e:	0006                	c.slli	zero,0x1
    1280:	0100                	addi	s0,sp,128
    1282:	6200                	flw	fs0,0(a2)
    1284:	06b2                	slli	a3,a3,0xc
    1286:	0000                	unimp
    1288:	06c0                	addi	s0,sp,836
    128a:	0000                	unimp
    128c:	0001                	nop
    128e:	c05f 0006 c200      	0xc2000006c05f
    1294:	0006                	c.slli	zero,0x1
    1296:	0300                	addi	s0,sp,384
    1298:	7f00                	flw	fs0,56(a4)
    129a:	9f7f                	0x9f7f
    129c:	06c2                	slli	a3,a3,0x10
    129e:	0000                	unimp
    12a0:	06c4                	addi	s1,sp,836
    12a2:	0000                	unimp
    12a4:	0001                	nop
    12a6:	c45f 0006 d600      	0xd6000006c45f
    12ac:	0006                	c.slli	zero,0x1
    12ae:	0100                	addi	s0,sp,128
    12b0:	6200                	flw	fs0,0(a2)
	...
    12ba:	051e                	slli	a0,a0,0x7
    12bc:	0000                	unimp
    12be:	0522                	slli	a0,a0,0x8
    12c0:	0000                	unimp
    12c2:	0001                	nop
    12c4:	665e                	flw	fa2,212(sp)
    12c6:	0006                	c.slli	zero,0x1
    12c8:	7400                	flw	fs0,40(s0)
    12ca:	0006                	c.slli	zero,0x1
    12cc:	0100                	addi	s0,sp,128
    12ce:	5e00                	lw	s0,56(a2)
	...
    12d8:	0688                	addi	a0,sp,832
    12da:	0000                	unimp
    12dc:	06b2                	slli	a3,a3,0xc
    12de:	0000                	unimp
    12e0:	0006                	c.slli	zero,0x1
    12e2:	0016ec03          	0x16ec03
    12e6:	9f00                	0x9f00
	...
    12f0:	044c                	addi	a1,sp,516
    12f2:	0000                	unimp
    12f4:	0698                	addi	a4,sp,832
    12f6:	0000                	unimp
    12f8:	0002                	c.slli64	zero
    12fa:	0084                	addi	s1,sp,64
    12fc:	06b2                	slli	a3,a3,0xc
    12fe:	0000                	unimp
    1300:	06d6                	slli	a3,a3,0x15
    1302:	0000                	unimp
    1304:	0002                	c.slli64	zero
    1306:	0084                	addi	s1,sp,64
	...
    1310:	044c                	addi	a1,sp,516
    1312:	0000                	unimp
    1314:	069a                	slli	a3,a3,0x6
    1316:	0000                	unimp
    1318:	0002                	c.slli64	zero
    131a:	0085                	addi	ra,ra,1
    131c:	06b2                	slli	a3,a3,0xc
    131e:	0000                	unimp
    1320:	06d6                	slli	a3,a3,0x15
    1322:	0000                	unimp
    1324:	0002                	c.slli64	zero
    1326:	0085                	addi	ra,ra,1
	...
    1330:	0558                	addi	a4,sp,644
    1332:	0000                	unimp
    1334:	00000567          	jalr	a0,zero # 0 <__DYNAMIC>
    1338:	0001                	nop
    133a:	675a                	flw	fa4,148(sp)
    133c:	0005                	c.nop	1
    133e:	da00                	sw	s0,48(a2)
    1340:	0005                	c.nop	1
    1342:	0300                	addi	s0,sp,384
    1344:	7800                	flw	fs0,48(s0)
    1346:	7fbc                	flw	fa5,120(a5)
    1348:	05ec                	addi	a1,sp,716
    134a:	0000                	unimp
    134c:	0666                	slli	a2,a2,0x19
    134e:	0000                	unimp
    1350:	bc780003          	lb	zero,-1081(a6)
    1354:	007f                	0x7f
    1356:	0000                	unimp
    1358:	0000                	unimp
    135a:	0000                	unimp
    135c:	4c00                	lw	s0,24(s0)
    135e:	0004                	0x4
    1360:	8400                	0x8400
    1362:	0006                	c.slli	zero,0x1
    1364:	0200                	addi	s0,sp,256
    1366:	8300                	0x8300
    1368:	8400                	0x8400
    136a:	0006                	c.slli	zero,0x1
    136c:	9a00                	0x9a00
    136e:	0006                	c.slli	zero,0x1
    1370:	0c00                	addi	s0,sp,528
    1372:	8500                	0x8500
    1374:	8b00                	0x8b00
    1376:	3201                	jal	c76 <ntru_encyrpt+0x62>
    1378:	2324                	fld	fs1,64(a4)
    137a:	1af0090f          	0x1af0090f
    137e:	b21c                	fsd	fa5,32(a2)
    1380:	0006                	c.slli	zero,0x1
    1382:	c400                	sw	s0,8(s0)
    1384:	0006                	c.slli	zero,0x1
    1386:	0200                	addi	s0,sp,256
    1388:	8300                	0x8300
    138a:	c400                	sw	s0,8(s0)
    138c:	0006                	c.slli	zero,0x1
    138e:	d600                	sw	s0,40(a2)
    1390:	0006                	c.slli	zero,0x1
    1392:	0c00                	addi	s0,sp,528
    1394:	8500                	0x8500
    1396:	8b00                	0x8b00
    1398:	3201                	jal	c98 <ntru_encyrpt+0x84>
    139a:	2324                	fld	fs1,64(a4)
    139c:	1af0090f          	0x1af0090f
    13a0:	001c                	0x1c
    13a2:	0000                	unimp
    13a4:	0000                	unimp
    13a6:	0000                	unimp
    13a8:	5200                	lw	s0,32(a2)
    13aa:	0004                	0x4
    13ac:	8c00                	0x8c00
    13ae:	0006                	c.slli	zero,0x1
    13b0:	0200                	addi	s0,sp,256
    13b2:	7200                	flw	fs0,32(a2)
    13b4:	8c00                	0x8c00
    13b6:	0006                	c.slli	zero,0x1
    13b8:	a200                	fsd	fs0,0(a2)
    13ba:	0006                	c.slli	zero,0x1
    13bc:	0200                	addi	s0,sp,256
    13be:	8900                	0x8900
    13c0:	b200                	fsd	fs0,32(a2)
    13c2:	0006                	c.slli	zero,0x1
    13c4:	d600                	sw	s0,40(a2)
    13c6:	0006                	c.slli	zero,0x1
    13c8:	0200                	addi	s0,sp,256
    13ca:	7200                	flw	fs0,32(a2)
	...
    13d4:	4c00                	lw	s0,24(s0)
    13d6:	0004                	0x4
    13d8:	a600                	fsd	fs0,8(a2)
    13da:	0006                	c.slli	zero,0x1
    13dc:	0100                	addi	s0,sp,128
    13de:	6b00                	flw	fs0,16(a4)
    13e0:	06a6                	slli	a3,a3,0x9
    13e2:	0000                	unimp
    13e4:	06b2                	slli	a3,a3,0xc
    13e6:	0000                	unimp
    13e8:	0006                	c.slli	zero,0x1
    13ea:	315b01f3          	0x315b01f3
    13ee:	9f1c                	0x9f1c
    13f0:	06b2                	slli	a3,a3,0xc
    13f2:	0000                	unimp
    13f4:	06d6                	slli	a3,a3,0x15
    13f6:	0000                	unimp
    13f8:	0001                	nop
    13fa:	0000006b          	0x6b
    13fe:	0000                	unimp
    1400:	0000                	unimp
    1402:	4c00                	lw	s0,24(s0)
    1404:	0004                	0x4
    1406:	a600                	fsd	fs0,8(a2)
    1408:	0006                	c.slli	zero,0x1
    140a:	0100                	addi	s0,sp,128
    140c:	6b00                	flw	fs0,16(a4)
    140e:	06a6                	slli	a3,a3,0x9
    1410:	0000                	unimp
    1412:	06b2                	slli	a3,a3,0xc
    1414:	0000                	unimp
    1416:	0006                	c.slli	zero,0x1
    1418:	315b01f3          	0x315b01f3
    141c:	9f1c                	0x9f1c
    141e:	06b2                	slli	a3,a3,0xc
    1420:	0000                	unimp
    1422:	06d6                	slli	a3,a3,0x15
    1424:	0000                	unimp
    1426:	0001                	nop
    1428:	0000006b          	0x6b
    142c:	0000                	unimp
    142e:	0000                	unimp
    1430:	4c00                	lw	s0,24(s0)
    1432:	0004                	0x4
    1434:	a600                	fsd	fs0,8(a2)
    1436:	0006                	c.slli	zero,0x1
    1438:	0100                	addi	s0,sp,128
    143a:	6b00                	flw	fs0,16(a4)
    143c:	06a6                	slli	a3,a3,0x9
    143e:	0000                	unimp
    1440:	06b2                	slli	a3,a3,0xc
    1442:	0000                	unimp
    1444:	0006                	c.slli	zero,0x1
    1446:	315b01f3          	0x315b01f3
    144a:	9f1c                	0x9f1c
    144c:	06b2                	slli	a3,a3,0xc
    144e:	0000                	unimp
    1450:	06d6                	slli	a3,a3,0x15
    1452:	0000                	unimp
    1454:	0001                	nop
    1456:	0000006b          	0x6b
    145a:	0000                	unimp
    145c:	0000                	unimp
    145e:	5000                	lw	s0,32(s0)
    1460:	0004                	0x4
    1462:	8e00                	0x8e00
    1464:	0004                	0x4
    1466:	0100                	addi	s0,sp,128
    1468:	6700                	flw	fs0,8(a4)
    146a:	048e                	slli	s1,s1,0x3
    146c:	0000                	unimp
    146e:	04a8                	addi	a0,sp,584
    1470:	0000                	unimp
    1472:	7f860003          	lb	zero,2040(a2) # 517f8 <_stack_start+0x417f8>
    1476:	a89f 0004 f400      	0xf4000004a89f
    147c:	0004                	0x4
    147e:	0100                	addi	s0,sp,128
    1480:	6700                	flw	fs0,8(a4)
    1482:	04f4                	addi	a3,sp,588
    1484:	0000                	unimp
    1486:	069c                	addi	a5,sp,832
    1488:	0000                	unimp
    148a:	7f860003          	lb	zero,2040(a2)
    148e:	9c9f 0006 b200      	0xb20000069c9f
    1494:	0006                	c.slli	zero,0x1
    1496:	0600                	addi	s0,sp,768
    1498:	f300                	fsw	fs0,32(a4)
    149a:	5d01                	li	s10,-32
    149c:	1c31                	addi	s8,s8,-20
    149e:	b29f 0006 d600      	0xd6000006b29f
    14a4:	0006                	c.slli	zero,0x1
    14a6:	0300                	addi	s0,sp,384
    14a8:	8600                	0x8600
    14aa:	9f7f                	0x9f7f
	...
    14b4:	028c                	addi	a1,sp,320
    14b6:	0000                	unimp
    14b8:	02fc                	addi	a5,sp,332
    14ba:	0000                	unimp
    14bc:	0001                	nop
    14be:	fc5a                	fsw	fs6,56(sp)
    14c0:	0002                	c.slli64	zero
    14c2:	1600                	addi	s0,sp,800
    14c4:	04000003          	lb	zero,64(zero) # 40 <__DYNAMIC+0x40>
    14c8:	f300                	fsw	fs0,32(a4)
    14ca:	5a01                	li	s4,-32
    14cc:	169f 0003 4c00      	0x4c000003169f
    14d2:	01000003          	lb	zero,16(zero) # 10 <__DYNAMIC+0x10>
    14d6:	5a00                	lw	s0,48(a2)
    14d8:	034c                	addi	a1,sp,388
    14da:	0000                	unimp
    14dc:	03fc                	addi	a5,sp,460
    14de:	0000                	unimp
    14e0:	0004                	0x4
    14e2:	9f5a01f3          	0x9f5a01f3
	...
    14ee:	028c                	addi	a1,sp,320
    14f0:	0000                	unimp
    14f2:	02fc                	addi	a5,sp,332
    14f4:	0000                	unimp
    14f6:	0001                	nop
    14f8:	0002fc5b          	0x2fc5b
    14fc:	1600                	addi	s0,sp,800
    14fe:	03000003          	lb	zero,48(zero) # 30 <__DYNAMIC+0x30>
    1502:	8f00                	0x8f00
    1504:	9f01                	0x9f01
    1506:	0316                	slli	t1,t1,0x5
    1508:	0000                	unimp
    150a:	034c                	addi	a1,sp,388
    150c:	0000                	unimp
    150e:	0001                	nop
    1510:	00034c5b          	0x34c5b
    1514:	fc00                	fsw	fs0,56(s0)
    1516:	03000003          	lb	zero,48(zero) # 30 <__DYNAMIC+0x30>
    151a:	8f00                	0x8f00
    151c:	9f01                	0x9f01
	...
    1526:	028c                	addi	a1,sp,320
    1528:	0000                	unimp
    152a:	0302                	c.slli64	t1
    152c:	0000                	unimp
    152e:	0001                	nop
    1530:	025c                	addi	a5,sp,260
    1532:	16000003          	lb	zero,352(zero) # 160 <polymult+0xb0>
    1536:	04000003          	lb	zero,64(zero) # 40 <__DYNAMIC+0x40>
    153a:	f300                	fsw	fs0,32(a4)
    153c:	5c01                	li	s8,-32
    153e:	169f 0003 6000      	0x60000003169f
    1544:	01000003          	lb	zero,16(zero) # 10 <__DYNAMIC+0x10>
    1548:	5c00                	lw	s0,56(s0)
    154a:	0360                	addi	s0,sp,396
    154c:	0000                	unimp
    154e:	03fc                	addi	a5,sp,460
    1550:	0000                	unimp
    1552:	0004                	0x4
    1554:	9f5c01f3          	0x9f5c01f3
	...
    1560:	028c                	addi	a1,sp,320
    1562:	0000                	unimp
    1564:	030e                	slli	t1,t1,0x3
    1566:	0000                	unimp
    1568:	0001                	nop
    156a:	0e5e                	slli	t3,t3,0x17
    156c:	16000003          	lb	zero,352(zero) # 160 <polymult+0xb0>
    1570:	04000003          	lb	zero,64(zero) # 40 <__DYNAMIC+0x40>
    1574:	f300                	fsw	fs0,32(a4)
    1576:	5e01                	li	t3,-32
    1578:	169f 0003 6000      	0x60000003169f
    157e:	01000003          	lb	zero,16(zero) # 10 <__DYNAMIC+0x10>
    1582:	5e00                	lw	s0,56(a2)
    1584:	0360                	addi	s0,sp,396
    1586:	0000                	unimp
    1588:	03fc                	addi	a5,sp,460
    158a:	0000                	unimp
    158c:	0004                	0x4
    158e:	9f5e01f3          	0x9f5e01f3
	...
    159a:	02d8                	addi	a4,sp,324
    159c:	0000                	unimp
    159e:	02f0                	addi	a2,sp,332
    15a0:	0000                	unimp
    15a2:	0002                	c.slli64	zero
    15a4:	008c                	addi	a1,sp,64
    15a6:	02f0                	addi	a2,sp,332
    15a8:	0000                	unimp
    15aa:	0360                	addi	s0,sp,396
    15ac:	0000                	unimp
    15ae:	0002                	c.slli64	zero
    15b0:	0082                	c.slli64	ra
    15b2:	0360                	addi	s0,sp,396
    15b4:	0000                	unimp
    15b6:	03b6                	slli	t2,t2,0xd
    15b8:	0000                	unimp
    15ba:	0002                	c.slli64	zero
    15bc:	008c                	addi	a1,sp,64
    15be:	03b6                	slli	t2,t2,0xd
    15c0:	0000                	unimp
    15c2:	03da                	slli	t2,t2,0x16
    15c4:	0000                	unimp
    15c6:	0002                	c.slli64	zero
    15c8:	0082                	c.slli64	ra
    15ca:	03da                	slli	t2,t2,0x16
    15cc:	0000                	unimp
    15ce:	03fc                	addi	a5,sp,460
    15d0:	0000                	unimp
    15d2:	0002                	c.slli64	zero
    15d4:	008c                	addi	a1,sp,64
	...
    15de:	02de                	slli	t0,t0,0x17
    15e0:	0000                	unimp
    15e2:	02f0                	addi	a2,sp,332
    15e4:	0000                	unimp
    15e6:	0002                	c.slli64	zero
    15e8:	9f30                	0x9f30
    15ea:	02f0                	addi	a2,sp,332
    15ec:	0000                	unimp
    15ee:	02f6                	slli	t0,t0,0x1d
    15f0:	0000                	unimp
    15f2:	0001                	nop
    15f4:	f659                	bnez	a2,1582 <product2+0xee>
    15f6:	0002                	c.slli64	zero
    15f8:	fc00                	fsw	fs0,56(s0)
    15fa:	0002                	c.slli64	zero
    15fc:	0100                	addi	s0,sp,128
    15fe:	5700                	lw	s0,40(a4)
    1600:	02fc                	addi	a5,sp,332
    1602:	0000                	unimp
    1604:	030e                	slli	t1,t1,0x3
    1606:	0000                	unimp
    1608:	0001                	nop
    160a:	0003165b          	0x3165b
    160e:	3800                	fld	fs0,48(s0)
    1610:	01000003          	lb	zero,16(zero) # 10 <__DYNAMIC+0x10>
    1614:	5900                	lw	s0,48(a0)
    1616:	0338                	addi	a4,sp,392
    1618:	0000                	unimp
    161a:	0346                	slli	t1,t1,0x11
    161c:	0000                	unimp
    161e:	0001                	nop
    1620:	00034657          	0x34657
    1624:	4a00                	lw	s0,16(a2)
    1626:	03000003          	lb	zero,48(zero) # 30 <__DYNAMIC+0x30>
    162a:	7700                	flw	fs0,40(a4)
    162c:	9f7f                	0x9f7f
    162e:	034a                	slli	t1,t1,0x12
    1630:	0000                	unimp
    1632:	034c                	addi	a1,sp,388
    1634:	0000                	unimp
    1636:	0001                	nop
    1638:	00034c57          	0x34c57
    163c:	5a00                	lw	s0,48(a2)
    163e:	01000003          	lb	zero,16(zero) # 10 <__DYNAMIC+0x10>
    1642:	5b00                	lw	s0,48(a4)
    1644:	035a                	slli	t1,t1,0x16
    1646:	0000                	unimp
    1648:	035e                	slli	t1,t1,0x17
    164a:	0000                	unimp
    164c:	7f7b0003          	lb	zero,2039(s6)
    1650:	5e9f 0003 6000      	0x600000035e9f
    1656:	01000003          	lb	zero,16(zero) # 10 <__DYNAMIC+0x10>
    165a:	5b00                	lw	s0,48(a4)
    165c:	03da                	slli	t2,t2,0x16
    165e:	0000                	unimp
    1660:	03e2                	slli	t2,t2,0x18
    1662:	0000                	unimp
    1664:	0001                	nop
    1666:	0003e25b          	0x3e25b
    166a:	ee00                	fsw	fs0,24(a2)
    166c:	03000003          	lb	zero,48(zero) # 30 <__DYNAMIC+0x30>
    1670:	7b00                	flw	fs0,48(a4)
    1672:	9f7f                	0x9f7f
    1674:	03ee                	slli	t2,t2,0x1b
    1676:	0000                	unimp
    1678:	03f8                	addi	a4,sp,460
    167a:	0000                	unimp
    167c:	0001                	nop
    167e:	0000005b          	0x5b
    1682:	0000                	unimp
    1684:	0000                	unimp
    1686:	0e00                	addi	s0,sp,784
    1688:	16000003          	lb	zero,352(zero) # 160 <polymult+0xb0>
    168c:	01000003          	lb	zero,16(zero) # 10 <__DYNAMIC+0x10>
    1690:	6100                	flw	fs0,0(a0)
    1692:	0316                	slli	t1,t1,0x5
    1694:	0000                	unimp
    1696:	0332                	slli	t1,t1,0xc
    1698:	0000                	unimp
    169a:	0001                	nop
    169c:	00036057          	0x36057
    16a0:	9000                	0x9000
    16a2:	01000003          	lb	zero,16(zero) # 10 <__DYNAMIC+0x10>
    16a6:	6100                	flw	fs0,0(a0)
    16a8:	0390                	addi	a2,sp,448
    16aa:	0000                	unimp
    16ac:	03b2                	slli	t2,t2,0xc
    16ae:	0000                	unimp
    16b0:	0001                	nop
    16b2:	b25e                	fsd	fs7,288(sp)
    16b4:	da000003          	lb	zero,-608(zero) # fffffda0 <_stack_start+0xfffefda0>
    16b8:	01000003          	lb	zero,16(zero) # 10 <__DYNAMIC+0x10>
    16bc:	6100                	flw	fs0,0(a0)
    16be:	03da                	slli	t2,t2,0x16
    16c0:	0000                	unimp
    16c2:	03fc                	addi	a5,sp,460
    16c4:	0000                	unimp
    16c6:	0001                	nop
    16c8:	005e                	c.slli	zero,0x17
    16ca:	0000                	unimp
    16cc:	0000                	unimp
    16ce:	0000                	unimp
    16d0:	6000                	flw	fs0,0(s0)
    16d2:	72000003          	lb	zero,1824(zero) # 720 <ext_euclid+0x4a>
    16d6:	01000003          	lb	zero,16(zero) # 10 <__DYNAMIC+0x10>
    16da:	5e00                	lw	s0,56(a2)
    16dc:	0372                	slli	t1,t1,0x1c
    16de:	0000                	unimp
    16e0:	0378                	addi	a4,sp,396
    16e2:	0000                	unimp
    16e4:	017e0003          	lb	zero,23(t3) # 16017 <_stack_start+0x6017>
    16e8:	789f 0003 8200      	0x82000003789f
    16ee:	01000003          	lb	zero,16(zero) # 10 <__DYNAMIC+0x10>
    16f2:	5e00                	lw	s0,56(a2)
    16f4:	03b6                	slli	t2,t2,0xd
    16f6:	0000                	unimp
    16f8:	03c8                	addi	a0,sp,452
    16fa:	0000                	unimp
    16fc:	0001                	nop
    16fe:	c85e                	sw	s7,16(sp)
    1700:	ce000003          	lb	zero,-800(zero) # fffffce0 <_stack_start+0xfffefce0>
    1704:	03000003          	lb	zero,48(zero) # 30 <__DYNAMIC+0x30>
    1708:	7e00                	flw	fs0,56(a2)
    170a:	9f01                	0x9f01
    170c:	03ce                	slli	t2,t2,0x13
    170e:	0000                	unimp
    1710:	03da                	slli	t2,t2,0x16
    1712:	0000                	unimp
    1714:	0001                	nop
    1716:	005e                	c.slli	zero,0x17
    1718:	0000                	unimp
    171a:	0000                	unimp
    171c:	0000                	unimp
    171e:	9400                	0x9400
    1720:	b2000003          	lb	zero,-1248(zero) # fffffb20 <_stack_start+0xfffefb20>
    1724:	06000003          	lb	zero,96(zero) # 60 <__DYNAMIC+0x60>
    1728:	0300                	addi	s0,sp,384
    172a:	1494                	addi	a3,sp,608
    172c:	0000                	unimp
    172e:	009f 0000 0000      	0x9f
    1734:	0000                	unimp
    1736:	de00                	sw	s0,56(a2)
    1738:	0002                	c.slli64	zero
    173a:	9800                	0x9800
    173c:	02000003          	lb	zero,32(zero) # 20 <__DYNAMIC+0x20>
    1740:	7200                	flw	fs0,32(a2)
    1742:	9800                	0x9800
    1744:	b2000003          	lb	zero,-1248(zero) # fffffb20 <_stack_start+0xfffefb20>
    1748:	0c000003          	lb	zero,192(zero) # c0 <polymult+0x10>
    174c:	7500                	flw	fs0,40(a0)
    174e:	7d00                	flw	fs0,56(a0)
    1750:	3200                	fld	fs0,32(a2)
    1752:	2324                	fld	fs1,64(a4)
    1754:	1af0090f          	0x1af0090f
    1758:	b21c                	fsd	fa5,32(a2)
    175a:	fc000003          	lb	zero,-64(zero) # ffffffc0 <_stack_start+0xfffeffc0>
    175e:	02000003          	lb	zero,32(zero) # 20 <__DYNAMIC+0x20>
    1762:	7200                	flw	fs0,32(a2)
	...
    176c:	d800                	sw	s0,48(s0)
    176e:	0002                	c.slli64	zero
    1770:	0e00                	addi	s0,sp,784
    1772:	01000003          	lb	zero,16(zero) # 10 <__DYNAMIC+0x10>
    1776:	6100                	flw	fs0,0(a0)
    1778:	030e                	slli	t1,t1,0x3
    177a:	0000                	unimp
    177c:	0316                	slli	t1,t1,0x5
    177e:	0000                	unimp
    1780:	7f7d0003          	lb	zero,2039(s10)
    1784:	169f 0003 6000      	0x60000003169f
    178a:	01000003          	lb	zero,16(zero) # 10 <__DYNAMIC+0x10>
    178e:	6100                	flw	fs0,0(a0)
    1790:	0360                	addi	s0,sp,396
    1792:	0000                	unimp
    1794:	03fc                	addi	a5,sp,460
    1796:	0000                	unimp
    1798:	7f7d0003          	lb	zero,2039(s10)
    179c:	009f 0000 0000      	0x9f
    17a2:	0000                	unimp
    17a4:	dc00                	sw	s0,56(s0)
    17a6:	0002                	c.slli64	zero
    17a8:	0e00                	addi	s0,sp,784
    17aa:	01000003          	lb	zero,16(zero) # 10 <__DYNAMIC+0x10>
    17ae:	6100                	flw	fs0,0(a0)
    17b0:	030e                	slli	t1,t1,0x3
    17b2:	0000                	unimp
    17b4:	0316                	slli	t1,t1,0x5
    17b6:	0000                	unimp
    17b8:	7f7d0003          	lb	zero,2039(s10)
    17bc:	169f 0003 6000      	0x60000003169f
    17c2:	01000003          	lb	zero,16(zero) # 10 <__DYNAMIC+0x10>
    17c6:	6100                	flw	fs0,0(a0)
    17c8:	0360                	addi	s0,sp,396
    17ca:	0000                	unimp
    17cc:	03fc                	addi	a5,sp,460
    17ce:	0000                	unimp
    17d0:	7f7d0003          	lb	zero,2039(s10)
    17d4:	009f 0000 0000      	0x9f
    17da:	0000                	unimp
    17dc:	b000                	fsd	fs0,32(s0)
    17de:	0000                	unimp
    17e0:	3c00                	fld	fs0,56(s0)
    17e2:	0001                	nop
    17e4:	0100                	addi	s0,sp,128
    17e6:	5a00                	lw	s0,48(a2)
    17e8:	013c                	addi	a5,sp,136
    17ea:	0000                	unimp
    17ec:	0172                	slli	sp,sp,0x1c
    17ee:	0000                	unimp
    17f0:	0004                	0x4
    17f2:	9f5a01f3          	0x9f5a01f3
    17f6:	0172                	slli	sp,sp,0x1c
    17f8:	0000                	unimp
    17fa:	01a8                	addi	a0,sp,200
    17fc:	0000                	unimp
    17fe:	0001                	nop
    1800:	a85a                	fsd	fs6,16(sp)
    1802:	0001                	nop
    1804:	8c00                	0x8c00
    1806:	0002                	c.slli64	zero
    1808:	0400                	addi	s0,sp,512
    180a:	f300                	fsw	fs0,32(a4)
    180c:	5a01                	li	s4,-32
    180e:	009f 0000 0000      	0x9f
    1814:	0000                	unimp
    1816:	b000                	fsd	fs0,32(s0)
    1818:	0000                	unimp
    181a:	3e00                	fld	fs0,56(a2)
    181c:	0001                	nop
    181e:	0100                	addi	s0,sp,128
    1820:	5b00                	lw	s0,48(a4)
    1822:	013e                	slli	sp,sp,0xf
    1824:	0000                	unimp
    1826:	00000143          	fmadd.s	ft2,ft0,ft0,ft0,rne
    182a:	0001                	nop
    182c:	435c                	lw	a5,4(a4)
    182e:	0001                	nop
    1830:	7200                	flw	fs0,32(a2)
    1832:	0001                	nop
    1834:	0300                	addi	s0,sp,384
    1836:	8600                	0x8600
    1838:	9f01                	0x9f01
    183a:	0172                	slli	sp,sp,0x1c
    183c:	0000                	unimp
    183e:	01a8                	addi	a0,sp,200
    1840:	0000                	unimp
    1842:	0001                	nop
    1844:	0001a85b          	0x1a85b
    1848:	f600                	fsw	fs0,40(a2)
    184a:	0001                	nop
    184c:	0300                	addi	s0,sp,384
    184e:	8600                	0x8600
    1850:	9f01                	0x9f01
    1852:	01f6                	slli	gp,gp,0x1d
    1854:	0000                	unimp
    1856:	028c                	addi	a1,sp,320
    1858:	0000                	unimp
    185a:	0004                	0x4
    185c:	9f5b01f3          	0x9f5b01f3
	...
    1868:	00b0                	addi	a2,sp,72
    186a:	0000                	unimp
    186c:	0126                	slli	sp,sp,0x9
    186e:	0000                	unimp
    1870:	0001                	nop
    1872:	265c                	fld	fa5,136(a2)
    1874:	0001                	nop
    1876:	4300                	lw	s0,0(a4)
    1878:	0001                	nop
    187a:	0100                	addi	s0,sp,128
    187c:	6000                	flw	fs0,0(s0)
    187e:	00000143          	fmadd.s	ft2,ft0,ft0,ft0,rne
    1882:	0172                	slli	sp,sp,0x1c
    1884:	0000                	unimp
    1886:	b4780003          	lb	zero,-1209(a6)
    188a:	727f                	0x727f
    188c:	0001                	nop
    188e:	a800                	fsd	fs0,16(s0)
    1890:	0001                	nop
    1892:	0100                	addi	s0,sp,128
    1894:	6000                	flw	fs0,0(s0)
    1896:	01a8                	addi	a0,sp,200
    1898:	0000                	unimp
    189a:	01ea                	slli	gp,gp,0x1a
    189c:	0000                	unimp
    189e:	b4780003          	lb	zero,-1209(a6)
    18a2:	ea7f                	0xea7f
    18a4:	0001                	nop
    18a6:	8c00                	0x8c00
    18a8:	0002                	c.slli64	zero
    18aa:	0300                	addi	s0,sp,384
    18ac:	9100                	0x9100
    18ae:	7fb4                	flw	fa3,120(a5)
	...
    18b8:	00b0                	addi	a2,sp,72
    18ba:	0000                	unimp
    18bc:	00fe                	slli	ra,ra,0x1f
    18be:	0000                	unimp
    18c0:	0001                	nop
    18c2:	fe5d                	bnez	a2,1880 <result+0x194>
    18c4:	0000                	unimp
    18c6:	ee00                	fsw	fs0,24(a2)
    18c8:	0001                	nop
    18ca:	0100                	addi	s0,sp,128
    18cc:	6200                	flw	fs0,0(a2)
    18ce:	01ee                	slli	gp,gp,0x1b
    18d0:	0000                	unimp
    18d2:	020c                	addi	a1,sp,256
    18d4:	0000                	unimp
    18d6:	0004                	0x4
    18d8:	9f5d01f3          	0x9f5d01f3
    18dc:	020c                	addi	a1,sp,256
    18de:	0000                	unimp
    18e0:	028c                	addi	a1,sp,320
    18e2:	0000                	unimp
    18e4:	0001                	nop
    18e6:	0062                	c.slli	zero,0x18
    18e8:	0000                	unimp
    18ea:	0000                	unimp
    18ec:	0000                	unimp
    18ee:	b000                	fsd	fs0,32(s0)
    18f0:	0000                	unimp
    18f2:	c000                	sw	s0,0(s0)
    18f4:	0000                	unimp
    18f6:	0100                	addi	s0,sp,128
    18f8:	5e00                	lw	s0,56(a2)
    18fa:	00c0                	addi	s0,sp,68
    18fc:	0000                	unimp
    18fe:	01fa                	slli	gp,gp,0x1e
    1900:	0000                	unimp
    1902:	0001                	nop
    1904:	fa68                	fsw	fa0,116(a2)
    1906:	0001                	nop
    1908:	0c00                	addi	s0,sp,528
    190a:	0002                	c.slli64	zero
    190c:	0400                	addi	s0,sp,512
    190e:	f300                	fsw	fs0,32(a4)
    1910:	5e01                	li	t3,-32
    1912:	0c9f 0002 8c00      	0x8c0000020c9f
    1918:	0002                	c.slli64	zero
    191a:	0100                	addi	s0,sp,128
    191c:	6800                	flw	fs0,16(s0)
	...
    1926:	00b0                	addi	a2,sp,72
    1928:	0000                	unimp
    192a:	0110                	addi	a2,sp,128
    192c:	0000                	unimp
    192e:	0001                	nop
    1930:	105f 0001 ea00      	0xea000001105f
    1936:	0001                	nop
    1938:	0300                	addi	s0,sp,384
    193a:	7800                	flw	fs0,48(s0)
    193c:	7fb8                	flw	fa4,120(a5)
    193e:	01ea                	slli	gp,gp,0x1a
    1940:	0000                	unimp
    1942:	028c                	addi	a1,sp,320
    1944:	0000                	unimp
    1946:	b8910003          	lb	zero,-1143(sp)
    194a:	007f                	0x7f
	...
    1954:	0001                	nop
    1956:	0600                	addi	s0,sp,768
    1958:	0001                	nop
    195a:	0200                	addi	s0,sp,256
    195c:	7200                	flw	fs0,32(a2)
    195e:	0600                	addi	s0,sp,768
    1960:	0001                	nop
    1962:	2e00                	fld	fs0,24(a2)
    1964:	0001                	nop
    1966:	0200                	addi	s0,sp,256
    1968:	8b00                	0x8b00
    196a:	2e00                	fld	fs0,24(a2)
    196c:	0001                	nop
    196e:	c200                	sw	s0,0(a2)
    1970:	0001                	nop
    1972:	0200                	addi	s0,sp,256
    1974:	8500                	0x8500
    1976:	c200                	sw	s0,0(a2)
    1978:	0001                	nop
    197a:	0000                	unimp
    197c:	0002                	c.slli64	zero
    197e:	0200                	addi	s0,sp,256
    1980:	8b00                	0x8b00
    1982:	0c00                	addi	s0,sp,528
    1984:	0002                	c.slli64	zero
    1986:	5800                	lw	s0,48(s0)
    1988:	0002                	c.slli64	zero
    198a:	0200                	addi	s0,sp,256
    198c:	8500                	0x8500
    198e:	5800                	lw	s0,48(s0)
    1990:	0002                	c.slli64	zero
    1992:	8c00                	0x8c00
    1994:	0002                	c.slli64	zero
    1996:	0200                	addi	s0,sp,256
    1998:	8b00                	0x8b00
	...
    19a2:	1c00                	addi	s0,sp,560
    19a4:	0001                	nop
    19a6:	2e00                	fld	fs0,24(a2)
    19a8:	0001                	nop
    19aa:	0200                	addi	s0,sp,256
    19ac:	3000                	fld	fs0,32(s0)
    19ae:	2e9f 0001 3400      	0x340000012e9f
    19b4:	0001                	nop
    19b6:	0100                	addi	s0,sp,128
    19b8:	5c00                	lw	s0,56(s0)
    19ba:	0134                	addi	a3,sp,136
    19bc:	0000                	unimp
    19be:	00000143          	fmadd.s	ft2,ft0,ft0,ft0,rne
    19c2:	0001                	nop
    19c4:	445d                	li	s0,23
    19c6:	0001                	nop
    19c8:	4a00                	lw	s0,16(a2)
    19ca:	0001                	nop
    19cc:	0200                	addi	s0,sp,256
    19ce:	3000                	fld	fs0,32(s0)
    19d0:	4a9f 0001 5500      	0x550000014a9f
    19d6:	0001                	nop
    19d8:	0100                	addi	s0,sp,128
    19da:	5d00                	lw	s0,56(a0)
    19dc:	0172                	slli	sp,sp,0x1c
    19de:	0000                	unimp
    19e0:	0194                	addi	a3,sp,192
    19e2:	0000                	unimp
    19e4:	0001                	nop
    19e6:	945c                	0x945c
    19e8:	0001                	nop
    19ea:	a200                	fsd	fs0,0(a2)
    19ec:	0001                	nop
    19ee:	0100                	addi	s0,sp,128
    19f0:	5d00                	lw	s0,56(a0)
    19f2:	01a2                	slli	gp,gp,0x8
    19f4:	0000                	unimp
    19f6:	01a6                	slli	gp,gp,0x9
    19f8:	0000                	unimp
    19fa:	7f7d0003          	lb	zero,2039(s10)
    19fe:	a69f 0001 b600      	0xb6000001a69f
    1a04:	0001                	nop
    1a06:	0100                	addi	s0,sp,128
    1a08:	5d00                	lw	s0,56(a0)
    1a0a:	01b6                	slli	gp,gp,0xd
    1a0c:	0000                	unimp
    1a0e:	01b8                	addi	a4,sp,200
    1a10:	0000                	unimp
    1a12:	7f7d0003          	lb	zero,2039(s10)
    1a16:	b89f 0001 ba00      	0xba000001b89f
    1a1c:	0001                	nop
    1a1e:	0100                	addi	s0,sp,128
    1a20:	5d00                	lw	s0,56(a0)
    1a22:	01c2                	slli	gp,gp,0x10
    1a24:	0000                	unimp
    1a26:	01d0                	addi	a2,sp,196
    1a28:	0000                	unimp
    1a2a:	0001                	nop
    1a2c:	5859                	li	a6,-10
    1a2e:	0002                	c.slli64	zero
    1a30:	6600                	flw	fs0,8(a2)
    1a32:	0002                	c.slli64	zero
    1a34:	0100                	addi	s0,sp,128
    1a36:	5900                	lw	s0,48(a0)
    1a38:	0266                	slli	tp,tp,0x19
    1a3a:	0000                	unimp
    1a3c:	0272                	slli	tp,tp,0x1c
    1a3e:	0000                	unimp
    1a40:	0001                	nop
    1a42:	725c                	flw	fa5,36(a2)
    1a44:	0002                	c.slli64	zero
    1a46:	7e00                	flw	fs0,56(a2)
    1a48:	0002                	c.slli64	zero
    1a4a:	0300                	addi	s0,sp,384
    1a4c:	7c00                	flw	fs0,56(s0)
    1a4e:	9f7f                	0x9f7f
    1a50:	027e                	slli	tp,tp,0x1f
    1a52:	0000                	unimp
    1a54:	0288                	addi	a0,sp,320
    1a56:	0000                	unimp
    1a58:	0001                	nop
    1a5a:	005c                	addi	a5,sp,4
    1a5c:	0000                	unimp
    1a5e:	0000                	unimp
    1a60:	0000                	unimp
    1a62:	6a00                	flw	fs0,16(a2)
    1a64:	0001                	nop
    1a66:	7200                	flw	fs0,32(a2)
    1a68:	0001                	nop
    1a6a:	0100                	addi	s0,sp,128
    1a6c:	6a00                	flw	fs0,16(a2)
    1a6e:	0172                	slli	sp,sp,0x1c
    1a70:	0000                	unimp
    1a72:	018e                	slli	gp,gp,0x3
    1a74:	0000                	unimp
    1a76:	0001                	nop
    1a78:	bc5d                	j	152e <product2+0x9a>
    1a7a:	0001                	nop
    1a7c:	d000                	sw	s0,32(s0)
    1a7e:	0001                	nop
    1a80:	0100                	addi	s0,sp,128
    1a82:	6a00                	flw	fs0,16(a2)
    1a84:	01d0                	addi	a2,sp,196
    1a86:	0000                	unimp
    1a88:	01e1                	addi	gp,gp,24
    1a8a:	0000                	unimp
    1a8c:	0001                	nop
    1a8e:	0c5e                	slli	s8,s8,0x17
    1a90:	0002                	c.slli64	zero
    1a92:	6600                	flw	fs0,8(a2)
    1a94:	0002                	c.slli64	zero
    1a96:	0100                	addi	s0,sp,128
    1a98:	6a00                	flw	fs0,16(a2)
    1a9a:	0266                	slli	tp,tp,0x19
    1a9c:	0000                	unimp
    1a9e:	028c                	addi	a1,sp,320
    1aa0:	0000                	unimp
    1aa2:	0001                	nop
    1aa4:	005e                	c.slli	zero,0x17
    1aa6:	0000                	unimp
    1aa8:	0000                	unimp
    1aaa:	0000                	unimp
    1aac:	0c00                	addi	s0,sp,528
    1aae:	0002                	c.slli64	zero
    1ab0:	1e00                	addi	s0,sp,816
    1ab2:	0002                	c.slli64	zero
    1ab4:	0100                	addi	s0,sp,128
    1ab6:	5d00                	lw	s0,56(a0)
    1ab8:	021e                	slli	tp,tp,0x7
    1aba:	0000                	unimp
    1abc:	0224                	addi	s1,sp,264
    1abe:	0000                	unimp
    1ac0:	017d0003          	lb	zero,23(s10)
    1ac4:	249f 0002 3000      	0x30000002249f
    1aca:	0002                	c.slli64	zero
    1acc:	0100                	addi	s0,sp,128
    1ace:	5d00                	lw	s0,56(a0)
    1ad0:	0234                	addi	a3,sp,264
    1ad2:	0000                	unimp
    1ad4:	0246                	slli	tp,tp,0x11
    1ad6:	0000                	unimp
    1ad8:	0001                	nop
    1ada:	465d                	li	a2,23
    1adc:	0002                	c.slli64	zero
    1ade:	4c00                	lw	s0,24(s0)
    1ae0:	0002                	c.slli64	zero
    1ae2:	0300                	addi	s0,sp,384
    1ae4:	7d00                	flw	fs0,56(a0)
    1ae6:	9f01                	0x9f01
    1ae8:	024c                	addi	a1,sp,260
    1aea:	0000                	unimp
    1aec:	0258                	addi	a4,sp,260
    1aee:	0000                	unimp
    1af0:	0001                	nop
    1af2:	005d                	c.nop	23
    1af4:	0000                	unimp
    1af6:	0000                	unimp
    1af8:	0000                	unimp
    1afa:	e200                	fsw	fs0,0(a2)
    1afc:	0001                	nop
    1afe:	0c00                	addi	s0,sp,528
    1b00:	0002                	c.slli64	zero
    1b02:	0600                	addi	s0,sp,768
    1b04:	0300                	addi	s0,sp,384
    1b06:	123c                	addi	a5,sp,296
    1b08:	0000                	unimp
    1b0a:	009f 0000 0000      	0x9f
    1b10:	0000                	unimp
    1b12:	1a00                	addi	s0,sp,304
    1b14:	0001                	nop
    1b16:	fc00                	fsw	fs0,56(s0)
    1b18:	0001                	nop
    1b1a:	0200                	addi	s0,sp,256
    1b1c:	8900                	0x8900
    1b1e:	fc00                	fsw	fs0,56(s0)
    1b20:	0001                	nop
    1b22:	0000                	unimp
    1b24:	0002                	c.slli64	zero
    1b26:	0d00                	addi	s0,sp,656
    1b28:	8b00                	0x8b00
    1b2a:	f300                	fsw	fs0,32(a4)
    1b2c:	5b01                	li	s6,-32
    1b2e:	2432                	fld	fs0,264(sp)
    1b30:	f0090f23          	sb	zero,-226(s2)
    1b34:	1c1a                	slli	s8,s8,0x26
    1b36:	020c                	addi	a1,sp,256
    1b38:	0000                	unimp
    1b3a:	028c                	addi	a1,sp,320
    1b3c:	0000                	unimp
    1b3e:	0002                	c.slli64	zero
    1b40:	0089                	addi	ra,ra,2
	...
    1b4a:	011c                	addi	a5,sp,128
    1b4c:	0000                	unimp
    1b4e:	01e6                	slli	gp,gp,0x19
    1b50:	0000                	unimp
    1b52:	0002                	c.slli64	zero
    1b54:	0072                	c.slli	zero,0x1c
    1b56:	01e6                	slli	gp,gp,0x19
    1b58:	0000                	unimp
    1b5a:	01ee                	slli	gp,gp,0x1b
    1b5c:	0000                	unimp
    1b5e:	000c                	0xc
    1b60:	0089                	addi	ra,ra,2
    1b62:	0082                	c.slli64	ra
    1b64:	2432                	fld	fs0,264(sp)
    1b66:	f0090f23          	sb	zero,-226(s2)
    1b6a:	1c1a                	slli	s8,s8,0x26
    1b6c:	01ee                	slli	gp,gp,0x1b
    1b6e:	0000                	unimp
    1b70:	01fc                	addi	a5,sp,204
    1b72:	0000                	unimp
    1b74:	000d                	c.nop	3
    1b76:	0089                	addi	ra,ra,2
    1b78:	325d01f3          	0x325d01f3
    1b7c:	2324                	fld	fs1,64(a4)
    1b7e:	1af0090f          	0x1af0090f
    1b82:	fc1c                	fsw	fa5,56(s0)
    1b84:	0001                	nop
    1b86:	0000                	unimp
    1b88:	0002                	c.slli64	zero
    1b8a:	1800                	addi	s0,sp,48
    1b8c:	8b00                	0x8b00
    1b8e:	f300                	fsw	fs0,32(a4)
    1b90:	5b01                	li	s6,-32
    1b92:	2432                	fld	fs0,264(sp)
    1b94:	f0090f23          	sb	zero,-226(s2)
    1b98:	1c1a                	slli	s8,s8,0x26
    1b9a:	325d01f3          	0x325d01f3
    1b9e:	2324                	fld	fs1,64(a4)
    1ba0:	1af0090f          	0x1af0090f
    1ba4:	0c1c                	addi	a5,sp,528
    1ba6:	0002                	c.slli64	zero
    1ba8:	8c00                	0x8c00
    1baa:	0002                	c.slli64	zero
    1bac:	0200                	addi	s0,sp,256
    1bae:	7200                	flw	fs0,32(a2)
	...
    1bb8:	f800                	fsw	fs0,48(s0)
    1bba:	0000                	unimp
    1bbc:	6a00                	flw	fs0,16(a2)
    1bbe:	0001                	nop
    1bc0:	0100                	addi	s0,sp,128
    1bc2:	6a00                	flw	fs0,16(a2)
    1bc4:	016a                	slli	sp,sp,0x1a
    1bc6:	0000                	unimp
    1bc8:	0172                	slli	sp,sp,0x1c
    1bca:	0000                	unimp
    1bcc:	7f820003          	lb	zero,2040(tp) # 7f8 <ext_euclid+0x122>
    1bd0:	729f 0001 bc00      	0xbc000001729f
    1bd6:	0001                	nop
    1bd8:	0100                	addi	s0,sp,128
    1bda:	6a00                	flw	fs0,16(a2)
    1bdc:	01bc                	addi	a5,sp,200
    1bde:	0000                	unimp
    1be0:	01ee                	slli	gp,gp,0x1b
    1be2:	0000                	unimp
    1be4:	7f820003          	lb	zero,2040(tp) # 7f8 <ext_euclid+0x122>
    1be8:	ee9f 0001 0c00      	0xc000001ee9f
    1bee:	0002                	c.slli64	zero
    1bf0:	0600                	addi	s0,sp,768
    1bf2:	f300                	fsw	fs0,32(a4)
    1bf4:	5d01                	li	s10,-32
    1bf6:	1c31                	addi	s8,s8,-20
    1bf8:	0c9f 0002 8c00      	0x8c0000020c9f
    1bfe:	0002                	c.slli64	zero
    1c00:	0300                	addi	s0,sp,384
    1c02:	8200                	0x8200
    1c04:	9f7f                	0x9f7f
	...
    1c0e:	00c8                	addi	a0,sp,68
    1c10:	0000                	unimp
    1c12:	01f2                	slli	gp,gp,0x1c
    1c14:	0000                	unimp
    1c16:	0001                	nop
    1c18:	f264                	fsw	fs1,100(a2)
    1c1a:	0001                	nop
    1c1c:	f600                	fsw	fs0,40(a2)
    1c1e:	0001                	nop
    1c20:	0700                	addi	s0,sp,896
    1c22:	8600                	0x8600
    1c24:	f300                	fsw	fs0,32(a4)
    1c26:	5d01                	li	s10,-32
    1c28:	9f22                	add	t5,t5,s0
    1c2a:	01f6                	slli	gp,gp,0x1d
    1c2c:	0000                	unimp
    1c2e:	020c                	addi	a1,sp,256
    1c30:	0000                	unimp
    1c32:	000a                	c.slli	zero,0x2
    1c34:	f35b01f3          	0xf35b01f3
    1c38:	5d01                	li	s10,-32
    1c3a:	3122                	fld	ft2,40(sp)
    1c3c:	9f1c                	0x9f1c
    1c3e:	020c                	addi	a1,sp,256
    1c40:	0000                	unimp
    1c42:	028c                	addi	a1,sp,320
    1c44:	0000                	unimp
    1c46:	0001                	nop
    1c48:	0064                	addi	s1,sp,12
    1c4a:	0000                	unimp
    1c4c:	0000                	unimp
    1c4e:	0000                	unimp
    1c50:	1a00                	addi	s0,sp,304
    1c52:	0001                	nop
    1c54:	f600                	fsw	fs0,40(a2)
    1c56:	0001                	nop
    1c58:	0100                	addi	s0,sp,128
    1c5a:	6600                	flw	fs0,8(a2)
    1c5c:	01f6                	slli	gp,gp,0x1d
    1c5e:	0000                	unimp
    1c60:	020c                	addi	a1,sp,256
    1c62:	0000                	unimp
    1c64:	0006                	c.slli	zero,0x1
    1c66:	315b01f3          	0x315b01f3
    1c6a:	9f1c                	0x9f1c
    1c6c:	020c                	addi	a1,sp,256
    1c6e:	0000                	unimp
    1c70:	028c                	addi	a1,sp,320
    1c72:	0000                	unimp
    1c74:	0001                	nop
    1c76:	0066                	c.slli	zero,0x19
    1c78:	0000                	unimp
    1c7a:	0000                	unimp
    1c7c:	0000                	unimp
    1c7e:	1a00                	addi	s0,sp,304
    1c80:	0001                	nop
    1c82:	6a00                	flw	fs0,16(a2)
    1c84:	0001                	nop
    1c86:	0100                	addi	s0,sp,128
    1c88:	6a00                	flw	fs0,16(a2)
    1c8a:	016a                	slli	sp,sp,0x1a
    1c8c:	0000                	unimp
    1c8e:	0172                	slli	sp,sp,0x1c
    1c90:	0000                	unimp
    1c92:	7f820003          	lb	zero,2040(tp) # 7f8 <ext_euclid+0x122>
    1c96:	729f 0001 bc00      	0xbc000001729f
    1c9c:	0001                	nop
    1c9e:	0100                	addi	s0,sp,128
    1ca0:	6a00                	flw	fs0,16(a2)
    1ca2:	01bc                	addi	a5,sp,200
    1ca4:	0000                	unimp
    1ca6:	01ee                	slli	gp,gp,0x1b
    1ca8:	0000                	unimp
    1caa:	7f820003          	lb	zero,2040(tp) # 7f8 <ext_euclid+0x122>
    1cae:	ee9f 0001 0c00      	0xc000001ee9f
    1cb4:	0002                	c.slli64	zero
    1cb6:	0600                	addi	s0,sp,768
    1cb8:	f300                	fsw	fs0,32(a4)
    1cba:	5d01                	li	s10,-32
    1cbc:	1c31                	addi	s8,s8,-20
    1cbe:	0c9f 0002 8c00      	0x8c0000020c9f
    1cc4:	0002                	c.slli64	zero
    1cc6:	0300                	addi	s0,sp,384
    1cc8:	8200                	0x8200
    1cca:	9f7f                	0x9f7f
	...
    1cd4:	0092                	slli	ra,ra,0x4
    1cd6:	0000                	unimp
    1cd8:	0098                	addi	a4,sp,64
    1cda:	0000                	unimp
    1cdc:	0001                	nop
    1cde:	985c                	0x985c
    1ce0:	0000                	unimp
    1ce2:	b000                	fsd	fs0,32(s0)
    1ce4:	0000                	unimp
    1ce6:	0400                	addi	s0,sp,512
    1ce8:	f300                	fsw	fs0,32(a4)
    1cea:	5c01                	li	s8,-32
    1cec:	009f 0000 0000      	0x9f
    1cf2:	0000                	unimp
    1cf4:	9200                	0x9200
    1cf6:	0000                	unimp
    1cf8:	9c00                	0x9c00
    1cfa:	0000                	unimp
    1cfc:	0200                	addi	s0,sp,256
    1cfe:	3000                	fld	fs0,32(s0)
    1d00:	9c9f 0000 b000      	0xb00000009c9f
    1d06:	0000                	unimp
    1d08:	0100                	addi	s0,sp,128
    1d0a:	5f00                	lw	s0,56(a4)
	...
    1d14:	00a2                	slli	ra,ra,0x8
    1d16:	0000                	unimp
    1d18:	00ac                	addi	a1,sp,72
    1d1a:	0000                	unimp
    1d1c:	0001                	nop
    1d1e:	0000005b          	0x5b
    1d22:	0000                	unimp
    1d24:	0000                	unimp
    1d26:	a200                	fsd	fs0,0(a2)
    1d28:	0000                	unimp
    1d2a:	ac00                	fsd	fs0,24(s0)
    1d2c:	0000                	unimp
    1d2e:	0800                	addi	s0,sp,16
    1d30:	7f00                	flw	fs0,56(a4)
    1d32:	3c00                	fld	fs0,56(s0)
    1d34:	7a1e                	flw	fs4,228(sp)
    1d36:	2200                	fld	fs0,0(a2)
    1d38:	009f 0000 0000      	0x9f
    1d3e:	0000                	unimp
    1d40:	8c00                	0x8c00
    1d42:	0000                	unimp
    1d44:	9000                	0x9000
    1d46:	0000                	unimp
    1d48:	0100                	addi	s0,sp,128
    1d4a:	5a00                	lw	s0,48(a2)
	...

Disassembly of section .debug_aranges:

00000000 <.debug_aranges>:
  .endr
   0:	0024                	addi	s1,sp,8
   2:	0000                	unimp
   4:	0002                	c.slli64	zero
   6:	0000                	unimp
   8:	0000                	unimp
   a:	0004                	0x4
   c:	0000                	unimp
   e:	0000                	unimp
  10:	008c                	addi	a1,sp,64
  12:	0000                	unimp
  14:	0ce6                	slli	s9,s9,0x19
  16:	0000                	unimp
  18:	0f6e                	slli	t5,t5,0x1b
  1a:	0000                	unimp
  1c:	0138                	addi	a4,sp,136
	...
  26:	0000                	unimp
  28:	0024                	addi	s1,sp,8
  2a:	0000                	unimp
  2c:	0002                	c.slli64	zero
  2e:	1a98                	addi	a4,sp,368
  30:	0000                	unimp
  32:	0004                	0x4
  34:	0000                	unimp
  36:	0000                	unimp
  38:	0d72                	slli	s10,s10,0x1c
  3a:	0000                	unimp
  3c:	0076                	c.slli	zero,0x1d
  3e:	0000                	unimp
  40:	0000                	unimp
  42:	0000                	unimp
  44:	008c                	addi	a1,sp,64
	...

Disassembly of section .debug_ranges:

00000000 <.debug_ranges>:
   0:	0098                	addi	a4,sp,64
   2:	0000                	unimp
   4:	009a                	slli	ra,ra,0x6
   6:	0000                	unimp
   8:	00a2                	slli	ra,ra,0x8
   a:	0000                	unimp
   c:	00ac                	addi	a1,sp,72
	...
  16:	0000                	unimp
  18:	008c                	addi	a1,sp,64
  1a:	0000                	unimp
  1c:	0d72                	slli	s10,s10,0x1c
  1e:	0000                	unimp
  20:	0f6e                	slli	t5,t5,0x1b
  22:	0000                	unimp
  24:	10a6                	slli	ra,ra,0x29
	...
  2e:	0000                	unimp
  30:	ffff                	0xffff
  32:	ffff                	0xffff
  34:	0000                	unimp
  36:	0000                	unimp
  38:	0d72                	slli	s10,s10,0x1c
  3a:	0000                	unimp
  3c:	0de8                	addi	a0,sp,732
  3e:	0000                	unimp
  40:	0000                	unimp
  42:	0000                	unimp
  44:	008c                	addi	a1,sp,64
	...

Disassembly of section .debug_line:

00000000 <.debug_line>:
       0:	2636                	fld	fa2,328(sp)
       2:	0000                	unimp
       4:	00f30003          	lb	zero,15(t1)
       8:	0000                	unimp
       a:	0101                	addi	sp,sp,0
       c:	000d0efb          	0xd0efb
      10:	0101                	addi	sp,sp,0
      12:	0101                	addi	sp,sp,0
      14:	0000                	unimp
      16:	0100                	addi	s0,sp,128
      18:	0000                	unimp
      1a:	2f01                	jal	72a <ext_euclid+0x54>
      1c:	2f74706f          	j	47b12 <_stack_start+0x37b12>
      20:	6972                	flw	fs2,28(sp)
      22:	2f766373          	csrrsi	t1,0x2f7,12
      26:	696c                	flw	fa1,84(a0)
      28:	2f62                	fld	ft10,24(sp)
      2a:	2f636367          	0x2f636367
      2e:	6972                	flw	fs2,28(sp)
      30:	33766373          	csrrsi	t1,mhpmevent23,12
      34:	2d32                	fld	fs10,264(sp)
      36:	6e75                	lui	t3,0x1d
      38:	776f6e6b          	0x776f6e6b
      3c:	2d6e                	fld	fs10,216(sp)
      3e:	6c65                	lui	s8,0x19
      40:	2f66                	fld	ft10,88(sp)
      42:	2e39                	jal	360 <polymult2+0xd4>
      44:	2e32                	fld	ft8,264(sp)
      46:	2f30                	fld	fa2,88(a4)
      48:	6e69                	lui	t3,0x1a
      4a:	64756c63          	bltu	a0,t2,6a2 <polydiv+0x2a6>
      4e:	0065                	c.nop	25
      50:	74706f2f          	0x74706f2f
      54:	7369722f          	0x7369722f
      58:	722f7663          	bgeu	t5,sp,784 <ext_euclid+0xae>
      5c:	7369                	lui	t1,0xffffa
      5e:	32337663          	bgeu	t1,gp,38a <polymult2+0xfe>
      62:	752d                	lui	a0,0xfffeb
      64:	6b6e                	flw	fs6,216(sp)
      66:	6f6e                	flw	ft10,216(sp)
      68:	652d6e77          	0x652d6e77
      6c:	666c                	flw	fa1,76(a2)
      6e:	636e692f          	0x636e692f
      72:	756c                	flw	fa1,108(a0)
      74:	6564                	flw	fs1,76(a0)
      76:	7379732f          	0x7379732f
      7a:	2f00                	fld	fs0,24(a4)
  jal x0, default_exc_handler
      7c:	2f74706f          	j	47b72 <_stack_start+0x37b72>
  jal x0, reset_handler
      80:	6972                	flw	fs2,28(sp)
      82:	2f766373          	csrrsi	t1,0x2f7,12
  jal x0, default_exc_handler
      86:	6972                	flw	fs2,28(sp)
  jal x0, default_exc_handler
      88:	33766373          	csrrsi	t1,mhpmevent23,12
    asm volatile(
      8c:	2d32                	fld	fs10,264(sp)
      8e:	6e75                	lui	t3,0x1d
}
      90:	776f6e6b          	0x776f6e6b
    for(i=0;i<(length/3);i++) {
      94:	2d6e                	fld	fs10,216(sp)
      96:	6c65                	lui	s8,0x19
    asm volatile(
      98:	2f66                	fld	ft10,88(sp)
    for(i=0;i<(length/3);i++) {
      9a:	6e69                	lui	t3,0x1a
      9c:	64756c63          	bltu	a0,t2,6f4 <ext_euclid+0x1e>
}
      a0:	0065                	c.nop	25
    asm volatile(
      a2:	4e00                	lw	s0,24(a2)
      a4:	5254                	lw	a3,36(a2)
      a6:	5f55                	li	t5,-11
      a8:	3834                	fld	fa3,112(s0)
      aa:	625f 7469 2e4d      	0x2e4d7469625f
int *polymult(int *a, int size_a, int *b, int size_b, int mod, int star_mult){
      b0:	00000063          	beqz	zero,b0 <polymult>
      b4:	7300                	flw	fs0,32(a4)
      b6:	6474                	flw	fa3,76(s0)
      b8:	6564                	flw	fs1,76(a0)
      ba:	2e66                	fld	ft8,88(sp)
    int line[size_b][size_a + size_b];
      bc:	0068                	addi	a0,sp,12
      be:	0001                	nop
int *polymult(int *a, int size_a, int *b, int size_b, int mod, int star_mult){
      c0:	5f00                	lw	s0,56(a4)
      c2:	7974                	flw	fa3,116(a0)
    int line[size_b][size_a + size_b];
      c4:	6570                	flw	fa2,76(a0)
      c6:	00682e73          	csrrs	t3,0x6,a6
      ca:	0002                	c.slli64	zero
      cc:	7200                	flw	fs0,32(a2)
      ce:	6565                	lui	a0,0x19
int *polymult(int *a, int size_a, int *b, int size_b, int mod, int star_mult){
      d0:	746e                	flw	fs0,248(sp)
      d2:	682e                	flw	fa6,200(sp)
      d4:	0200                	addi	s0,sp,256
      d6:	0000                	unimp
      d8:	6f6c                	flw	fa1,92(a4)
      da:	682e6b63          	bltu	t3,sp,770 <ext_euclid+0x9a>
      de:	0200                	addi	s0,sp,256
      e0:	0000                	unimp
    int line[size_b][size_a + size_b];
      e2:	6c647473          	csrrci	s0,0x6c6,8
      e6:	6269                	lui	tp,0x1a
      e8:	682e                	flw	fa6,200(sp)
      ea:	0300                	addi	s0,sp,384
    int pola[size_a];
      ec:	0000                	unimp
      ee:	623c                	flw	fa5,64(a2)
      f0:	6975                	lui	s2,0x1d
int *polymult(int *a, int size_a, int *b, int size_b, int mod, int star_mult){
      f2:	746c                	flw	fa1,108(s0)
    int line[size_b][size_a + size_b];
      f4:	692d                	lui	s2,0xb
      f6:	3e6e                	fld	ft8,248(sp)
    int pola[size_a];
      f8:	0000                	unimp
    int polb[size_b];
      fa:	0000                	unimp
      fc:	0500                	addi	s0,sp,640
    int line[size_b][size_a + size_b];
      fe:	0034                	addi	a3,sp,8
    int polb[size_b];
     100:	0205                	addi	tp,tp,1
    int pola[size_a];
     102:	008c                	addi	a1,sp,64
     104:	0000                	unimp
int *polymult(int *a, int size_a, int *b, int size_b, int mod, int star_mult){
     106:	05011003          	lh	zero,80(sp)
    int pola[size_a];
     10a:	0305                	addi	t1,t1,1
            line[i][j] = 0;
     10c:	0902                	c.slli64	s2
     10e:	0000                	unimp
    int polb[size_b];
     110:	0301                	addi	t1,t1,0
     112:	0909                	addi	s2,s2,2
int *polymult(int *a, int size_a, int *b, int size_b, int mod, int star_mult){
     114:	0004                	0x4
    int pola[size_a];
     116:	0501                	addi	a0,a0,0
     118:	0601                	addi	a2,a2,0
    int polb[size_b];
     11a:	00090303          	lb	t1,0(s2) # b000 <_stack_len+0x7000>
            line[i][j] = 0;
     11e:	0100                	addi	s0,sp,128
     120:	2c05                	jal	350 <polymult2+0xc4>
    for (i = 0; i < size_b; ++i){
     122:	0306                	slli	t1,t1,0x1
     124:	0901                	addi	s2,s2,0
            product[j] = 0;
     126:	0002                	c.slli64	zero
     128:	0501                	addi	a0,a0,0
     12a:	0301                	addi	t1,t1,0
     12c:	0905                	addi	s2,s2,1
    for (i = 0; i < size_b; ++i){
     12e:	0000                	unimp
     130:	0501                	addi	a0,a0,0
    for (i = 0; i < size_a; ++i){
     132:	0305                	addi	t1,t1,1
     134:	0902                	c.slli64	s2
     136:	0000                	unimp
	array_mod(pola,mod,size_a);
     138:	0501                	addi	a0,a0,0
     13a:	0616                	slli	a2,a2,0x5
     13c:	00090003          	lb	zero,0(s2)
     140:	0100                	addi	s0,sp,128
     142:	0505                	addi	a0,a0,1
    for (i = 0; i < size_b; ++i){
     144:	06096c03          	0x6096c03
     148:	0100                	addi	s0,sp,128
     14a:	0a05                	addi	s4,s4,1
     14c:	02091403          	lh	s0,32(s2)
	array_mod(polb,mod,size_b);
     150:	0100                	addi	s0,sp,128
     152:	0d05                	addi	s10,s10,1
     154:	0200                	addi	s0,sp,256
    if(star_mult == 1){
     156:	0104                	addi	s1,sp,128
     158:	0306                	slli	t1,t1,0x1
     15a:	0900                	addi	s0,sp,144
     15c:	0002                	c.slli64	zero
     15e:	0501                	addi	a0,a0,0
     160:	0005                	c.nop	1
     162:	0402                	c.slli64	s0
     164:	0601                	addi	a2,a2,0
     166:	00090003          	lb	zero,0(s2)
        for (j = size_b -1; j >= 0; j = j-1){
     16a:	0100                	addi	s0,sp,128
     16c:	0105                	addi	sp,sp,1
            for (k = size_a-1; k >= 0; k = k-1 ){
     16e:	04090403          	lb	s0,64(s2)
            product[j] = 0;
     172:	0100                	addi	s0,sp,128
     174:	0905                	addi	s2,s2,1
     176:	0200                	addi	s0,sp,256
            line[i][j] = 0;
     178:	0304                	addi	s1,sp,384
     17a:	0306                	slli	t1,t1,0x1
            product[j] = 0;
     17c:	097d                	addi	s2,s2,31
     17e:	0002                	c.slli64	zero
        for(j = 0; j < size_a + size_b -1; ++j){
     180:	0501                	addi	a0,a0,0
     182:	0005                	c.nop	1
     184:	0402                	c.slli64	s0
     186:	096b0303          	lb	t1,150(s6)
    for (i = 0; i < size_b; ++i){
     18a:	0000                	unimp
     18c:	0001                	nop
     18e:	0402                	c.slli64	s0
        for(j = 0; j < size_a + size_b -1; ++j){
     190:	09090303          	lb	t1,144(s2)
        pola[i] = a[i];
     194:	000a                	c.slli	zero,0x2
     196:	0501                	addi	a0,a0,0
     198:	001a                	c.slli	zero,0x6
     19a:	0402                	c.slli64	s0
     19c:	090b0303          	lb	t1,144(s6)
    for (i = 0; i < size_a; ++i){
     1a0:	0000                	unimp
        pola[i] = a[i];
     1a2:	0501                	addi	a0,a0,0
     1a4:	0402001b          	0x402001b
        polb[i] = b[i];
     1a8:	00030603          	lb	a2,0(t1) # ffffa000 <_stack_start+0xfffea000>
     1ac:	0009                	c.nop	2
     1ae:	0100                	addi	s0,sp,128
     1b0:	4e05                	li	t3,1
     1b2:	0306                	slli	t1,t1,0x1
    for (i = 0; i < size_b; ++i){
     1b4:	0909                	addi	s2,s2,2
        polb[i] = b[i];
     1b6:	0004                	0x4
    for (i = 0; i < size_b; ++i){
     1b8:	0501                	addi	a0,a0,0
    if(star_mult == 1){
     1ba:	0305                	addi	t1,t1,1
        for (j = size_b -1; j >= 0; j = j-1){
     1bc:	0902                	c.slli64	s2
     1be:	0000                	unimp
            for (k = size_a-1; k >= 0; k = k-1 ){
     1c0:	0501                	addi	a0,a0,0
    for (i = 0; i < size_b; ++i){
     1c2:	064e                	slli	a2,a2,0x13
     1c4:	00097e03          	0x97e03
     1c8:	0100                	addi	s0,sp,128
     1ca:	1d05                	addi	s10,s10,-31
     1cc:	0c090203          	lb	tp,192(s2)
    for(j = 0; j < size_a + size_b -1; ++j){
     1d0:	0100                	addi	s0,sp,128
     1d2:	4e05                	li	t3,1
    array_mod(product,mod,size_a+size_b-1);
     1d4:	04097e03          	0x4097e03
     1d8:	0100                	addi	s0,sp,128
     1da:	0905                	addi	s2,s2,1
     1dc:	04090203          	lb	tp,64(s2)
     1e0:	0100                	addi	s0,sp,128
}
     1e2:	4e05                	li	t3,1
     1e4:	0c097e03          	0xc097e03
     1e8:	0100                	addi	s0,sp,128
     1ea:	0905                	addi	s2,s2,1
     1ec:	12090203          	lb	tp,288(s2)
     1f0:	0100                	addi	s0,sp,128
     1f2:	4e05                	li	t3,1
     1f4:	02097e03          	0x2097e03
     1f8:	0100                	addi	s0,sp,128
     1fa:	0905                	addi	s2,s2,1
     1fc:	02090203          	lb	tp,32(s2)
     200:	0100                	addi	s0,sp,128
     202:	4e05                	li	t3,1
     204:	02097e03          	0x2097e03
     208:	0100                	addi	s0,sp,128
     20a:	0905                	addi	s2,s2,1
                line[size_b-1-j][k] = pola[k]*polb[j];
     20c:	00090203          	lb	tp,0(s2)
     210:	0100                	addi	s0,sp,128
     212:	04090303          	lb	t1,64(s2)
     216:	0100                	addi	s0,sp,128
     218:	4e05                	li	t3,1
     21a:	06097b03          	0x6097b03
     21e:	0100                	addi	s0,sp,128
     220:	0905                	addi	s2,s2,1
     222:	02090203          	lb	tp,32(s2)
            for (k = size_a-1; k >= 0; k = k-1 ){
     226:	0100                	addi	s0,sp,128
        for (j = size_b -1; j >= 0; j = j-1){
     228:	04090303          	lb	t1,64(s2)
     22c:	0100                	addi	s0,sp,128
     22e:	02090103          	lb	sp,32(s2)
            for (k = size_a-1; k >= 0; k = k-1 ){
     232:	0100                	addi	s0,sp,128
                line[size_b-1-j][k + j] = pola[k]*polb[j];
     234:	04097c03          	0x4097c03
     238:	0100                	addi	s0,sp,128
     23a:	0505                	addi	a0,a0,1
     23c:	0306                	slli	t1,t1,0x1
     23e:	0901                	addi	s2,s2,0
     240:	0002                	c.slli64	zero
     242:	0301                	addi	t1,t1,0
            for (k = size_a-1; k >= 0; k = k-1 ){
     244:	0901                	addi	s2,s2,0
                line[size_b-1-j][k + j] = pola[k]*polb[j];
     246:	0000                	unimp
     248:	0301                	addi	t1,t1,0
     24a:	0901                	addi	s2,s2,0
            for (k = size_a-1; k >= 0; k = k-1 ){
     24c:	0000                	unimp
     24e:	0501                	addi	a0,a0,0
        for (j = size_b -1; j >= 0; j = j-1){
     250:	0609                	addi	a2,a2,2
     252:	00090103          	lb	sp,0(s2)
     256:	0100                	addi	s0,sp,128
        array_mod(line[i],mod,(size_a+size_b-1));
     258:	02097f03          	0x2097f03
     25c:	0100                	addi	s0,sp,128
     25e:	4e05                	li	t3,1
    for (i = 0; i < size_b; ++i){
     260:	04097b03          	0x4097b03
     264:	0100                	addi	s0,sp,128
            product[j] += line[i][j];
     266:	0905                	addi	s2,s2,1
     268:	04090503          	lb	a0,64(s2)
     26c:	0100                	addi	s0,sp,128
     26e:	1405                	addi	s0,s0,-31
        for(i = 0; i < size_b; ++i){
     270:	02090603          	lb	a2,32(s2)
            product[j] += line[i][j];
     274:	0100                	addi	s0,sp,128
     276:	0905                	addi	s2,s2,1
     278:	04097b03          	0x4097b03
     27c:	0100                	addi	s0,sp,128
        for(i = 0; i < size_b; ++i){
     27e:	4e05                	li	t3,1
     280:	04097a03          	0x4097a03
    for(j = 0; j < size_a + size_b -1; ++j){
     284:	0100                	addi	s0,sp,128
     286:	0905                	addi	s2,s2,1
        for(i = 0; i < size_b; ++i){
     288:	02090503          	lb	a0,32(s2)
    int line[size_b][size_a + size_b];
     28c:	0100                	addi	s0,sp,128
     28e:	0505                	addi	a0,a0,1
     290:	0306                	slli	t1,t1,0x1
     292:	0901                	addi	s2,s2,0
     294:	0004                	0x4
     296:	0501                	addi	a0,a0,0
     298:	0609                	addi	a2,a2,2
     29a:	00090003          	lb	zero,0(s2)
     29e:	0100                	addi	s0,sp,128
int *polymult2(int *a, int size_a, int *b, int size_b, int star_mult){
     2a0:	0505                	addi	a0,a0,1
     2a2:	0306                	slli	t1,t1,0x1
     2a4:	00020903          	lb	s2,0(tp) # 1a000 <_stack_start+0xa000>
     2a8:	0501                	addi	a0,a0,0
     2aa:	0614                	addi	a3,sp,768
     2ac:	00090203          	lb	tp,0(s2)
     2b0:	0100                	addi	s0,sp,128
    int line[size_b][size_a + size_b];
     2b2:	0505                	addi	a0,a0,1
     2b4:	06097e03          	0x6097e03
     2b8:	0100                	addi	s0,sp,128
    int pola[size_a];
     2ba:	0c05                	addi	s8,s8,1
     2bc:	02090003          	lb	zero,32(s2)
     2c0:	0100                	addi	s0,sp,128
    int line[size_b][size_a + size_b];
     2c2:	1805                	addi	a6,a6,-31
    int pola[size_a];
     2c4:	02090303          	lb	t1,32(s2)
    int polb[size_b];
     2c8:	0100                	addi	s0,sp,128
     2ca:	1105                	addi	sp,sp,-31
     2cc:	0200                	addi	s0,sp,256
    int pola[size_a];
     2ce:	0104                	addi	s1,sp,128
    int polb[size_b];
     2d0:	0306                	slli	t1,t1,0x1
     2d2:	097d                	addi	s2,s2,31
    int line[size_b][size_a + size_b];
     2d4:	0008                	0x8
     2d6:	0501                	addi	a0,a0,0
    int pola[size_a];
     2d8:	0005                	c.nop	1
     2da:	0402                	c.slli64	s0
    int polb[size_b];
     2dc:	0601                	addi	a2,a2,0
            line[i][j] = 0;
     2de:	00090003          	lb	zero,0(s2)
     2e2:	0100                	addi	s0,sp,128
    for (i = 0; i < size_b; ++i){
     2e4:	0c05                	addi	s8,s8,1
     2e6:	04090803          	lb	a6,64(s2)
            product2[j] = 0;
     2ea:	0100                	addi	s0,sp,128
     2ec:	1105                	addi	sp,sp,-31
     2ee:	0200                	addi	s0,sp,256
    for (i = 0; i < size_b; ++i){
     2f0:	0104                	addi	s1,sp,128
     2f2:	0306                	slli	t1,t1,0x1
    for(i = 0; i < size_a; ++i){
     2f4:	0900                	addi	s0,sp,144
     2f6:	0002                	c.slli64	zero
     2f8:	0501                	addi	a0,a0,0
    for(i = 0; i < size_b; ++i){
     2fa:	0005                	c.nop	1
     2fc:	0402                	c.slli64	s0
     2fe:	0601                	addi	a2,a2,0
    if(star_mult == 1){
     300:	00090003          	lb	zero,0(s2)
     304:	0100                	addi	s0,sp,128
     306:	0205                	addi	tp,tp,1
     308:	04090403          	lb	s0,64(s2)
     30c:	0100                	addi	s0,sp,128
        for (j = size_b -1; j >= 0; j = j-1){
     30e:	0306                	slli	t1,t1,0x1
     310:	0900                	addi	s0,sp,144
            for (k = size_a-1; k >= 0; k = k-1 ){
     312:	000a                	c.slli	zero,0x2
     314:	0501                	addi	a0,a0,0
            product2[j] = 0;
     316:	0305                	addi	t1,t1,1
     318:	0902                	c.slli64	s2
     31a:	0002                	c.slli64	zero
            line[i][j] = 0;
     31c:	0501                	addi	a0,a0,0
     31e:	060c                	addi	a1,sp,768
            product2[j] = 0;
     320:	04090003          	lb	zero,64(s2)
        for(j = 0; j < size_a + size_b -1; ++j){
     324:	0100                	addi	s0,sp,128
     326:	1105                	addi	sp,sp,-31
     328:	0200                	addi	s0,sp,256
     32a:	0104                	addi	s1,sp,128
    for (i = 0; i < size_b; ++i){
     32c:	0306                	slli	t1,t1,0x1
     32e:	0900                	addi	s0,sp,144
     330:	0002                	c.slli64	zero
     332:	0501                	addi	a0,a0,0
        for(j = 0; j < size_a + size_b -1; ++j){
     334:	0005                	c.nop	1
     336:	0402                	c.slli64	s0
        pola[i] = a[i];
     338:	0601                	addi	a2,a2,0
     33a:	00090003          	lb	zero,0(s2)
     33e:	0100                	addi	s0,sp,128
     340:	0205                	addi	tp,tp,1
     342:	0306                	slli	t1,t1,0x1
    for(i = 0; i < size_a; ++i){
     344:	0904                	addi	s1,sp,144
        pola[i] = a[i];
     346:	0004                	0x4
     348:	0501                	addi	a0,a0,0
    for(i = 0; i < size_a; ++i){
     34a:	0305                	addi	t1,t1,1
        polb[i] = b[i];
     34c:	00080903          	lb	s2,0(a6)
     350:	0501                	addi	a0,a0,0
     352:	00030607          	0x30607
     356:	0009                	c.nop	2
    for(i = 0; i < size_b; ++i){
     358:	0100                	addi	s0,sp,128
        polb[i] = b[i];
     35a:	1d05                	addi	s10,s10,-31
     35c:	0200                	addi	s0,sp,256
    for(i = 0; i < size_b; ++i){
     35e:	0104                	addi	s1,sp,128
                line[size_b-1-j][k] = pola[k]*polb[j];
     360:	0306                	slli	t1,t1,0x1
     362:	0908                	addi	a0,sp,144
     364:	0014                	0x14
     366:	0501                	addi	a0,a0,0
     368:	0009                	c.nop	2
     36a:	0402                	c.slli64	s0
     36c:	0601                	addi	a2,a2,0
     36e:	00090003          	lb	zero,0(s2)
     372:	0100                	addi	s0,sp,128
     374:	1405                	addi	s0,s0,-31
     376:	04090103          	lb	sp,64(s2)
            for (k = size_a-1; k >= 0; k = k-1 ){
     37a:	0100                	addi	s0,sp,128
        for (j = size_b -1; j >= 0; j = j-1){
     37c:	0d05                	addi	s10,s10,1
     37e:	0200                	addi	s0,sp,256
     380:	0304                	addi	s1,sp,384
     382:	0306                	slli	t1,t1,0x1
     384:	0964                	addi	s1,sp,156
     386:	0004                	0x4
     388:	0501                	addi	a0,a0,0
     38a:	0018                	0x18
     38c:	0402                	c.slli64	s0
        for(i = 0; i < size_b; ++i){
     38e:	01030603          	lb	a2,16(t1)
    for(j = 0; j < size_a + size_b -1; ++j){
     392:	0009                	c.nop	2
}
     394:	0100                	addi	s0,sp,128
     396:	0200                	addi	s0,sp,256
     398:	0304                	addi	s1,sp,384
     39a:	06097f03          	0x6097f03
     39e:	0100                	addi	s0,sp,128
     3a0:	0d05                	addi	s10,s10,1
     3a2:	0200                	addi	s0,sp,256
     3a4:	0304                	addi	s1,sp,384
     3a6:	0306                	slli	t1,t1,0x1
     3a8:	0901                	addi	s2,s2,0
     3aa:	0004                	0x4
     3ac:	0501                	addi	a0,a0,0
     3ae:	0018                	0x18
     3b0:	0402                	c.slli64	s0
            for (k = size_a-1; k >= 0; k = k-1 ){
     3b2:	00030603          	lb	a2,0(t1)
                line[size_b-1-j][k + j] = pola[k]*polb[j];
     3b6:	0009                	c.nop	2
     3b8:	0100                	addi	s0,sp,128
     3ba:	2c05                	jal	5ea <polydiv+0x1ee>
     3bc:	0200                	addi	s0,sp,256
     3be:	0304                	addi	s1,sp,384
     3c0:	0306                	slli	t1,t1,0x1
     3c2:	097e                	slli	s2,s2,0x1f
     3c4:	0004                	0x4
            for (k = size_a-1; k >= 0; k = k-1 ){
     3c6:	0501                	addi	a0,a0,0
                line[size_b-1-j][k + j] = pola[k]*polb[j];
     3c8:	0014                	0x14
     3ca:	0402                	c.slli64	s0
     3cc:	0301                	addi	t1,t1,0
            for (k = size_a-1; k >= 0; k = k-1 ){
     3ce:	0900                	addi	s0,sp,144
     3d0:	0004                	0x4
        for (j = size_b -1; j >= 0; j = j-1){
     3d2:	0501                	addi	a0,a0,0
     3d4:	0009                	c.nop	2
     3d6:	0402                	c.slli64	s0
     3d8:	0601                	addi	a2,a2,0
            product2[j] += line[i][j];
     3da:	00090003          	lb	zero,0(s2)
     3de:	0100                	addi	s0,sp,128
        for(i = 0; i < size_b; ++i){
     3e0:	1d05                	addi	s10,s10,-31
            product2[j] += line[i][j];
     3e2:	0200                	addi	s0,sp,256
     3e4:	0204                	addi	s1,sp,256
     3e6:	0306                	slli	t1,t1,0x1
     3e8:	097f                	0x97f
     3ea:	0004                	0x4
     3ec:	0501                	addi	a0,a0,0
        for(i = 0; i < size_b; ++i){
     3ee:	0103060f          	0x103060f
    for(j = 0; j < size_a + size_b -1; ++j){
     3f2:	0809                	addi	a6,a6,2
     3f4:	0100                	addi	s0,sp,128
     3f6:	0905                	addi	s2,s2,1
        for(i = 0; i < size_b; ++i){
     3f8:	0200                	addi	s0,sp,256
     3fa:	0304                	addi	s1,sp,384
    int v[size_N];
     3fc:	0306                	slli	t1,t1,0x1
     3fe:	0908                	addi	a0,sp,144
int *polydiv(int *num, int size_N, int*denum, int size_D, int mod){
     400:	0004                	0x4
    int v[size_N];
     402:	0501                	addi	a0,a0,0
     404:	0011                	c.nop	4
int *polydiv(int *num, int size_N, int*denum, int size_D, int mod){
     406:	0402                	c.slli64	s0
     408:	00030603          	lb	a2,0(t1)
     40c:	0409                	addi	s0,s0,2
     40e:	0100                	addi	s0,sp,128
     410:	1405                	addi	s0,s0,-31
     412:	0200                	addi	s0,sp,256
     414:	0304                	addi	s1,sp,384
     416:	04090003          	lb	zero,64(s2)
     41a:	0100                	addi	s0,sp,128
     41c:	1105                	addi	sp,sp,-31
     41e:	0200                	addi	s0,sp,256
     420:	0304                	addi	s1,sp,384
    int v[size_N];
     422:	02090003          	lb	zero,32(s2)
     426:	0100                	addi	s0,sp,128
    int q[size_N];
     428:	1d05                	addi	s10,s10,-31
     42a:	0200                	addi	s0,sp,256
     42c:	0304                	addi	s1,sp,384
    int num_temp[size_N];
     42e:	02097f03          	0x2097f03
    int denum_temp[size_D];
     432:	0100                	addi	s0,sp,128
     434:	1105                	addi	sp,sp,-31
     436:	0200                	addi	s0,sp,256
     438:	0304                	addi	s1,sp,384
    int num_temp[size_N];
     43a:	02090103          	lb	sp,32(s2)
    int denum_temp[size_D];
     43e:	0100                	addi	s0,sp,128
int *polydiv(int *num, int size_N, int*denum, int size_D, int mod){
     440:	1d05                	addi	s10,s10,-31
     442:	0200                	addi	s0,sp,256
     444:	0304                	addi	s1,sp,384
     446:	0306                	slli	t1,t1,0x1
    int v[size_N];
     448:	097f                	0x97f
     44a:	0004                	0x4
    int denum_temp[size_D];
     44c:	0501                	addi	a0,a0,0
     44e:	0009                	c.nop	2
     450:	0402                	c.slli64	s0
    for (i = 0; i < size_N; ++i){
     452:	09070303          	lb	t1,144(a4) # 1090 <main+0x122>
     456:	0002                	c.slli64	zero
    if(size_N == 106) {
     458:	0501                	addi	a0,a0,0
     45a:	0011                	c.nop	4
     45c:	0402                	c.slli64	s0
     45e:	00030603          	lb	a2,0(t1)
        array_mod(num_temp, mod, size_N - 1);
     462:	0409                	addi	s0,s0,2
     464:	0100                	addi	s0,sp,128
     466:	1405                	addi	s0,s0,-31
     468:	0200                	addi	s0,sp,256
        while(num_temp[size_N - 1] < 0){
     46a:	0304                	addi	s1,sp,384
     46c:	04090003          	lb	zero,64(s2)
     470:	0100                	addi	s0,sp,128
        num_temp[size_N - 1] = num_temp[size_N - 1] % mod;
     472:	1105                	addi	sp,sp,-31
     474:	0200                	addi	s0,sp,256
     476:	0304                	addi	s1,sp,384
     478:	02090003          	lb	zero,32(s2)
    for (i = 0; i < size_D; ++i) {
     47c:	0100                	addi	s0,sp,128
     47e:	1d05                	addi	s10,s10,-31
	array_mod(denum_temp,mod,size_D);
     480:	0200                	addi	s0,sp,256
     482:	0304                	addi	s1,sp,384
     484:	02097f03          	0x2097f03
    for (i = 0; i < size_N; ++i){
     488:	0100                	addi	s0,sp,128
     48a:	1105                	addi	sp,sp,-31
     48c:	0200                	addi	s0,sp,256
    for (i = size_D-1; i >= 0; i = i-1){
     48e:	0304                	addi	s1,sp,384
     490:	02090103          	lb	sp,32(s2)
     494:	0100                	addi	s0,sp,128
     496:	1d05                	addi	s10,s10,-31
     498:	0200                	addi	s0,sp,256
    for (i = 0; i < size_N; ++i){
     49a:	0304                	addi	s1,sp,384
     49c:	0306                	slli	t1,t1,0x1
        if ( (b_N*u)%mod == 1 )
     49e:	097f                	0x97f
    for (u = 0; u < mod; ++u){
     4a0:	0002                	c.slli64	zero
     4a2:	0501                	addi	a0,a0,0
     4a4:	07030607          	0x7030607
        num_temp[i] = num[i];
     4a8:	0209                	addi	tp,tp,2
     4aa:	0100                	addi	s0,sp,128
     4ac:	1d05                	addi	s10,s10,-31
     4ae:	0200                	addi	s0,sp,256
     4b0:	0104                	addi	s1,sp,128
     4b2:	0306                	slli	t1,t1,0x1
    for (i = 0; i < size_N; ++i){
     4b4:	0901                	addi	s2,s2,0
        num_temp[i] = num[i];
     4b6:	0002                	c.slli64	zero
    for (i = 0; i < size_N; ++i){
     4b8:	0501                	addi	a0,a0,0
            num_temp[size_N - 1] = num_temp[size_N - 1]+mod;
     4ba:	0009                	c.nop	2
     4bc:	0402                	c.slli64	s0
     4be:	0601                	addi	a2,a2,0
     4c0:	00090003          	lb	zero,0(s2)
        array_mod(num_temp, mod, size_N);
     4c4:	0100                	addi	s0,sp,128
     4c6:	1405                	addi	s0,s0,-31
     4c8:	04090803          	lb	a6,64(s2)
        denum_temp[i] = denum[i];
     4cc:	0100                	addi	s0,sp,128
     4ce:	1105                	addi	sp,sp,-31
     4d0:	0200                	addi	s0,sp,256
     4d2:	0104                	addi	s1,sp,128
     4d4:	0306                	slli	t1,t1,0x1
     4d6:	00020907          	0x20907
     4da:	0501                	addi	a0,a0,0
    for (i = 0; i < size_D; ++i) {
     4dc:	0005                	c.nop	1
        q[i] = 0;
     4de:	0402                	c.slli64	s0
     4e0:	0601                	addi	a2,a2,0
     4e2:	00090003          	lb	zero,0(s2)
        v[i] = 0;
     4e6:	0100                	addi	s0,sp,128
        q[i] = 0;
     4e8:	0b05                	addi	s6,s6,1
     4ea:	0c090503          	lb	a0,192(s2)
        v[i] = 0;
     4ee:	0100                	addi	s0,sp,128
    for (i = 0; i < size_N; ++i){
     4f0:	1005                	c.nop	-31
     4f2:	0200                	addi	s0,sp,256
        if( denum_temp[i] != 0 )
     4f4:	0104                	addi	s1,sp,128
    for (i = size_D-1; i >= 0; i = i-1){
     4f6:	0306                	slli	t1,t1,0x1
     4f8:	0900                	addi	s0,sp,144
        if ( (b_N*u)%mod == 1 )
     4fa:	0002                	c.slli64	zero
     4fc:	0501                	addi	a0,a0,0
     4fe:	0005                	c.nop	1
     500:	0402                	c.slli64	s0
     502:	0601                	addi	a2,a2,0
    for (u = 0; u < mod; ++u){
     504:	00090003          	lb	zero,0(s2)
        if( num_temp[i] != 0 )
     508:	0100                	addi	s0,sp,128
    for (i = size_N-1; i >= 0; i = i-1){
     50a:	0306                	slli	t1,t1,0x1
     50c:	00040907          	0x40907
     510:	0301                	addi	t1,t1,0
     512:	0902                	c.slli64	s2
     514:	000e                	c.slli	zero,0x3
     516:	0301                	addi	t1,t1,0
         if(size_N == 106) {
     518:	0902                	c.slli64	s2
     51a:	0000                	unimp
     51c:	0501                	addi	a0,a0,0
        v[(d-d2)] = u*r_d;
     51e:	0601                	addi	a2,a2,0
     520:	00090103          	lb	sp,0(s2)
     524:	0100                	addi	s0,sp,128
     526:	1105                	addi	sp,sp,-31
     528:	0200                	addi	s0,sp,256
     52a:	0304                	addi	s1,sp,384
         if(size_N == 106) {
     52c:	0306                	slli	t1,t1,0x1
     52e:	0962                	slli	s2,s2,0x18
            array_mod(v, mod, size_N - 1);
     530:	002a                	c.slli	zero,0xa
     532:	0501                	addi	a0,a0,0
     534:	0025                	c.nop	9
     536:	0402                	c.slli64	s0
     538:	00030603          	lb	a2,0(t1)
            while(v[size_N - 1] < 0){
     53c:	0409                	addi	s0,s0,2
     53e:	0100                	addi	s0,sp,128
     540:	2b05                	jal	a70 <generate_keys+0x150>
            v[size_N - 1] = v[size_N - 1] % mod;
     542:	0200                	addi	s0,sp,256
     544:	0304                	addi	s1,sp,384
     546:	04090003          	lb	zero,64(s2)
        product = polymult(denum_temp,size_D,v,size_D,mod,0);
     54a:	0100                	addi	s0,sp,128
     54c:	2e05                	jal	87c <ext_euclid+0x1a6>
     54e:	0200                	addi	s0,sp,256
     550:	0304                	addi	s1,sp,384
     552:	02090003          	lb	zero,32(s2)
     556:	0100                	addi	s0,sp,128
        if(size_N == 106) {
     558:	2a05                	jal	688 <polydiv+0x28c>
     55a:	0200                	addi	s0,sp,256
     55c:	0304                	addi	s1,sp,384
     55e:	06097f03          	0x6097f03
            array_mod(product, mod, size_N - 1);
     562:	0100                	addi	s0,sp,128
     564:	2e05                	jal	894 <ext_euclid+0x1be>
     566:	0200                	addi	s0,sp,256
            while(product[size_N - 1] < 0){
     568:	0304                	addi	s1,sp,384
     56a:	02090103          	lb	sp,32(s2)
     56e:	0100                	addi	s0,sp,128
     570:	2505                	jal	b90 <generate_keys+0x270>
     572:	0200                	addi	s0,sp,256
            product[size_N - 1] = product[size_N - 1] % mod;
     574:	0304                	addi	s1,sp,384
     576:	04090003          	lb	zero,64(s2)
     57a:	0100                	addi	s0,sp,128
     57c:	2805                	jal	5ac <polydiv+0x1b0>
     57e:	0200                	addi	s0,sp,256
        for (i = 0; i < size_N; ++i){
     580:	0304                	addi	s1,sp,384
     582:	0306                	slli	t1,t1,0x1
 	if(size_N == 106) {
     584:	097f                	0x97f
     586:	0002                	c.slli64	zero
            array_mod(num_temp, mod, size_N - 1);
     588:	0501                	addi	a0,a0,0
     58a:	0020                	addi	s0,sp,8
     58c:	0402                	c.slli64	s0
     58e:	0301                	addi	t1,t1,0
     590:	0900                	addi	s0,sp,144
            while(num_temp[size_N - 1] < 0){
     592:	0000                	unimp
     594:	0501                	addi	a0,a0,0
     596:	000d                	c.nop	3
     598:	0402                	c.slli64	s0
            num_temp[size_N - 1] = num_temp[size_N - 1] % mod;
     59a:	0601                	addi	a2,a2,0
     59c:	00090003          	lb	zero,0(s2)
     5a0:	0100                	addi	s0,sp,128
     5a2:	2505                	jal	bc2 <generate_keys+0x2a2>
     5a4:	0200                	addi	s0,sp,256
        for(i = 0; i < size_N; ++i){
     5a6:	0204                	addi	s1,sp,256
     5a8:	0306                	slli	t1,t1,0x1
 	if(size_N == 106) {
     5aa:	097f                	0x97f
     5ac:	0004                	0x4
            array_mod(q, mod, size_N - 1);
     5ae:	0501                	addi	a0,a0,0
     5b0:	04020027          	0x4020027
     5b4:	0602                	c.slli64	a2
     5b6:	00090003          	lb	zero,0(s2)
            while(q[size_N - 1] < 0){
     5ba:	0100                	addi	s0,sp,128
     5bc:	1405                	addi	s0,s0,-31
     5be:	08090103          	lb	sp,128(s2)
            q[size_N - 1] = q[size_N - 1] % mod;
     5c2:	0100                	addi	s0,sp,128
     5c4:	1105                	addi	sp,sp,-31
     5c6:	0200                	addi	s0,sp,256
    int v[size_N];
     5c8:	0304                	addi	s1,sp,384
        for (i = size_N-1; i >= 0; i = i-1){
     5ca:	0306                	slli	t1,t1,0x1
     5cc:	0908                	addi	a0,sp,144
     5ce:	0004                	0x4
     5d0:	0501                	addi	a0,a0,0
     5d2:	0029                	c.nop	10
     5d4:	0402                	c.slli64	s0
     5d6:	00030603          	lb	a2,0(t1)
                v[size_N - 1] = v[size_N - 1]+mod;
     5da:	0409                	addi	s0,s0,2
     5dc:	0100                	addi	s0,sp,128
     5de:	2f05                	jal	d0e <ntru_deceypt+0x64>
     5e0:	0200                	addi	s0,sp,256
            array_mod(v, mod, size_N);
     5e2:	0304                	addi	s1,sp,384
     5e4:	04090003          	lb	zero,64(s2)
     5e8:	0100                	addi	s0,sp,128
     5ea:	3205                	jal	ffffff0a <_stack_start+0xfffeff0a>
                product[size_N - 1] = product[size_N - 1]+mod;
     5ec:	0200                	addi	s0,sp,256
     5ee:	0304                	addi	s1,sp,384
     5f0:	02090003          	lb	zero,32(s2)
            array_mod(product, mod, size_N);
     5f4:	0100                	addi	s0,sp,128
     5f6:	2a05                	jal	726 <ext_euclid+0x50>
     5f8:	0200                	addi	s0,sp,256
     5fa:	0304                	addi	s1,sp,384
     5fc:	06097f03          	0x6097f03
            num_temp[i] = num_temp[i] - product[i];
     600:	0100                	addi	s0,sp,128
     602:	3205                	jal	ffffff22 <_stack_start+0xfffeff22>
     604:	0200                	addi	s0,sp,256
     606:	0304                	addi	s1,sp,384
     608:	02090103          	lb	sp,32(s2)
        for (i = 0; i < size_N; ++i){
     60c:	0100                	addi	s0,sp,128
            num_temp[i] = num_temp[i] - product[i];
     60e:	2905                	jal	a3e <generate_keys+0x11e>
     610:	0200                	addi	s0,sp,256
     612:	0304                	addi	s1,sp,384
        for (i = 0; i < size_N; ++i){
     614:	04090003          	lb	zero,64(s2)
                num_temp[size_N - 1] = num_temp[size_N - 1]+mod;
     618:	0100                	addi	s0,sp,128
     61a:	2805                	jal	64a <polydiv+0x24e>
     61c:	0200                	addi	s0,sp,256
            array_mod(num_temp, mod, size_N);
     61e:	0304                	addi	s1,sp,384
     620:	0306                	slli	t1,t1,0x1
     622:	097f                	0x97f
     624:	0002                	c.slli64	zero
     626:	0501                	addi	a0,a0,0
            q[i] = q[i] + v[i];
     628:	0020                	addi	s0,sp,8
     62a:	0402                	c.slli64	s0
     62c:	0301                	addi	t1,t1,0
     62e:	0900                	addi	s0,sp,144
     630:	0000                	unimp
        for(i = 0; i < size_N; ++i){
     632:	0501                	addi	a0,a0,0
     634:	000d                	c.nop	3
            q[i] = q[i] + v[i];
     636:	0402                	c.slli64	s0
     638:	0601                	addi	a2,a2,0
     63a:	00090003          	lb	zero,0(s2)
                q[size_N - 1] = q[size_N - 1]+mod;
     63e:	0100                	addi	s0,sp,128
     640:	2505                	jal	c60 <ntru_encyrpt+0x4c>
     642:	0200                	addi	s0,sp,256
     644:	0204                	addi	s1,sp,256
            array_mod(q, mod, size_N);
     646:	0306                	slli	t1,t1,0x1
     648:	097f                	0x97f
     64a:	0004                	0x4
     64c:	0501                	addi	a0,a0,0
     64e:	04020027          	0x4020027
        for (i = size_N-1; i >= 0; i = i-1){
     652:	0602                	c.slli64	a2
     654:	00090003          	lb	zero,0(s2)
            v[i] = 0;
     658:	0100                	addi	s0,sp,128
     65a:	0905                	addi	s2,s2,1
     65c:	0200                	addi	s0,sp,256
     65e:	0304                	addi	s1,sp,384
        for (i = 0; i < size_N; ++i){
     660:	0306                	slli	t1,t1,0x1
     662:	0909                	addi	s2,s2,2
     664:	0008                	0x8
    while (d >= d2){
     666:	0501                	addi	a0,a0,0
     668:	001d                	c.nop	7
    for(i = 0; i < size_N; ++i){
     66a:	0402                	c.slli64	s0
        result[i] = q[i];
     66c:	097f0303          	lb	t1,151(t5)
     670:	0008                	0x8
     672:	0501                	addi	a0,a0,0
    for(i = 0; i < size_N; ++i){
     674:	000d                	c.nop	3
     676:	0402                	c.slli64	s0
    for(i = size_N; i < (2*size_N); ++i){
     678:	09070303          	lb	t1,144(a4)
        result[i] = num_temp[i-size_N];
     67c:	0006                	c.slli	zero,0x1
     67e:	0501                	addi	a0,a0,0
     680:	0022                	c.slli	zero,0x8
     682:	0402                	c.slli64	s0
    for(i = size_N; i < (2*size_N); ++i){
     684:	00030603          	lb	a2,0(t1)
}
     688:	0009                	c.nop	2
     68a:	0100                	addi	s0,sp,128
     68c:	1805                	addi	a6,a6,-31
     68e:	0200                	addi	s0,sp,256
     690:	0304                	addi	s1,sp,384
     692:	04090003          	lb	zero,64(s2)
     696:	0100                	addi	s0,sp,128
     698:	2205                	jal	7b8 <ext_euclid+0xe2>
     69a:	0200                	addi	s0,sp,256
     69c:	0304                	addi	s1,sp,384
     69e:	02090003          	lb	zero,32(s2)
     6a2:	0100                	addi	s0,sp,128
     6a4:	2005                	jal	6c4 <polydiv+0x2c8>
     6a6:	0200                	addi	s0,sp,256
     6a8:	0304                	addi	s1,sp,384
     6aa:	04097f03          	0x4097f03
     6ae:	0100                	addi	s0,sp,128
     6b0:	2205                	jal	7d0 <ext_euclid+0xfa>
        result[i] = q[i];
     6b2:	0200                	addi	s0,sp,256
     6b4:	0304                	addi	s1,sp,384
     6b6:	02090103          	lb	sp,32(s2)
     6ba:	0100                	addi	s0,sp,128
     6bc:	1805                	addi	a6,a6,-31
    for(i = 0; i < size_N; ++i){
     6be:	0200                	addi	s0,sp,256
        result[i] = q[i];
     6c0:	0304                	addi	s1,sp,384
    for(i = 0; i < size_N; ++i){
     6c2:	06090003          	lb	zero,96(s2)
        result[i] = num_temp[i-size_N];
     6c6:	0100                	addi	s0,sp,128
     6c8:	2005                	jal	6e8 <ext_euclid+0x12>
     6ca:	0200                	addi	s0,sp,256
     6cc:	0304                	addi	s1,sp,384
     6ce:	0306                	slli	t1,t1,0x1
    for(i = size_N; i < (2*size_N); ++i){
     6d0:	097f                	0x97f
     6d2:	0006                	c.slli	zero,0x1
     6d4:	0501                	addi	a0,a0,0
    int ri_2[size]; // MX-ring poly, a
     6d6:	0014                	0x14
     6d8:	0402                	c.slli64	s0
int* ext_euclid(int* polyR, int* polyf, int size, int mod) {
     6da:	0301                	addi	t1,t1,0
    int ri_2[size]; // MX-ring poly, a
     6dc:	0900                	addi	s0,sp,144
     6de:	0000                	unimp
int* ext_euclid(int* polyR, int* polyf, int size, int mod) {
     6e0:	0501                	addi	a0,a0,0
     6e2:	0009                	c.nop	2
     6e4:	0402                	c.slli64	s0
     6e6:	0601                	addi	a2,a2,0
     6e8:	00090003          	lb	zero,0(s2)
     6ec:	0100                	addi	s0,sp,128
     6ee:	2805                	jal	71e <ext_euclid+0x48>
     6f0:	0200                	addi	s0,sp,256
     6f2:	0204                	addi	s1,sp,256
     6f4:	0306                	slli	t1,t1,0x1
     6f6:	097f                	0x97f
     6f8:	0004                	0x4
     6fa:	0501                	addi	a0,a0,0
    int ri_2[size]; // MX-ring poly, a
     6fc:	0103060f          	0x103060f
     700:	0609                	addi	a2,a2,2
    int ri_1[size]; // f-random poly, f[N] = 0, b
     702:	0100                	addi	s0,sp,128
     704:	4605                	li	a2,1
     706:	0306                	slli	t1,t1,0x1
    int ri[size];
     708:	090d                	addi	s2,s2,3
     70a:	0004                	0x4
     70c:	0501                	addi	a0,a0,0
    int ti_1[size]; // ti_1[0] = 1
     70e:	0305                	addi	t1,t1,1
     710:	00000903          	lb	s2,0(zero) # 0 <__DYNAMIC>
    int ti[size];
     714:	0501                	addi	a0,a0,0
     716:	061d                	addi	a2,a2,7
     718:	00090003          	lb	zero,0(s2)
    int qi_1[size];
     71c:	0100                	addi	s0,sp,128
     71e:	0905                	addi	s2,s2,1
    int temp[size];
     720:	08090003          	lb	zero,128(s2)
int* ext_euclid(int* polyR, int* polyf, int size, int mod) {
     724:	0100                	addi	s0,sp,128
     726:	4605                	li	a2,1
    int ri_2[size]; // MX-ring poly, a
     728:	0c097d03          	0xc097d03
    int temp[size];
     72c:	0100                	addi	s0,sp,128
    for (i = 0; i < size; ++i) {
     72e:	0905                	addi	s2,s2,1
     730:	12090303          	lb	t1,288(s2)
        ti_2[i] = 0;
     734:	0100                	addi	s0,sp,128
     736:	4605                	li	a2,1
     738:	04097d03          	0x4097d03
    for (i = 0; i < size; ++i) {
     73c:	0100                	addi	s0,sp,128
    ti_1[0] = 1;
     73e:	0905                	addi	s2,s2,1
     740:	00090303          	lb	t1,0(s2)
        for (i = N + 1; i < (2 * N + 2); ++i) {
     744:	0100                	addi	s0,sp,128
     746:	04090303          	lb	t1,64(s2)
     74a:	0100                	addi	s0,sp,128
            ti[i] = ti_2[i] - temp[i];
     74c:	08097d03          	0x8097d03
     750:	0100                	addi	s0,sp,128
     752:	02090303          	lb	t1,32(s2)
	array_mod(ri_2,mod,N+1);
     756:	0100                	addi	s0,sp,128
     758:	04090103          	lb	sp,64(s2)
	array_mod(ri_1,mod,N+1);
     75c:	0100                	addi	s0,sp,128
     75e:	06097f03          	0x6097f03
     762:	0100                	addi	s0,sp,128
        res = polydiv(ri_2, N + 1, ri_1, N + 1, mod);
     764:	02090103          	lb	sp,32(s2)
     768:	0100                	addi	s0,sp,128
     76a:	04097c03          	0x4097c03
     76e:	0100                	addi	s0,sp,128
        for (i = N + 1; i < (2 * N + 2); ++i) {
     770:	0505                	addi	a0,a0,1
     772:	0306                	slli	t1,t1,0x1
     774:	0901                	addi	s2,s2,0
     776:	0004                	0x4
     778:	0301                	addi	t1,t1,0
     77a:	0901                	addi	s2,s2,0
     77c:	0000                	unimp
        for (i = 0; i < N + 1; ++i) {
     77e:	0301                	addi	t1,t1,0
     780:	0901                	addi	s2,s2,0
     782:	0000                	unimp
        array_mod(temp,mod,N+1);
     784:	0501                	addi	a0,a0,0
     786:	0609                	addi	a2,a2,2
     788:	00090003          	lb	zero,0(s2)
        res1 = polydiv(temp, N + 1, ri_1, N + 1, mod);
     78c:	0100                	addi	s0,sp,128
     78e:	0505                	addi	a0,a0,1
     790:	0306                	slli	t1,t1,0x1
     792:	0901                	addi	s2,s2,0
     794:	0004                	0x4
     796:	0501                	addi	a0,a0,0
        for (i = 0; i < N + 1; ++i) {
     798:	0609                	addi	a2,a2,2
     79a:	00090003          	lb	zero,0(s2)
	array_mod(qi_1,mod,size);
     79e:	0100                	addi	s0,sp,128
     7a0:	0505                	addi	a0,a0,1
     7a2:	0306                	slli	t1,t1,0x1
     7a4:	00020903          	lb	s2,0(tp) # 0 <__DYNAMIC>
        res2 = polymult(qi_1, N + 1, ti_1, N + 1, mod, 0);
     7a8:	0501                	addi	a0,a0,0
     7aa:	0614                	addi	a3,sp,768
     7ac:	00090203          	lb	tp,0(s2)
     7b0:	0100                	addi	s0,sp,128
     7b2:	0505                	addi	a0,a0,1
        for (i = 0; i < N + 1; ++i) {
     7b4:	06097e03          	0x6097e03
     7b8:	0100                	addi	s0,sp,128
	array_mod(temp,mod,size);
     7ba:	0c05                	addi	s8,s8,1
     7bc:	02090003          	lb	zero,32(s2)
     7c0:	0100                	addi	s0,sp,128
        for (i = 0; i < N + 1; ++i) {
     7c2:	1905                	addi	s2,s2,-31
     7c4:	02090303          	lb	t1,32(s2)
     7c8:	0100                	addi	s0,sp,128
        array_mod(ti,mod,N+1);
     7ca:	1105                	addi	sp,sp,-31
     7cc:	0200                	addi	s0,sp,256
     7ce:	0104                	addi	s1,sp,128
     7d0:	0306                	slli	t1,t1,0x1
        for (i = 0; i < N + 1; ++i) {
     7d2:	097d                	addi	s2,s2,31
        controlR = 0;
     7d4:	0008                	0x8
        for (i = 0; i < N + 1; ++i) {
     7d6:	0501                	addi	a0,a0,0
     7d8:	0005                	c.nop	1
     7da:	0402                	c.slli64	s0
    while (controlR != 0) {
     7dc:	0601                	addi	a2,a2,0
        for (j = 0; j < mod; ++j) {
     7de:	00090003          	lb	zero,0(s2)
     7e2:	0100                	addi	s0,sp,128
     7e4:	0b05                	addi	s6,s6,1
     7e6:	04090703          	lb	a4,64(s2)
     7ea:	0100                	addi	s0,sp,128
     7ec:	1005                	c.nop	-31
        for (i = 0; i < N + 1; ++i) {
     7ee:	0200                	addi	s0,sp,256
     7f0:	0104                	addi	s1,sp,128
    }
     7f2:	0306                	slli	t1,t1,0x1
     7f4:	0900                	addi	s0,sp,144
     7f6:	0002                	c.slli64	zero
     7f8:	0501                	addi	a0,a0,0
     7fa:	0005                	c.nop	1
     7fc:	0402                	c.slli64	s0
     7fe:	0601                	addi	a2,a2,0
     800:	00090003          	lb	zero,0(s2)
     804:	0100                	addi	s0,sp,128
     806:	0b05                	addi	s6,s6,1
     808:	04090503          	lb	a0,64(s2)
     80c:	0100                	addi	s0,sp,128
     80e:	1005                	c.nop	-31
     810:	0200                	addi	s0,sp,256
     812:	0104                	addi	s1,sp,128
     814:	0306                	slli	t1,t1,0x1
     816:	0900                	addi	s0,sp,144
     818:	0002                	c.slli64	zero
     81a:	0501                	addi	a0,a0,0
        ri_2[i] = polyR[i];
     81c:	0005                	c.nop	1
     81e:	0402                	c.slli64	s0
     820:	0601                	addi	a2,a2,0
     822:	00090003          	lb	zero,0(s2)
     826:	0100                	addi	s0,sp,128
    for (i = 0; i < size; ++i) {
     828:	0306                	slli	t1,t1,0x1
        ri_2[i] = polyR[i];
     82a:	0906                	slli	s2,s2,0x1
     82c:	0004                	0x4
        ri_1[i] = polyf[i];
     82e:	0501                	addi	a0,a0,0
     830:	00030607          	0x30607
     834:	0009                	c.nop	2
     836:	0100                	addi	s0,sp,128
     838:	1d05                	addi	s10,s10,-31
     83a:	0200                	addi	s0,sp,256
     83c:	0104                	addi	s1,sp,128
        ti_2[i] = 0;
     83e:	0306                	slli	t1,t1,0x1
     840:	0908                	addi	a0,sp,144
     842:	000e                	c.slli	zero,0x3
     844:	0501                	addi	a0,a0,0
        ti_1[i] = 0;
     846:	0009                	c.nop	2
     848:	0402                	c.slli64	s0
     84a:	0601                	addi	a2,a2,0
     84c:	00090003          	lb	zero,0(s2)
    for (i = 0; i < size; ++i) {
     850:	0100                	addi	s0,sp,128
            ri[i - (N + 1)] = res[i];
     852:	1405                	addi	s0,s0,-31
     854:	04090103          	lb	sp,64(s2)
     858:	0100                	addi	s0,sp,128
        for (i = N + 1; i < (2 * N + 2); ++i) {
     85a:	0d05                	addi	s10,s10,1
     85c:	0200                	addi	s0,sp,256
            ri[i - (N + 1)] = res[i];
     85e:	0304                	addi	s1,sp,384
     860:	0306                	slli	t1,t1,0x1
        for (i = N + 1; i < (2 * N + 2); ++i) {
     862:	00040967          	jalr	s2,s0 # fffe0000 <_stack_start+0xfffd0000>
            temp[i] = ri_2[i] - ri[i];
     866:	0501                	addi	a0,a0,0
     868:	0019                	c.nop	6
     86a:	0402                	c.slli64	s0
     86c:	01030603          	lb	a2,16(t1)
     870:	0009                	c.nop	2
     872:	0100                	addi	s0,sp,128
        for (i = 0; i < N + 1; ++i) {
     874:	1805                	addi	a6,a6,-31
            temp[i] = ri_2[i] - ri[i];
     876:	0200                	addi	s0,sp,256
     878:	0304                	addi	s1,sp,384
        for (i = 0; i < N + 1; ++i) {
     87a:	06097f03          	0x6097f03
            qi_1[i] = res1[i];
     87e:	0100                	addi	s0,sp,128
     880:	0d05                	addi	s10,s10,1
     882:	0200                	addi	s0,sp,256
     884:	0304                	addi	s1,sp,384
     886:	0306                	slli	t1,t1,0x1
     888:	0901                	addi	s2,s2,0
        for (i = 0; i < N + 1; ++i) {
     88a:	0004                	0x4
            qi_1[i] = res1[i];
     88c:	0501                	addi	a0,a0,0
        for (i = 0; i < N + 1; ++i) {
     88e:	0019                	c.nop	6
            temp[i] = res2[i];
     890:	0402                	c.slli64	s0
     892:	00030603          	lb	a2,0(t1)
     896:	0009                	c.nop	2
     898:	0100                	addi	s0,sp,128
     89a:	2c05                	jal	aca <generate_keys+0x1aa>
        for (i = 0; i < N + 1; ++i) {
     89c:	0200                	addi	s0,sp,256
            temp[i] = res2[i];
     89e:	0304                	addi	s1,sp,384
        for (i = 0; i < N + 1; ++i) {
     8a0:	0306                	slli	t1,t1,0x1
            ti[i] = ti_2[i] - temp[i];
     8a2:	097e                	slli	s2,s2,0x1f
     8a4:	0004                	0x4
     8a6:	0501                	addi	a0,a0,0
     8a8:	0014                	0x14
     8aa:	0402                	c.slli64	s0
     8ac:	0301                	addi	t1,t1,0
     8ae:	0900                	addi	s0,sp,144
     8b0:	0004                	0x4
        for (i = 0; i < N + 1; ++i) {
     8b2:	0501                	addi	a0,a0,0
            ti[i] = ti_2[i] - temp[i];
     8b4:	0009                	c.nop	2
     8b6:	0402                	c.slli64	s0
        for (i = 0; i < N + 1; ++i) {
     8b8:	0601                	addi	a2,a2,0
     8ba:	00090003          	lb	zero,0(s2)
            ri_2[i] = ri_1[i];
     8be:	0100                	addi	s0,sp,128
     8c0:	1d05                	addi	s10,s10,-31
     8c2:	0200                	addi	s0,sp,256
     8c4:	0204                	addi	s1,sp,256
        for (i = 0; i < N + 1; ++i) {
     8c6:	0306                	slli	t1,t1,0x1
            ri_2[i] = ri_1[i];
     8c8:	097f                	0x97f
            ri_1[i] = ri[i];
     8ca:	0004                	0x4
     8cc:	0501                	addi	a0,a0,0
     8ce:	0103060f          	0x103060f
            ti_2[i] = ti_1[i];
     8d2:	0809                	addi	a6,a6,2
            ri_1[i] = ri[i];
     8d4:	0100                	addi	s0,sp,128
            ti_2[i] = ti_1[i];
     8d6:	0905                	addi	s2,s2,1
     8d8:	0200                	addi	s0,sp,256
     8da:	0304                	addi	s1,sp,384
     8dc:	0306                	slli	t1,t1,0x1
            controlR += ri[i];
     8de:	00040907          	0x40907
            ti_2[i] = ti_1[i];
     8e2:	0501                	addi	a0,a0,0
            ti_1[i] = ti[i];
     8e4:	0011                	c.nop	4
     8e6:	0402                	c.slli64	s0
     8e8:	00030603          	lb	a2,0(t1)
            qi_1[i] = 0;
     8ec:	0409                	addi	s0,s0,2
     8ee:	0100                	addi	s0,sp,128
     8f0:	1405                	addi	s0,s0,-31
     8f2:	0200                	addi	s0,sp,256
        for (i = 0; i < N + 1; ++i) {
     8f4:	0304                	addi	s1,sp,384
     8f6:	04090003          	lb	zero,64(s2)
            if (((ri_2[0] * j) % mod) == 1)
     8fa:	0100                	addi	s0,sp,128
     8fc:	1105                	addi	sp,sp,-31
     8fe:	0200                	addi	s0,sp,256
     900:	0304                	addi	s1,sp,384
     902:	02090003          	lb	zero,32(s2)
     906:	0100                	addi	s0,sp,128
        for (j = 0; j < mod; ++j) {
     908:	1c05                	addi	s8,s8,-31
     90a:	0200                	addi	s0,sp,256
            ti_2[i] = (ti_2[i] * j) % mod;        // ti_2[i]*j vardı..
     90c:	0304                	addi	s1,sp,384
        for (i = 0; i < N + 1; ++i) {
     90e:	02097f03          	0x2097f03
            ti_2[i] = (ti_2[i] * j) % mod;        // ti_2[i]*j vardı..
     912:	0100                	addi	s0,sp,128
     914:	1105                	addi	sp,sp,-31
     916:	0200                	addi	s0,sp,256
     918:	0304                	addi	s1,sp,384
     91a:	02090103          	lb	sp,32(s2)
        for (i = 0; i < N + 1; ++i) {
     91e:	0100                	addi	s0,sp,128
int* generate_keys(int N, int p, int q){
     920:	1c05                	addi	s8,s8,-31
     922:	0200                	addi	s0,sp,256
     924:	0304                	addi	s1,sp,384
     926:	0306                	slli	t1,t1,0x1
     928:	097f                	0x97f
     92a:	0004                	0x4
     92c:	0501                	addi	a0,a0,0
     92e:	0009                	c.nop	2
     930:	0402                	c.slli64	s0
     932:	09060303          	lb	t1,144(a2)
     936:	0002                	c.slli64	zero
     938:	0501                	addi	a0,a0,0
     93a:	0011                	c.nop	4
     93c:	0402                	c.slli64	s0
     93e:	00030603          	lb	a2,0(t1)
     942:	0409                	addi	s0,s0,2
     944:	0100                	addi	s0,sp,128
     946:	1405                	addi	s0,s0,-31
     948:	0200                	addi	s0,sp,256
     94a:	0304                	addi	s1,sp,384
     94c:	04090003          	lb	zero,64(s2)
     950:	0100                	addi	s0,sp,128
     952:	1105                	addi	sp,sp,-31
     954:	0200                	addi	s0,sp,256
     956:	0304                	addi	s1,sp,384
     958:	02090003          	lb	zero,32(s2)
    int f[55] = {-1, 1, 1, 0, -1, 0, 1, 0, 0, 1, -1, -1, 0, 1, 0, -1, 0, 1, 1, 0, 0,  -1, 0, 1, 0, 0, 1, 1, 1,  -1, 0, 1, 0, 0, 1, 1, 1,    -1, 0, 1, 0, 0, 1, 1, 1};
     95c:	0100                	addi	s0,sp,128
     95e:	1c05                	addi	s8,s8,-31
     960:	0200                	addi	s0,sp,256
     962:	0304                	addi	s1,sp,384
     964:	02097f03          	0x2097f03
     968:	0100                	addi	s0,sp,128
    int g[55] = {-1, 0, 1, 1, 0, 1, 0, 0, -1, 0, -1, -1, 0, 1, 0, -1, 0, 1, 0, 0, 1, -1, 0, 1, 0, 0, 1, -1, 0, 1, 0, 0, 1, -1, 0, 1, 0, 1,   1, 0, 0, 1, -1, 0, 1, 0, 1};
     96a:	1105                	addi	sp,sp,-31
     96c:	0200                	addi	s0,sp,256
     96e:	0304                	addi	s1,sp,384
     970:	02090103          	lb	sp,32(s2)
    int f[55] = {-1, 1, 1, 0, -1, 0, 1, 0, 0, 1, -1, -1, 0, 1, 0, -1, 0, 1, 1, 0, 0,  -1, 0, 1, 0, 0, 1, 1, 1,  -1, 0, 1, 0, 0, 1, 1, 1,    -1, 0, 1, 0, 0, 1, 1, 1};
     974:	0100                	addi	s0,sp,128
     976:	1c05                	addi	s8,s8,-31
     978:	0200                	addi	s0,sp,256
     97a:	0304                	addi	s1,sp,384
     97c:	0306                	slli	t1,t1,0x1
     97e:	097f                	0x97f
     980:	0004                	0x4
     982:	0501                	addi	a0,a0,0
     984:	0011                	c.nop	4
     986:	0402                	c.slli64	s0
     988:	09090303          	lb	t1,144(s2)
     98c:	0002                	c.slli64	zero
     98e:	0501                	addi	a0,a0,0
     990:	0025                	c.nop	9
     992:	0402                	c.slli64	s0
     994:	00030603          	lb	a2,0(t1)
     998:	0409                	addi	s0,s0,2
     99a:	0100                	addi	s0,sp,128
     99c:	2b05                	jal	ecc <memset+0x6>
     99e:	0200                	addi	s0,sp,256
     9a0:	0304                	addi	s1,sp,384
     9a2:	04090003          	lb	zero,64(s2)
     9a6:	0100                	addi	s0,sp,128
     9a8:	2e05                	jal	cd8 <ntru_deceypt+0x2e>
     9aa:	0200                	addi	s0,sp,256
     9ac:	0304                	addi	s1,sp,384
     9ae:	02090003          	lb	zero,32(s2)
     9b2:	0100                	addi	s0,sp,128
     9b4:	2a05                	jal	ae4 <generate_keys+0x1c4>
     9b6:	0200                	addi	s0,sp,256
     9b8:	0304                	addi	s1,sp,384
     9ba:	06097f03          	0x6097f03
     9be:	0100                	addi	s0,sp,128
     9c0:	2e05                	jal	cf0 <ntru_deceypt+0x46>
     9c2:	0200                	addi	s0,sp,256
     9c4:	0304                	addi	s1,sp,384
     9c6:	02090103          	lb	sp,32(s2)
     9ca:	0100                	addi	s0,sp,128
     9cc:	2505                	jal	fec <main+0x7e>
     9ce:	0200                	addi	s0,sp,256
     9d0:	0304                	addi	s1,sp,384
     9d2:	04090003          	lb	zero,64(s2)
     9d6:	0100                	addi	s0,sp,128
     9d8:	2805                	jal	a08 <generate_keys+0xe8>
     9da:	0200                	addi	s0,sp,256
     9dc:	0304                	addi	s1,sp,384
     9de:	0306                	slli	t1,t1,0x1
    int polyR[N+1];
     9e0:	097f                	0x97f
     9e2:	0002                	c.slli64	zero
    int g[55] = {-1, 0, 1, 1, 0, 1, 0, 0, -1, 0, -1, -1, 0, 1, 0, -1, 0, 1, 0, 0, 1, -1, 0, 1, 0, 0, 1, -1, 0, 1, 0, 0, 1, -1, 0, 1, 0, 1,   1, 0, 0, 1, -1, 0, 1, 0, 1};
     9e4:	0501                	addi	a0,a0,0
    int polyR[N+1];
     9e6:	0020                	addi	s0,sp,8
     9e8:	0402                	c.slli64	s0
     9ea:	0301                	addi	t1,t1,0
     9ec:	0900                	addi	s0,sp,144
     9ee:	0000                	unimp
     9f0:	0501                	addi	a0,a0,0
     9f2:	000d                	c.nop	3
    polyR[N] = 1;
     9f4:	0402                	c.slli64	s0
     9f6:	0601                	addi	a2,a2,0
     9f8:	00090003          	lb	zero,0(s2)
     9fc:	0100                	addi	s0,sp,128
    int g[55] = {-1, 0, 1, 1, 0, 1, 0, 0, -1, 0, -1, -1, 0, 1, 0, -1, 0, 1, 0, 0, 1, -1, 0, 1, 0, 0, 1, -1, 0, 1, 0, 0, 1, -1, 0, 1, 0, 1,   1, 0, 0, 1, -1, 0, 1, 0, 1};
     9fe:	2505                	jal	101e <main+0xb0>
     a00:	0200                	addi	s0,sp,256
     a02:	0204                	addi	s1,sp,256
     a04:	0306                	slli	t1,t1,0x1
     a06:	097f                	0x97f
     a08:	0004                	0x4
     a0a:	0501                	addi	a0,a0,0
     a0c:	04020027          	0x4020027
     a10:	0602                	c.slli64	a2
     a12:	00090003          	lb	zero,0(s2)
     a16:	0100                	addi	s0,sp,128
     a18:	1d05                	addi	s10,s10,-31
     a1a:	0200                	addi	s0,sp,256
     a1c:	0104                	addi	s1,sp,128
     a1e:	0306                	slli	t1,t1,0x1
     a20:	0900                	addi	s0,sp,144
     a22:	0006                	c.slli	zero,0x1
     a24:	0501                	addi	a0,a0,0
     a26:	0009                	c.nop	2
     a28:	0402                	c.slli64	s0
     a2a:	0601                	addi	a2,a2,0
     a2c:	00090003          	lb	zero,0(s2)
     a30:	0100                	addi	s0,sp,128
     a32:	0f05                	addi	t5,t5,1
     a34:	0c091003          	lh	zero,192(s2)
     a38:	0100                	addi	s0,sp,128
     a3a:	1005                	c.nop	-31
     a3c:	0200                	addi	s0,sp,256
     a3e:	0104                	addi	s1,sp,128
     a40:	0306                	slli	t1,t1,0x1
     a42:	097f                	0x97f
     a44:	0002                	c.slli64	zero
     a46:	0501                	addi	a0,a0,0
     a48:	0005                	c.nop	1
     a4a:	0402                	c.slli64	s0
     a4c:	0601                	addi	a2,a2,0
     a4e:	00090003          	lb	zero,0(s2)
     a52:	0100                	addi	s0,sp,128
     a54:	0306                	slli	t1,t1,0x1
     a56:	00040907          	0x40907
     a5a:	0301                	addi	t1,t1,0
     a5c:	0902                	c.slli64	s2
     a5e:	0000                	unimp
     a60:	0501                	addi	a0,a0,0
    polyR[0] = -1;
     a62:	0601                	addi	a2,a2,0
     a64:	00090103          	lb	sp,0(s2)
    for(i = 1; i < N; ++i){
     a68:	0100                	addi	s0,sp,128
     a6a:	1405                	addi	s0,s0,-31
     a6c:	1e096803          	0x1e096803
    for (i = N; i < 55; ++i ){
     a70:	0100                	addi	s0,sp,128
     a72:	1105                	addi	sp,sp,-31
     a74:	0200                	addi	s0,sp,256
    for(i = 0; i < N; ++i){
     a76:	0304                	addi	s1,sp,384
        random_keys[i] = f[i];
     a78:	0306                	slli	t1,t1,0x1
     a7a:	0908                	addi	a0,sp,144
     a7c:	0004                	0x4
     a7e:	0501                	addi	a0,a0,0
    for(i = 0; i < N; ++i){
     a80:	0029                	c.nop	10
     a82:	0402                	c.slli64	s0
     a84:	00030603          	lb	a2,0(t1)
    for(i = N; i < (2*N); ++i){
     a88:	0409                	addi	s0,s0,2
     a8a:	0100                	addi	s0,sp,128
     a8c:	2f05                	jal	11bc <_endtext+0x104>
     a8e:	0200                	addi	s0,sp,256
        random_keys[i] = g[i-N];
     a90:	0304                	addi	s1,sp,384
     a92:	04090003          	lb	zero,64(s2)
     a96:	0100                	addi	s0,sp,128
    for(i = N; i < (2*N); ++i){
     a98:	3205                	jal	3b8 <polymult2+0x12c>
     a9a:	0200                	addi	s0,sp,256
    for(i = (2*N); i < (3*N); ++i){
     a9c:	0304                	addi	s1,sp,384
     a9e:	02090003          	lb	zero,32(s2)
    fp = ext_euclid(polyR, f, (N+1), p);
     aa2:	0100                	addi	s0,sp,128
     aa4:	2a05                	jal	bd4 <generate_keys+0x2b4>
     aa6:	0200                	addi	s0,sp,256
     aa8:	0304                	addi	s1,sp,384
     aaa:	06097f03          	0x6097f03
    for(i = (2*N); i < (3*N); ++i){
     aae:	0100                	addi	s0,sp,128
        random_keys[i] = fp[i-(2*N)];
     ab0:	3205                	jal	3d0 <polymult2+0x144>
     ab2:	0200                	addi	s0,sp,256
     ab4:	0304                	addi	s1,sp,384
     ab6:	02090103          	lb	sp,32(s2)
    for(i = (2*N); i < (3*N); ++i){
     aba:	0100                	addi	s0,sp,128
    fq = ext_euclid(polyR, f, (N+1), q);
     abc:	2905                	jal	eec <memset+0x26>
     abe:	0200                	addi	s0,sp,256
     ac0:	0304                	addi	s1,sp,384
     ac2:	04090003          	lb	zero,64(s2)
     ac6:	0100                	addi	s0,sp,128
    for(i = (3*N); i < (4*N); ++i){
     ac8:	2805                	jal	af8 <generate_keys+0x1d8>
     aca:	0200                	addi	s0,sp,256
     acc:	0304                	addi	s1,sp,384
     ace:	0306                	slli	t1,t1,0x1
        random_keys[i] = fq[i-(3*N)];
     ad0:	097f                	0x97f
     ad2:	0002                	c.slli64	zero
     ad4:	0501                	addi	a0,a0,0
     ad6:	0020                	addi	s0,sp,8
    for(i = (3*N); i < (4*N); ++i){
     ad8:	0402                	c.slli64	s0
     ada:	0301                	addi	t1,t1,0
    fg = polymult2(fq, N, g, N, 0);
     adc:	0900                	addi	s0,sp,144
     ade:	0000                	unimp
     ae0:	0501                	addi	a0,a0,0
     ae2:	000d                	c.nop	3
     ae4:	0402                	c.slli64	s0
     ae6:	0601                	addi	a2,a2,0
    for(i = 0; i < (2*N-1); ++i){
     ae8:	00090003          	lb	zero,0(s2)
     aec:	0100                	addi	s0,sp,128
     aee:	2505                	jal	110e <_endtext+0x56>
     af0:	0200                	addi	s0,sp,256
     af2:	0204                	addi	s1,sp,256
    pk = polydiv(fg, (2*N-1), polyR, (N+1), q);
     af4:	0306                	slli	t1,t1,0x1
     af6:	097f                	0x97f
     af8:	0004                	0x4
     afa:	0501                	addi	a0,a0,0
    for(i = (4*N); i < (5*N); ++i){
     afc:	04020027          	0x4020027
     b00:	0602                	c.slli64	a2
     b02:	00090003          	lb	zero,0(s2)
        random_keys[i] = pk[i-(4*N)+(2*N-1)];
     b06:	0100                	addi	s0,sp,128
     b08:	0d05                	addi	s10,s10,1
     b0a:	0200                	addi	s0,sp,256
     b0c:	0304                	addi	s1,sp,384
    for(i = (4*N); i < (5*N); ++i){
     b0e:	0306                	slli	t1,t1,0x1
     b10:	090a                	slli	s2,s2,0x2
     b12:	0008                	0x8
    for(i = (5*N); i < (6*N+1); ++i){
     b14:	0501                	addi	a0,a0,0
     b16:	04020023          	sb	zero,64(tp) # 40 <__DYNAMIC+0x40>
        random_keys[i] = polyR[i-(5*N)];
     b1a:	00030603          	lb	a2,0(t1)
     b1e:	0009                	c.nop	2
    for(i = (5*N); i < (6*N+1); ++i){
     b20:	0100                	addi	s0,sp,128
     b22:	1905                	addi	s2,s2,-31
     b24:	0200                	addi	s0,sp,256
     b26:	0304                	addi	s1,sp,384
     b28:	04090003          	lb	zero,64(s2)
}
     b2c:	0100                	addi	s0,sp,128
     b2e:	2005                	jal	b4e <generate_keys+0x22e>
     b30:	0200                	addi	s0,sp,256
     b32:	0304                	addi	s1,sp,384
     b34:	02097f03          	0x2097f03
     b38:	0100                	addi	s0,sp,128
     b3a:	2305                	jal	105a <main+0xec>
     b3c:	0200                	addi	s0,sp,256
     b3e:	0304                	addi	s1,sp,384
     b40:	02090103          	lb	sp,32(s2)
     b44:	0100                	addi	s0,sp,128
     b46:	1905                	addi	s2,s2,-31
     b48:	0200                	addi	s0,sp,256
     b4a:	0304                	addi	s1,sp,384
     b4c:	06090003          	lb	zero,96(s2)
     b50:	0100                	addi	s0,sp,128
     b52:	2005                	jal	b72 <generate_keys+0x252>
     b54:	0200                	addi	s0,sp,256
     b56:	0304                	addi	s1,sp,384
     b58:	0306                	slli	t1,t1,0x1
     b5a:	097f                	0x97f
     b5c:	0006                	c.slli	zero,0x1
     b5e:	0501                	addi	a0,a0,0
     b60:	0014                	0x14
     b62:	0402                	c.slli64	s0
     b64:	0301                	addi	t1,t1,0
     b66:	0900                	addi	s0,sp,144
     b68:	0000                	unimp
     b6a:	0501                	addi	a0,a0,0
        polyR[i] = 0;
     b6c:	0009                	c.nop	2
     b6e:	0402                	c.slli64	s0
     b70:	0601                	addi	a2,a2,0
     b72:	00090003          	lb	zero,0(s2)
    for(i = 1; i < N; ++i){
     b76:	0100                	addi	s0,sp,128
     b78:	2805                	jal	ba8 <generate_keys+0x288>
        f[i] = 0;
     b7a:	0200                	addi	s0,sp,256
     b7c:	0204                	addi	s1,sp,256
     b7e:	0306                	slli	t1,t1,0x1
     b80:	097f                	0x97f
     b82:	0004                	0x4
     b84:	0501                	addi	a0,a0,0
     b86:	0103060f          	0x103060f
        g[i] = 0;
     b8a:	0609                	addi	a2,a2,2
     b8c:	0100                	addi	s0,sp,128
     b8e:	4305                	li	t1,1
     b90:	0306                	slli	t1,t1,0x1
    for (i = N; i < 55; ++i ){
     b92:	0004090b          	0x4090b
        random_keys[i] = f[i];
     b96:	0501                	addi	a0,a0,0
     b98:	0305                	addi	t1,t1,1
     b9a:	00000903          	lb	s2,0(zero) # 0 <__DYNAMIC>
     b9e:	0301                	addi	t1,t1,0
     ba0:	0901                	addi	s2,s2,0
     ba2:	0000                	unimp
     ba4:	0301                	addi	t1,t1,0
    for(i = 0; i < N; ++i){
     ba6:	0902                	c.slli64	s2
        random_keys[i] = f[i];
     ba8:	0000                	unimp
    for(i = 0; i < N; ++i){
     baa:	0501                	addi	a0,a0,0
        random_keys[i] = g[i-N];
     bac:	0609                	addi	a2,a2,2
     bae:	00090003          	lb	zero,0(s2)
     bb2:	0100                	addi	s0,sp,128
     bb4:	4305                	li	t1,1
    for(i = N; i < (2*N); ++i){
     bb6:	04097a03          	0x4097a03
     bba:	0100                	addi	s0,sp,128
        random_keys[i] = fp[i-(2*N)];
     bbc:	0905                	addi	s2,s2,1
     bbe:	02090603          	lb	a2,32(s2)
     bc2:	0100                	addi	s0,sp,128
     bc4:	4305                	li	t1,1
    for(i = (2*N); i < (3*N); ++i){
     bc6:	04097a03          	0x4097a03
     bca:	0100                	addi	s0,sp,128
        random_keys[i] = fq[i-(3*N)];
     bcc:	0905                	addi	s2,s2,1
     bce:	1c090603          	lb	a2,448(s2)
     bd2:	0100                	addi	s0,sp,128
     bd4:	06090103          	lb	sp,96(s2)
     bd8:	0100                	addi	s0,sp,128
    for(i = (3*N); i < (4*N); ++i){
     bda:	06090203          	lb	tp,96(s2)
     bde:	0100                	addi	s0,sp,128
        fg[i] = fg[i]*p;
     be0:	04090103          	lb	sp,64(s2)
    for(i = 0; i < (2*N-1); ++i){
     be4:	0100                	addi	s0,sp,128
        fg[i] = fg[i]*p;
     be6:	08097f03          	0x8097f03
     bea:	0100                	addi	s0,sp,128
     bec:	02090103          	lb	sp,32(s2)
        random_keys[i] = pk[i-(4*N)+(2*N-1)];
     bf0:	0100                	addi	s0,sp,128
     bf2:	4305                	li	t1,1
     bf4:	04097603          	0x4097603
     bf8:	0100                	addi	s0,sp,128
     bfa:	0905                	addi	s2,s2,1
    for(i = (4*N); i < (5*N); ++i){
     bfc:	08090603          	lb	a2,128(s2)
        random_keys[i] = polyR[i-(5*N)];
     c00:	0100                	addi	s0,sp,128
     c02:	0505                	addi	a0,a0,1
     c04:	0306                	slli	t1,t1,0x1
     c06:	0901                	addi	s2,s2,0
     c08:	0004                	0x4
     c0a:	0301                	addi	t1,t1,0
     c0c:	0901                	addi	s2,s2,0
    for(i = (5*N); i < (6*N+1); ++i){
     c0e:	0000                	unimp
        random_keys[i] = polyR[i-(5*N)];
     c10:	0301                	addi	t1,t1,0
    for(i = (5*N); i < (6*N+1); ++i){
     c12:	0901                	addi	s2,s2,0
int* ntru_encyrpt(int N, int q, int* message, int* public_key, int* polyR){
     c14:	0000                	unimp
     c16:	0301                	addi	t1,t1,0
     c18:	0901                	addi	s2,s2,0
     c1a:	0000                	unimp
     c1c:	0501                	addi	a0,a0,0
     c1e:	0609                	addi	a2,a2,2
     c20:	00090003          	lb	zero,0(s2)
    int random_val[48] = { 1, -1, 0, 1, -1, 1, -1, 0,1, 1, 0, -1, 1, -1, 1, 0,1, 1, 0, -1, 1, -1, 1, 0,1, 1, 0, 1, -1, 1, -1, 0, 1, -1, 0, 1, -1, 1, -1, 0,1, 1, 0, -1, 1, -1, 1, 0};
     c24:	0100                	addi	s0,sp,128
     c26:	0505                	addi	a0,a0,1
     c28:	0306                	slli	t1,t1,0x1
     c2a:	0904                	addi	s1,sp,144
     c2c:	0006                	c.slli	zero,0x1
     c2e:	0501                	addi	a0,a0,0
int* ntru_encyrpt(int N, int q, int* message, int* public_key, int* polyR){
     c30:	060c                	addi	a1,sp,768
     c32:	00090003          	lb	zero,0(s2)
     c36:	0100                	addi	s0,sp,128
     c38:	1105                	addi	sp,sp,-31
    int random_val[48] = { 1, -1, 0, 1, -1, 1, -1, 0,1, 1, 0, -1, 1, -1, 1, 0,1, 1, 0, -1, 1, -1, 1, 0,1, 1, 0, 1, -1, 1, -1, 0, 1, -1, 0, 1, -1, 1, -1, 0,1, 1, 0, -1, 1, -1, 1, 0};
     c3a:	0200                	addi	s0,sp,256
    temp = polymult(public_key,N,random_val,48,q,0);
     c3c:	0104                	addi	s1,sp,128
     c3e:	0306                	slli	t1,t1,0x1
     c40:	0900                	addi	s0,sp,144
     c42:	0002                	c.slli64	zero
     c44:	0501                	addi	a0,a0,0
     c46:	0005                	c.nop	1
     c48:	0402                	c.slli64	s0
     c4a:	0601                	addi	a2,a2,0
     c4c:	00090003          	lb	zero,0(s2)
    for(i = 0; i < 48; ++i){
     c50:	0100                	addi	s0,sp,128
     c52:	0306                	slli	t1,t1,0x1
        temp[i] = temp[i] + message[i];
     c54:	0904                	addi	s1,sp,144
     c56:	0004                	0x4
     c58:	0501                	addi	a0,a0,0
     c5a:	00030607          	0x30607
     c5e:	0009                	c.nop	2
     c60:	0100                	addi	s0,sp,128
     c62:	0905                	addi	s2,s2,1
     c64:	0306                	slli	t1,t1,0x1
    for(i = 0; i < 48; ++i){
     c66:	0901                	addi	s2,s2,0
     c68:	0008                	0x8
    CT = polydiv(temp,(2*N),polyR,(N+1),q);
     c6a:	0301                	addi	t1,t1,0
     c6c:	0901                	addi	s2,s2,0
     c6e:	000a                	c.slli	zero,0x2
     c70:	0501                	addi	a0,a0,0
     c72:	030e                	slli	t1,t1,0x3
     c74:	0900                	addi	s0,sp,144
     c76:	0000                	unimp
     c78:	0501                	addi	a0,a0,0
     c7a:	00030617          	auipc	a2,0x30
    for(i = (2*N); i < (3*N); ++i){
     c7e:	0009                	c.nop	2
     c80:	0100                	addi	s0,sp,128
     c82:	0e05                	addi	t3,t3,1
     c84:	04090003          	lb	zero,64(s2)
}
     c88:	0100                	addi	s0,sp,128
     c8a:	0905                	addi	s2,s2,1
     c8c:	0306                	slli	t1,t1,0x1
     c8e:	00040903          	lb	s2,0(s0)
     c92:	0501                	addi	a0,a0,0
     c94:	0635                	addi	a2,a2,13
     c96:	00090003          	lb	zero,0(s2)
        CT[i-(2*N)] = CT[i];
     c9a:	0100                	addi	s0,sp,128
     c9c:	1e05                	addi	t3,t3,-31
     c9e:	04090003          	lb	zero,64(s2)
    for(i = (2*N); i < (3*N); ++i){
     ca2:	0100                	addi	s0,sp,128
        CT[i-(2*N)] = CT[i];
     ca4:	0c05                	addi	s8,s8,1
     ca6:	0200                	addi	s0,sp,256
    for(i = (2*N); i < (3*N); ++i){
     ca8:	0104                	addi	s1,sp,128
int* ntru_deceypt(int N, int p, int q, int* secret_key_f, int* secret_key_fp, int* Enc_Message, int* polyR){
     caa:	04097703          	0x4097703
     cae:	0100                	addi	s0,sp,128
     cb0:	1105                	addi	sp,sp,-31
    for(i = (2*N); i < ((2*N)+N); ++i){
     cb2:	0200                	addi	s0,sp,256
     cb4:	0104                	addi	s1,sp,128
     cb6:	0306                	slli	t1,t1,0x1
int* ntru_deceypt(int N, int p, int q, int* secret_key_f, int* secret_key_fp, int* Enc_Message, int* polyR){
     cb8:	0911                	addi	s2,s2,4
     cba:	0002                	c.slli64	zero
     cbc:	0501                	addi	a0,a0,0
     cbe:	0005                	c.nop	1
     cc0:	0402                	c.slli64	s0
    a = polymult2(secret_key_f,N,Enc_Message,N,0);
     cc2:	0601                	addi	a2,a2,0
     cc4:	00090003          	lb	zero,0(s2)
int* ntru_deceypt(int N, int p, int q, int* secret_key_f, int* secret_key_fp, int* Enc_Message, int* polyR){
     cc8:	0100                	addi	s0,sp,128
    a = polymult2(secret_key_f,N,Enc_Message,N,0);
     cca:	0205                	addi	tp,tp,1
     ccc:	0306                	slli	t1,t1,0x1
int* ntru_deceypt(int N, int p, int q, int* secret_key_f, int* secret_key_fp, int* Enc_Message, int* polyR){
     cce:	0904                	addi	s1,sp,144
     cd0:	0004                	0x4
     cd2:	0501                	addi	a0,a0,0
     cd4:	0305                	addi	t1,t1,1
     cd6:	0902                	c.slli64	s2
    a2 = polydiv(a,(2*N),polyR,(N+1),q);
     cd8:	0008                	0x8
     cda:	0501                	addi	a0,a0,0
    a = polymult2(secret_key_f,N,Enc_Message,N,0);
     cdc:	060c                	addi	a1,sp,768
     cde:	00090003          	lb	zero,0(s2)
    a2 = polydiv(a,(2*N),polyR,(N+1),q);
     ce2:	0100                	addi	s0,sp,128
     ce4:	1105                	addi	sp,sp,-31
     ce6:	0200                	addi	s0,sp,256
     ce8:	0104                	addi	s1,sp,128
     cea:	0306                	slli	t1,t1,0x1
     cec:	0900                	addi	s0,sp,144
     cee:	0002                	c.slli64	zero
     cf0:	0501                	addi	a0,a0,0
    for(i = (2*N); i < ((2*N)+N); ++i){
     cf2:	0005                	c.nop	1
     cf4:	0402                	c.slli64	s0
     cf6:	0601                	addi	a2,a2,0
     cf8:	00090003          	lb	zero,0(s2)
        if(a2[i] <= q/2)
     cfc:	0100                	addi	s0,sp,128
     cfe:	1805                	addi	a6,a6,-31
     d00:	0200                	addi	s0,sp,256
    for (i = 0; i < N; ++i){
     d02:	0104                	addi	s1,sp,128
     d04:	0306                	slli	t1,t1,0x1
     d06:	0906                	slli	s2,s2,0x1
    c = polymult2(secret_key_fp,N,a2,N,0);
     d08:	0004                	0x4
     d0a:	0501                	addi	a0,a0,0
     d0c:	0005                	c.nop	1
     d0e:	0402                	c.slli64	s0
     d10:	0601                	addi	a2,a2,0
     d12:	08090003          	lb	zero,128(s2)
    c2 = polydiv(c,(2*N),polyR,(N+1),p);
     d16:	0100                	addi	s0,sp,128
     d18:	0c05                	addi	s8,s8,1
     d1a:	0200                	addi	s0,sp,256
     d1c:	0104                	addi	s1,sp,128
     d1e:	04097a03          	0x4097a03
    for(i = (2*N); i < ((2*N)+N); ++i){
     d22:	0100                	addi	s0,sp,128
     d24:	0200                	addi	s0,sp,256
}
     d26:	0104                	addi	s1,sp,128
     d28:	04090f03          	lb	t5,64(s2)
     d2c:	0100                	addi	s0,sp,128
     d2e:	1105                	addi	sp,sp,-31
     d30:	0200                	addi	s0,sp,256
     d32:	0104                	addi	s1,sp,128
     d34:	0306                	slli	t1,t1,0x1
     d36:	097f                	0x97f
     d38:	0002                	c.slli64	zero
     d3a:	0501                	addi	a0,a0,0
        a2[i-(2*N)] = a2[i];
     d3c:	0005                	c.nop	1
     d3e:	0402                	c.slli64	s0
     d40:	0601                	addi	a2,a2,0
     d42:	00090003          	lb	zero,0(s2)
    for(i = (2*N); i < ((2*N)+N); ++i){
     d46:	0100                	addi	s0,sp,128
        a2[i-(2*N)] = a2[i];
     d48:	0905                	addi	s2,s2,1
     d4a:	0200                	addi	s0,sp,256
    for(i = (2*N); i < ((2*N)+N); ++i){
     d4c:	0304                	addi	s1,sp,384
        if(a2[i] <= q/2)
     d4e:	0306                	slli	t1,t1,0x1
     d50:	095c                	addi	a5,sp,148
     d52:	0008                	0x8
            a2[i] = (-1)*(q-a2[i]);
     d54:	0501                	addi	a0,a0,0
     d56:	0015                	c.nop	5
     d58:	0402                	c.slli64	s0
    for (i = 0; i < N; ++i){
     d5a:	00030603          	lb	a2,0(t1)
     d5e:	0409                	addi	s0,s0,2
        c2[i-(2*N)] = c2[i];
     d60:	0100                	addi	s0,sp,128
     d62:	1a05                	addi	s4,s4,-31
     d64:	0200                	addi	s0,sp,256
     d66:	0304                	addi	s1,sp,384
    for(i = (2*N); i < ((2*N)+N); ++i){
     d68:	04090003          	lb	zero,64(s2)
        c2[i-(2*N)] = c2[i];
     d6c:	0100                	addi	s0,sp,128
     d6e:	1505                	addi	a0,a0,-31
    for(i = (2*N); i < ((2*N)+N); ++i){
     d70:	0200                	addi	s0,sp,256
  jal x0, default_exc_handler
     d72:	0304                	addi	s1,sp,384
     d74:	02090003          	lb	zero,32(s2)
  mv  x1, x0
     d78:	0100                	addi	s0,sp,128
  mv  x2, x1
     d7a:	1d05                	addi	s10,s10,-31
  mv  x3, x1
     d7c:	0200                	addi	s0,sp,256
  mv  x4, x1
     d7e:	0304                	addi	s1,sp,384
  mv  x5, x1
     d80:	02097f03          	0x2097f03
  mv  x7, x1
     d84:	0100                	addi	s0,sp,128
  mv  x8, x1
     d86:	1505                	addi	a0,a0,-31
  mv  x9, x1
     d88:	0200                	addi	s0,sp,256
  mv x10, x1
     d8a:	0304                	addi	s1,sp,384
  mv x11, x1
     d8c:	02090103          	lb	sp,32(s2)
  mv x13, x1
     d90:	0100                	addi	s0,sp,128
  mv x14, x1
     d92:	1d05                	addi	s10,s10,-31
  mv x15, x1
     d94:	0200                	addi	s0,sp,256
  mv x16, x1
     d96:	0304                	addi	s1,sp,384
  mv x17, x1
     d98:	0306                	slli	t1,t1,0x1
  mv x18, x1
     d9a:	097f                	0x97f
  mv x19, x1
     d9c:	0002                	c.slli64	zero
  mv x20, x1
     d9e:	0501                	addi	a0,a0,0
  mv x21, x1
     da0:	030d                	addi	t1,t1,3
  mv x22, x1
     da2:	00020907          	0x20907
  mv x24, x1
     da6:	0501                	addi	a0,a0,0
  mv x25, x1
     da8:	0638                	addi	a4,sp,776
  mv x26, x1
     daa:	00090003          	lb	zero,0(s2)
  mv x28, x1
     dae:	0100                	addi	s0,sp,128
  mv x29, x1
     db0:	2205                	jal	ed0 <memset+0xa>
  mv x30, x1
     db2:	02090003          	lb	zero,32(s2)
  la   x2, _stack_start
     db6:	0100                	addi	s0,sp,128
     db8:	0905                	addi	s2,s2,1
     dba:	0306                	slli	t1,t1,0x1
     dbc:	0905                	addi	s2,s2,1
  la x26, _bss_start
     dbe:	0006                	c.slli	zero,0x1
     dc0:	0001                	nop
     dc2:	0402                	c.slli64	s0
     dc4:	09060303          	lb	t1,144(a2) # 30d0a <_stack_start+0x20d0a>
  la x27, _bss_end
     dc8:	000a                	c.slli	zero,0x2
     dca:	0501                	addi	a0,a0,0
     dcc:	04020017          	auipc	zero,0x4020
  bge x26, x27, zero_loop_end
     dd0:	00030603          	lb	a2,0(t1)
  sw x0, 0(x26)
     dd4:	0409                	addi	s0,s0,2
  addi x26, x26, 4
     dd6:	0100                	addi	s0,sp,128
  ble x26, x27, zero_loop
     dd8:	1e05                	addi	t3,t3,-31
     dda:	0200                	addi	s0,sp,256
  addi x10, x0, 0
     ddc:	0304                	addi	s1,sp,384
     dde:	04090003          	lb	zero,64(s2)
  addi x11, x0, 0
     de2:	0100                	addi	s0,sp,128
  jal x1, main
     de4:	1705                	addi	a4,a4,-31
     de6:	0200                	addi	s0,sp,256
     de8:	0304                	addi	s1,sp,384
     dea:	02090003          	lb	zero,32(s2)
     dee:	0100                	addi	s0,sp,128
     df0:	1d05                	addi	s10,s10,-31
     df2:	0200                	addi	s0,sp,256
     df4:	0304                	addi	s1,sp,384
     df6:	02097f03          	0x2097f03
     dfa:	0100                	addi	s0,sp,128
     dfc:	1705                	addi	a4,a4,-31
     dfe:	0200                	addi	s0,sp,256
     e00:	0304                	addi	s1,sp,384
     e02:	02090103          	lb	sp,32(s2)
     e06:	0100                	addi	s0,sp,128
     e08:	1d05                	addi	s10,s10,-31
     e0a:	0200                	addi	s0,sp,256
     e0c:	0304                	addi	s1,sp,384
     e0e:	0306                	slli	t1,t1,0x1
     e10:	097f                	0x97f
     e12:	0002                	c.slli64	zero
     e14:	0501                	addi	a0,a0,0
     e16:	0009                	c.nop	2
     e18:	0402                	c.slli64	s0
     e1a:	09070303          	lb	t1,144(a4)
     e1e:	0002                	c.slli64	zero
     e20:	0501                	addi	a0,a0,0
     e22:	000e                	c.slli	zero,0x3
     e24:	0402                	c.slli64	s0
     e26:	00030603          	lb	a2,0(t1)
     e2a:	0409                	addi	s0,s0,2
     e2c:	0100                	addi	s0,sp,128
     e2e:	0200                	addi	s0,sp,256
     e30:	0304                	addi	s1,sp,384
     e32:	04090103          	lb	sp,64(s2)
     e36:	0100                	addi	s0,sp,128
     e38:	0200                	addi	s0,sp,256
     e3a:	0304                	addi	s1,sp,384
     e3c:	02097f03          	0x2097f03
     e40:	0100                	addi	s0,sp,128
     e42:	0905                	addi	s2,s2,1
     e44:	0200                	addi	s0,sp,256
     e46:	0304                	addi	s1,sp,384
     e48:	0306                	slli	t1,t1,0x1
     e4a:	0901                	addi	s2,s2,0
     e4c:	0004                	0x4
     e4e:	0501                	addi	a0,a0,0
     e50:	000e                	c.slli	zero,0x3
     e52:	0402                	c.slli64	s0
     e54:	00030603          	lb	a2,0(t1)
     e58:	0009                	c.nop	2
     e5a:	0100                	addi	s0,sp,128
     e5c:	1d05                	addi	s10,s10,-31
     e5e:	0200                	addi	s0,sp,256
     e60:	0304                	addi	s1,sp,384
     e62:	0306                	slli	t1,t1,0x1
     e64:	097e                	slli	s2,s2,0x1f
     e66:	0004                	0x4
     e68:	0501                	addi	a0,a0,0
     e6a:	0309                	addi	t1,t1,2
     e6c:	00040907          	0x40907
     e70:	0501                	addi	a0,a0,0
     e72:	0003060b          	0x3060b
     e76:	0009                	c.nop	2
     e78:	0100                	addi	s0,sp,128
     e7a:	2005                	jal	e9a <memcpy+0xb2>
     e7c:	0200                	addi	s0,sp,256
     e7e:	0204                	addi	s1,sp,256
     e80:	0306                	slli	t1,t1,0x1
     e82:	097f                	0x97f
     e84:	0002                	c.slli64	zero
     e86:	0501                	addi	a0,a0,0
     e88:	0022                	c.slli	zero,0x8
     e8a:	0402                	c.slli64	s0
     e8c:	0602                	c.slli64	a2
     e8e:	00090003          	lb	zero,0(s2)
     e92:	0100                	addi	s0,sp,128
     e94:	0905                	addi	s2,s2,1
     e96:	0306                	slli	t1,t1,0x1
     e98:	0909                	addi	s2,s2,2
     e9a:	0004                	0x4
     e9c:	0501                	addi	a0,a0,0
     e9e:	0615                	addi	a2,a2,5
     ea0:	00090003          	lb	zero,0(s2)
     ea4:	0100                	addi	s0,sp,128
     ea6:	0c05                	addi	s8,s8,1
     ea8:	06090003          	lb	zero,96(s2)
     eac:	0100                	addi	s0,sp,128
     eae:	1a05                	addi	s4,s4,-31
     eb0:	0200                	addi	s0,sp,256
     eb2:	0204                	addi	s1,sp,256
     eb4:	0306                	slli	t1,t1,0x1
     eb6:	097f                	0x97f
     eb8:	0004                	0x4
     eba:	0501                	addi	a0,a0,0
     ebc:	0309                	addi	t1,t1,2
     ebe:	00040907          	0x40907
     ec2:	0501                	addi	a0,a0,0
     ec4:	0003060b          	0x3060b
     ec8:	0009                	c.nop	2
     eca:	0100                	addi	s0,sp,128
     ecc:	2005                	jal	eec <memset+0x26>
     ece:	0200                	addi	s0,sp,256
     ed0:	0204                	addi	s1,sp,256
     ed2:	0306                	slli	t1,t1,0x1
     ed4:	097f                	0x97f
     ed6:	0002                	c.slli64	zero
     ed8:	0501                	addi	a0,a0,0
     eda:	0022                	c.slli	zero,0x8
     edc:	0402                	c.slli64	s0
     ede:	0602                	c.slli64	a2
     ee0:	00090003          	lb	zero,0(s2)
     ee4:	0100                	addi	s0,sp,128
     ee6:	1805                	addi	a6,a6,-31
     ee8:	0200                	addi	s0,sp,256
     eea:	0104                	addi	s1,sp,128
     eec:	0306                	slli	t1,t1,0x1
     eee:	0900                	addi	s0,sp,144
     ef0:	0002                	c.slli64	zero
     ef2:	0501                	addi	a0,a0,0
     ef4:	0005                	c.nop	1
     ef6:	0402                	c.slli64	s0
     ef8:	0601                	addi	a2,a2,0
     efa:	08090003          	lb	zero,128(s2)
     efe:	0100                	addi	s0,sp,128
     f00:	0c05                	addi	s8,s8,1
     f02:	04091103          	lh	sp,64(s2)
     f06:	0100                	addi	s0,sp,128
     f08:	0905                	addi	s2,s2,1
     f0a:	0306                	slli	t1,t1,0x1
     f0c:	097e                	slli	s2,s2,0x1f
     f0e:	0006                	c.slli	zero,0x1
     f10:	0501                	addi	a0,a0,0
     f12:	0616                	slli	a2,a2,0x5
     f14:	00090003          	lb	zero,0(s2)
     f18:	0100                	addi	s0,sp,128
     f1a:	0d05                	addi	s10,s10,1
     f1c:	04090003          	lb	zero,64(s2)
     f20:	0100                	addi	s0,sp,128
     f22:	1305                	addi	t1,t1,-31
     f24:	04090003          	lb	zero,64(s2)
     f28:	0100                	addi	s0,sp,128
     f2a:	0a05                	addi	s4,s4,1
     f2c:	0306                	slli	t1,t1,0x1
     f2e:	0902                	c.slli64	s2
     f30:	0006                	c.slli	zero,0x1
     f32:	0501                	addi	a0,a0,0
     f34:	060c                	addi	a1,sp,768
     f36:	00090003          	lb	zero,0(s2)
     f3a:	0100                	addi	s0,sp,128
     f3c:	0d05                	addi	s10,s10,1
     f3e:	0306                	slli	t1,t1,0x1
     f40:	0901                	addi	s2,s2,0
     f42:	0004                	0x4
     f44:	0301                	addi	t1,t1,0
     f46:	0901                	addi	s2,s2,0
     f48:	000a                	c.slli	zero,0x2
     f4a:	0501                	addi	a0,a0,0
     f4c:	0312                	slli	t1,t1,0x4
     f4e:	0900                	addi	s0,sp,144
     f50:	0000                	unimp
     f52:	0501                	addi	a0,a0,0
     f54:	0614                	addi	a3,sp,768
     f56:	00090003          	lb	zero,0(s2)
     f5a:	0100                	addi	s0,sp,128
     f5c:	1205                	addi	tp,tp,-31
     f5e:	04090003          	lb	zero,64(s2)
     f62:	0100                	addi	s0,sp,128
     f64:	0d05                	addi	s10,s10,1
     f66:	0306                	slli	t1,t1,0x1
     f68:	00040903          	lb	s2,0(s0)
     f6c:	0501                	addi	a0,a0,0
int main(){
     f6e:	0003062b          	0x3062b
    int message[48] = {1, 1, 2, 1, 1, 1, 1, 2,1, 1, 0, 1, 1, 2, 1, 0,1, 2, 0, 1, 1, 1, 1, 0,1, 1, 0, 2, 1, 2, 1, 0, 1, 1, 2, 1, 1, 1, 1, 2, 1, 1, 2, 1, 1, 1, 1, 2};
     f72:	0009                	c.nop	2
     f74:	0100                	addi	s0,sp,128
     f76:	1b05                	addi	s6,s6,-31
     f78:	04090003          	lb	zero,64(s2)
     f7c:	0100                	addi	s0,sp,128
     f7e:	0905                	addi	s2,s2,1
int main(){
     f80:	0306                	slli	t1,t1,0x1
     f82:	00040907          	0x40907
     f86:	0501                	addi	a0,a0,0
     f88:	00030613          	mv	a2,t1
     f8c:	0009                	c.nop	2
     f8e:	0100                	addi	s0,sp,128
    resultkon[0] = 0xaaaaaaa0;
     f90:	0905                	addi	s2,s2,1
     f92:	0306                	slli	t1,t1,0x1
    int message[48] = {1, 1, 2, 1, 1, 1, 1, 2,1, 1, 0, 1, 1, 2, 1, 0,1, 2, 0, 1, 1, 1, 1, 0,1, 1, 0, 2, 1, 2, 1, 0, 1, 1, 2, 1, 1, 1, 1, 2, 1, 1, 2, 1, 1, 1, 1, 2};
     f94:	0904                	addi	s1,sp,144
    resultkon[0] = 0xaaaaaaa0;
     f96:	000e                	c.slli	zero,0x3
     f98:	0501                	addi	a0,a0,0
     f9a:	0003060b          	0x3060b
     f9e:	0409                	addi	s0,s0,2
     fa0:	0100                	addi	s0,sp,128
    keys = generate_keys(N, p, q);
     fa2:	0d05                	addi	s10,s10,1
     fa4:	0306                	slli	t1,t1,0x1
     fa6:	0901                	addi	s2,s2,0
     fa8:	0004                	0x4
     faa:	0301                	addi	t1,t1,0
    resultkon[0] = 0xaaaaaaa0;
     fac:	0901                	addi	s2,s2,0
    resultkon[0] = 0xaaaaaaa1;
     fae:	0008                	0x8
     fb0:	0501                	addi	a0,a0,0
    keys = generate_keys(N, p, q);
     fb2:	0612                	slli	a2,a2,0x4
    resultkon[0] = 0xaaaaaaa1;
     fb4:	00090003          	lb	zero,0(s2)
    for(i = 0; i < N; ++i){
     fb8:	0100                	addi	s0,sp,128
     fba:	0306                	slli	t1,t1,0x1
        secret_key_f[i] = keys[i];
     fbc:	0900                	addi	s0,sp,144
     fbe:	0004                	0x4
     fc0:	0501                	addi	a0,a0,0
     fc2:	061a                	slli	a2,a2,0x6
     fc4:	00090003          	lb	zero,0(s2)
    for(i = 0; i < N; ++i){
     fc8:	0100                	addi	s0,sp,128
     fca:	1205                	addi	tp,tp,-31
     fcc:	04090003          	lb	zero,64(s2)
    for(i = N; i < (2*N); ++i){
     fd0:	0100                	addi	s0,sp,128
     fd2:	0d05                	addi	s10,s10,1
     fd4:	0306                	slli	t1,t1,0x1
     fd6:	00040903          	lb	s2,0(s0)
        secret_key_fp[i-(2*N)] = keys[i];
     fda:	0501                	addi	a0,a0,0
     fdc:	00030637          	lui	a2,0x30
     fe0:	0009                	c.nop	2
     fe2:	0100                	addi	s0,sp,128
    for(i = (2*N); i < (3*N); ++i){
     fe4:	2105                	jal	1404 <_bss_start+0x1c8>
     fe6:	04090003          	lb	zero,64(s2)
    for(i = (3*N); i < (4*N); ++i){
     fea:	0100                	addi	s0,sp,128
     fec:	1505                	addi	a0,a0,-31
     fee:	0200                	addi	s0,sp,256
     ff0:	0104                	addi	s1,sp,128
     ff2:	0306                	slli	t1,t1,0x1
        public_key[i-(4*N)] = keys[i];
     ff4:	00080907          	0x80907
     ff8:	0501                	addi	a0,a0,0
     ffa:	0009                	c.nop	2
     ffc:	0402                	c.slli64	s0
    for(i = (4*N); i < (5*N); ++i){
     ffe:	0601                	addi	a2,a2,0
    1000:	00090003          	lb	zero,0(s2)
    1004:	0100                	addi	s0,sp,128
    1006:	0305                	addi	t1,t1,1
    1008:	0306                	slli	t1,t1,0x1
        ring_poly[i-(5*N)] = keys[i];
    100a:	0905                	addi	s2,s2,1
    100c:	0004                	0x4
    100e:	0501                	addi	a0,a0,0
    1010:	0605                	addi	a2,a2,1
    1012:	00090003          	lb	zero,0(s2)
    for(i = (5*N); i < (6*N+1); ++i){
    1016:	0100                	addi	s0,sp,128
    resultkon[0] = 0xbbbbbbb0;
    1018:	0d05                	addi	s10,s10,1
    101a:	0306                	slli	t1,t1,0x1
    101c:	0901                	addi	s2,s2,0
    101e:	0004                	0x4
    Enc_Message = ntru_encyrpt(N, q, message, public_key, ring_poly);
    1020:	0301                	addi	t1,t1,0
    1022:	0901                	addi	s2,s2,0
    1024:	000a                	c.slli	zero,0x2
    1026:	0501                	addi	a0,a0,0
    resultkon[0] = 0xbbbbbbb1;
    1028:	0312                	slli	t1,t1,0x4
    102a:	0900                	addi	s0,sp,144
    Enc_Message = ntru_encyrpt(N, q, message, public_key, ring_poly);
    102c:	0000                	unimp
    102e:	0501                	addi	a0,a0,0
    resultkon[0] = 0xbbbbbbb0;
    1030:	0003061b          	0x3061b
    resultkon[0] = 0xbbbbbbb1;
    1034:	0009                	c.nop	2
    resultkon[0] = 0xccccccc0;
    1036:	0100                	addi	s0,sp,128
    1038:	1205                	addi	tp,tp,-31
    103a:	04090003          	lb	zero,64(s2)
    Enc_Message = ntru_encyrpt(N, q, message, public_key, ring_poly);
    103e:	0100                	addi	s0,sp,128
    resultkon[0] = 0xccccccc0;
    1040:	0d05                	addi	s10,s10,1
    Dec_Message = ntru_deceypt(N, p, q, secret_key_f, secret_key_fp, Enc_Message, ring_poly);
    1042:	0306                	slli	t1,t1,0x1
    1044:	00040903          	lb	s2,0(s0)
    1048:	0501                	addi	a0,a0,0
    104a:	0639                	addi	a2,a2,14
    104c:	00090003          	lb	zero,0(s2)
    1050:	0100                	addi	s0,sp,128
    1052:	2205                	jal	1172 <_endtext+0xba>
    1054:	04090003          	lb	zero,64(s2)
    resultkon[0] = 0xccccccc1;	
    1058:	0100                	addi	s0,sp,128
            resultkon[0] = 0xDEDEDEDE;
    105a:	1405                	addi	s0,s0,-31
    105c:	0200                	addi	s0,sp,256
    resultkon[0] = 0xccccccc1;	
    105e:	0104                	addi	s1,sp,128
    1060:	0306                	slli	t1,t1,0x1
            resultkon[0] = 0xDEDEDEDE;
    1062:	0906                	slli	s2,s2,0x1
    1064:	0008                	0x8
    for(i = 0; i < 32; ++i){
    1066:	0501                	addi	a0,a0,0
    1068:	0009                	c.nop	2
        if(!(message[i] == Dec_Message[i])){
    106a:	0402                	c.slli64	s0
    106c:	0601                	addi	a2,a2,0
    106e:	00090003          	lb	zero,0(s2)
    1072:	0100                	addi	s0,sp,128
    1074:	0305                	addi	t1,t1,1
    1076:	0306                	slli	t1,t1,0x1
    1078:	0904                	addi	s1,sp,144
            resultkon[0] = 0xBABABABA;
    107a:	0004                	0x4
    107c:	0501                	addi	a0,a0,0
    107e:	0605                	addi	a2,a2,1
    1080:	00090003          	lb	zero,0(s2)
}
    1084:	0100                	addi	s0,sp,128
    1086:	0d05                	addi	s10,s10,1
    1088:	0306                	slli	t1,t1,0x1
    108a:	0901                	addi	s2,s2,0
    108c:	0004                	0x4
    108e:	0301                	addi	t1,t1,0
    1090:	0901                	addi	s2,s2,0
    1092:	000a                	c.slli	zero,0x2
    1094:	0501                	addi	a0,a0,0
    1096:	0312                	slli	t1,t1,0x4
    1098:	0900                	addi	s0,sp,144
    109a:	0000                	unimp
            resultkon[0] = 0xDEDEDEDE;
    109c:	0501                	addi	a0,a0,0
    for(i = 0; i < 32; ++i){
    109e:	0614                	addi	a3,sp,768
    10a0:	00090003          	lb	zero,0(s2)
    10a4:	0100                	addi	s0,sp,128
    10a6:	1205                	addi	tp,tp,-31
    10a8:	04090003          	lb	zero,64(s2)
    10ac:	0100                	addi	s0,sp,128
    10ae:	0d05                	addi	s10,s10,1
    10b0:	0306                	slli	t1,t1,0x1
    10b2:	00040903          	lb	s2,0(s0)
    10b6:	0501                	addi	a0,a0,0
    10b8:	0003062b          	0x3062b
    10bc:	0009                	c.nop	2
    10be:	0100                	addi	s0,sp,128
    10c0:	1b05                	addi	s6,s6,-31
    10c2:	04090003          	lb	zero,64(s2)
    10c6:	0100                	addi	s0,sp,128
    10c8:	0905                	addi	s2,s2,1
    10ca:	0306                	slli	t1,t1,0x1
    10cc:	00040907          	0x40907
    10d0:	0601                	addi	a2,a2,0
    10d2:	097f8003          	lb	zero,151(t6)
    10d6:	0000                	unimp
    10d8:	0501                	addi	a0,a0,0
    10da:	001c                	0x1c
    10dc:	0402                	c.slli64	s0
    10de:	0601                	addi	a2,a2,0
    10e0:	09018003          	lb	zero,144(gp)
    10e4:	0002                	c.slli64	zero
    10e6:	0501                	addi	a0,a0,0
    10e8:	0009                	c.nop	2
    10ea:	0402                	c.slli64	s0
    10ec:	0601                	addi	a2,a2,0
    10ee:	08090003          	lb	zero,128(s2)
    10f2:	0100                	addi	s0,sp,128
    10f4:	1105                	addi	sp,sp,-31
    10f6:	0306                	slli	t1,t1,0x1
    10f8:	00080947          	fmsub.s	fs2,fa6,ft0,ft0,rne
    10fc:	0501                	addi	a0,a0,0
    10fe:	062e                	slli	a2,a2,0xb
    1100:	00090003          	lb	zero,0(s2)
    1104:	0100                	addi	s0,sp,128
    1106:	1f05                	addi	t5,t5,-31
    1108:	02090003          	lb	zero,32(s2)
    110c:	0100                	addi	s0,sp,128
    110e:	0d05                	addi	s10,s10,1
    1110:	0306                	slli	t1,t1,0x1
    1112:	0905                	addi	s2,s2,1
    1114:	0006                	c.slli	zero,0x1
    1116:	0501                	addi	a0,a0,0
    1118:	0311                	addi	t1,t1,4
    111a:	000a090b          	0xa090b
    111e:	0501                	addi	a0,a0,0
    1120:	063a                	slli	a2,a2,0xe
    1122:	00090003          	lb	zero,0(s2)
    1126:	0100                	addi	s0,sp,128
    1128:	2505                	jal	1748 <result+0x5c>
    112a:	02090003          	lb	zero,32(s2)
    112e:	0100                	addi	s0,sp,128
    1130:	0d05                	addi	s10,s10,1
    1132:	0306                	slli	t1,t1,0x1
    1134:	0905                	addi	s2,s2,1
    1136:	0006                	c.slli	zero,0x1
    1138:	0001                	nop
    113a:	0402                	c.slli64	s0
    113c:	09050303          	lb	t1,144(a0) # 19090 <_stack_start+0x9090>
    1140:	000c                	0xc
    1142:	0501                	addi	a0,a0,0
    1144:	0030                	addi	a2,sp,8
    1146:	0402                	c.slli64	s0
    1148:	00030603          	lb	a2,0(t1)
    114c:	0009                	c.nop	2
    114e:	0100                	addi	s0,sp,128
    1150:	2705                	jal	1870 <result+0x184>
    1152:	0200                	addi	s0,sp,256
    1154:	0304                	addi	s1,sp,384
    1156:	06090003          	lb	zero,96(s2)
    115a:	0100                	addi	s0,sp,128
    115c:	2105                	jal	157c <product2+0xe8>
    115e:	0200                	addi	s0,sp,256
    1160:	0304                	addi	s1,sp,384
    1162:	04097f03          	0x4097f03
    1166:	0100                	addi	s0,sp,128
    1168:	2705                	jal	1888 <result+0x19c>
    116a:	0200                	addi	s0,sp,256
    116c:	0304                	addi	s1,sp,384
    116e:	04090103          	lb	sp,64(s2)
    1172:	0100                	addi	s0,sp,128
    1174:	1905                	addi	s2,s2,-31
    1176:	0200                	addi	s0,sp,256
    1178:	0304                	addi	s1,sp,384
    117a:	02090003          	lb	zero,32(s2)
    117e:	0100                	addi	s0,sp,128
    1180:	2105                	jal	15a0 <product2+0x10c>
    1182:	0200                	addi	s0,sp,256
    1184:	0304                	addi	s1,sp,384
    1186:	0306                	slli	t1,t1,0x1
    1188:	097f                	0x97f
    118a:	0004                	0x4
    118c:	0501                	addi	a0,a0,0
    118e:	0311                	addi	t1,t1,4
    1190:	0908                	addi	a0,sp,144
    1192:	0002                	c.slli64	zero
    1194:	0501                	addi	a0,a0,0
    1196:	063c                	addi	a5,sp,776
    1198:	00090003          	lb	zero,0(s2)
    119c:	0100                	addi	s0,sp,128
    119e:	2605                	jal	14be <product2+0x2a>
    11a0:	02090003          	lb	zero,32(s2)
    11a4:	0100                	addi	s0,sp,128
    11a6:	0d05                	addi	s10,s10,1
    11a8:	0306                	slli	t1,t1,0x1
    11aa:	0905                	addi	s2,s2,1
    11ac:	0006                	c.slli	zero,0x1
    11ae:	0001                	nop
    11b0:	0402                	c.slli64	s0
    11b2:	09040303          	lb	t1,144(s0)
    11b6:	000a                	c.slli	zero,0x2
    11b8:	0501                	addi	a0,a0,0
    11ba:	001c                	0x1c
    11bc:	0402                	c.slli64	s0
    11be:	00030603          	lb	a2,0(t1)
    11c2:	0009                	c.nop	2
    11c4:	0100                	addi	s0,sp,128
    11c6:	1905                	addi	s2,s2,-31
    11c8:	0200                	addi	s0,sp,256
    11ca:	0304                	addi	s1,sp,384
    11cc:	06090003          	lb	zero,96(s2)
    11d0:	0100                	addi	s0,sp,128
    11d2:	2005                	jal	11f2 <_endtext+0x13a>
    11d4:	0200                	addi	s0,sp,256
    11d6:	0304                	addi	s1,sp,384
    11d8:	04097f03          	0x4097f03
    11dc:	0100                	addi	s0,sp,128
    11de:	1905                	addi	s2,s2,-31
    11e0:	0200                	addi	s0,sp,256
    11e2:	0304                	addi	s1,sp,384
    11e4:	04090103          	lb	sp,64(s2)
    11e8:	0100                	addi	s0,sp,128
    11ea:	1205                	addi	tp,tp,-31
    11ec:	0200                	addi	s0,sp,256
    11ee:	0304                	addi	s1,sp,384
    11f0:	02090003          	lb	zero,32(s2)
    11f4:	0100                	addi	s0,sp,128
    11f6:	2005                	jal	1216 <_endtext+0x15e>
    11f8:	0200                	addi	s0,sp,256
    11fa:	0304                	addi	s1,sp,384
    11fc:	0306                	slli	t1,t1,0x1
    11fe:	097f                	0x97f
    1200:	0004                	0x4
    1202:	0501                	addi	a0,a0,0
    1204:	0311                	addi	t1,t1,4
    1206:	00020907          	0x20907
    120a:	0501                	addi	a0,a0,0
    120c:	062e                	slli	a2,a2,0xb
    120e:	00090003          	lb	zero,0(s2)
    1212:	0100                	addi	s0,sp,128
    1214:	1f05                	addi	t5,t5,-31
    1216:	02090003          	lb	zero,32(s2)
    121a:	0100                	addi	s0,sp,128
    121c:	0d05                	addi	s10,s10,1
    121e:	0306                	slli	t1,t1,0x1
    1220:	0905                	addi	s2,s2,1
    1222:	0006                	c.slli	zero,0x1
    1224:	0301                	addi	t1,t1,0
    1226:	0905                	addi	s2,s2,1
    1228:	000a                	c.slli	zero,0x2
    122a:	0501                	addi	a0,a0,0
    122c:	0003060f          	0x3060f
    1230:	0009                	c.nop	2
    1232:	0100                	addi	s0,sp,128
    1234:	2405                	jal	1454 <_bss_start+0x218>
    1236:	0200                	addi	s0,sp,256
    1238:	0204                	addi	s1,sp,256
    123a:	0306                	slli	t1,t1,0x1
    123c:	097f                	0x97f
    123e:	0002                	c.slli64	zero
    1240:	0501                	addi	a0,a0,0
    1242:	0026                	c.slli	zero,0x9
    1244:	0402                	c.slli64	s0
    1246:	0602                	c.slli64	a2
    1248:	00090003          	lb	zero,0(s2)
    124c:	0100                	addi	s0,sp,128
    124e:	0d05                	addi	s10,s10,1
    1250:	0200                	addi	s0,sp,256
    1252:	0304                	addi	s1,sp,384
    1254:	0306                	slli	t1,t1,0x1
    1256:	0909                	addi	s2,s2,2
    1258:	0004                	0x4
    125a:	0501                	addi	a0,a0,0
    125c:	0012                	c.slli	zero,0x4
    125e:	0402                	c.slli64	s0
    1260:	00030603          	lb	a2,0(t1)
    1264:	0009                	c.nop	2
    1266:	0100                	addi	s0,sp,128
    1268:	2105                	jal	1688 <product2+0x1f4>
    126a:	0200                	addi	s0,sp,256
    126c:	0304                	addi	s1,sp,384
    126e:	0306                	slli	t1,t1,0x1
    1270:	097f                	0x97f
    1272:	000a                	c.slli	zero,0x2
    1274:	0501                	addi	a0,a0,0
    1276:	0015                	c.nop	5
    1278:	0402                	c.slli64	s0
    127a:	0301                	addi	t1,t1,0
    127c:	0900                	addi	s0,sp,144
    127e:	0002                	c.slli64	zero
    1280:	0501                	addi	a0,a0,0
    1282:	0009                	c.nop	2
    1284:	0402                	c.slli64	s0
    1286:	0601                	addi	a2,a2,0
    1288:	00090003          	lb	zero,0(s2)
    128c:	0100                	addi	s0,sp,128
    128e:	0b05                	addi	s6,s6,1
    1290:	0306                	slli	t1,t1,0x1
    1292:	04097fb7          	lui	t6,0x4097
    1296:	0100                	addi	s0,sp,128
    1298:	0306                	slli	t1,t1,0x1
    129a:	00d0                	addi	a2,sp,68
    129c:	0409                	addi	s0,s0,2
    129e:	0100                	addi	s0,sp,128
    12a0:	1305                	addi	t1,t1,-31
    12a2:	02090103          	lb	sp,32(s2)
    12a6:	0100                	addi	s0,sp,128
    12a8:	1005                	c.nop	-31
    12aa:	0200                	addi	s0,sp,256
    12ac:	0104                	addi	s1,sp,128
    12ae:	0306                	slli	t1,t1,0x1
    12b0:	097f                	0x97f
    12b2:	0008                	0x8
    12b4:	0501                	addi	a0,a0,0
    12b6:	0005                	c.nop	1
    12b8:	0402                	c.slli64	s0
    12ba:	0601                	addi	a2,a2,0
    12bc:	00090003          	lb	zero,0(s2)
    12c0:	0100                	addi	s0,sp,128
    12c2:	1b05                	addi	s6,s6,-31
    12c4:	04090303          	lb	t1,64(s2)
    12c8:	0100                	addi	s0,sp,128
    12ca:	1305                	addi	t1,t1,-31
    12cc:	04090103          	lb	sp,64(s2)
    12d0:	0100                	addi	s0,sp,128
    12d2:	1505                	addi	a0,a0,-31
    12d4:	0200                	addi	s0,sp,256
    12d6:	0104                	addi	s1,sp,128
    12d8:	0306                	slli	t1,t1,0x1
    12da:	097f                	0x97f
    12dc:	0008                	0x8
    12de:	0501                	addi	a0,a0,0
    12e0:	0005                	c.nop	1
    12e2:	0402                	c.slli64	s0
    12e4:	0601                	addi	a2,a2,0
    12e6:	00090003          	lb	zero,0(s2)
    12ea:	0100                	addi	s0,sp,128
    12ec:	0306                	slli	t1,t1,0x1
    12ee:	0904                	addi	s1,sp,144
    12f0:	0004                	0x4
    12f2:	0301                	addi	t1,t1,0
    12f4:	0902                	c.slli64	s2
    12f6:	0000                	unimp
    12f8:	0501                	addi	a0,a0,0
    12fa:	0601                	addi	a2,a2,0
    12fc:	00090103          	lb	sp,0(s2)
    1300:	0100                	addi	s0,sp,128
    1302:	0905                	addi	s2,s2,1
    1304:	0200                	addi	s0,sp,256
    1306:	0304                	addi	s1,sp,384
    1308:	0306                	slli	t1,t1,0x1
    130a:	002a0977          	0x2a0977
    130e:	0501                	addi	a0,a0,0
    1310:	04020013          	addi	zero,tp,64 # 40 <__DYNAMIC+0x40>
    1314:	00030603          	lb	a2,0(t1)
    1318:	0409                	addi	s0,s0,2
    131a:	0100                	addi	s0,sp,128
    131c:	1605                	addi	a2,a2,-31
    131e:	0200                	addi	s0,sp,256
    1320:	0304                	addi	s1,sp,384
    1322:	04090003          	lb	zero,64(s2)
    1326:	0100                	addi	s0,sp,128
    1328:	1305                	addi	t1,t1,-31
    132a:	0200                	addi	s0,sp,256
    132c:	0304                	addi	s1,sp,384
    132e:	02090003          	lb	zero,32(s2)
    1332:	0100                	addi	s0,sp,128
    1334:	1c05                	addi	s8,s8,-31
    1336:	0200                	addi	s0,sp,256
    1338:	0304                	addi	s1,sp,384
    133a:	02097f03          	0x2097f03
    133e:	0100                	addi	s0,sp,128
    1340:	1305                	addi	t1,t1,-31
    1342:	0200                	addi	s0,sp,256
    1344:	0304                	addi	s1,sp,384
    1346:	02090103          	lb	sp,32(s2)
    134a:	0100                	addi	s0,sp,128
    134c:	1c05                	addi	s8,s8,-31
    134e:	0200                	addi	s0,sp,256
    1350:	0304                	addi	s1,sp,384
    1352:	0306                	slli	t1,t1,0x1
    1354:	097f                	0x97f
    1356:	0002                	c.slli64	zero
    1358:	0501                	addi	a0,a0,0
    135a:	0009                	c.nop	2
    135c:	0402                	c.slli64	s0
    135e:	09040303          	lb	t1,144(s0)
    1362:	0002                	c.slli64	zero
    1364:	0501                	addi	a0,a0,0
    1366:	04020013          	addi	zero,tp,64 # 40 <__DYNAMIC+0x40>
    136a:	00030603          	lb	a2,0(t1)
    136e:	0009                	c.nop	2
    1370:	0100                	addi	s0,sp,128
    1372:	2505                	jal	1992 <ti_2+0x4e>
    1374:	0200                	addi	s0,sp,256
    1376:	0304                	addi	s1,sp,384
    1378:	0306                	slli	t1,t1,0x1
    137a:	097f                	0x97f
    137c:	000c                	0xc
    137e:	0501                	addi	a0,a0,0
    1380:	033c                	addi	a5,sp,392
    1382:	090a                	slli	s2,s2,0x2
    1384:	0006                	c.slli	zero,0x1
    1386:	0501                	addi	a0,a0,0
    1388:	0305                	addi	t1,t1,1
    138a:	00000903          	lb	s2,0(zero) # 0 <__DYNAMIC>
    138e:	0301                	addi	t1,t1,0
    1390:	0901                	addi	s2,s2,0
    1392:	0000                	unimp
    1394:	0301                	addi	t1,t1,0
    1396:	0901                	addi	s2,s2,0
    1398:	0000                	unimp
    139a:	0501                	addi	a0,a0,0
    139c:	0609                	addi	a2,a2,2
    139e:	00090003          	lb	zero,0(s2)
    13a2:	0100                	addi	s0,sp,128
    13a4:	3c05                	jal	dd4 <zero_loop+0x2>
    13a6:	04097b03          	0x4097b03
    13aa:	0100                	addi	s0,sp,128
    13ac:	0905                	addi	s2,s2,1
    13ae:	02090503          	lb	a0,32(s2)
    13b2:	0100                	addi	s0,sp,128
    13b4:	3c05                	jal	de4 <main_entry+0x8>
    13b6:	04097b03          	0x4097b03
    13ba:	0100                	addi	s0,sp,128
    13bc:	0905                	addi	s2,s2,1
    13be:	1c090503          	lb	a0,448(s2)
    13c2:	0100                	addi	s0,sp,128
    13c4:	06090103          	lb	sp,96(s2)
    13c8:	0100                	addi	s0,sp,128
    13ca:	06090103          	lb	sp,96(s2)
    13ce:	0100                	addi	s0,sp,128
    13d0:	06090203          	lb	tp,96(s2)
    13d4:	0100                	addi	s0,sp,128
    13d6:	06090103          	lb	sp,96(s2)
    13da:	0100                	addi	s0,sp,128
    13dc:	06090103          	lb	sp,96(s2)
    13e0:	0100                	addi	s0,sp,128
    13e2:	06090103          	lb	sp,96(s2)
    13e6:	0100                	addi	s0,sp,128
    13e8:	3c05                	jal	e18 <memcpy+0x30>
    13ea:	04097403          	0x4097403
    13ee:	0100                	addi	s0,sp,128
    13f0:	0905                	addi	s2,s2,1
    13f2:	04090503          	lb	a0,64(s2)
    13f6:	0100                	addi	s0,sp,128
    13f8:	0505                	addi	a0,a0,1
    13fa:	0306                	slli	t1,t1,0x1
    13fc:	0901                	addi	s2,s2,0
    13fe:	0004                	0x4
    1400:	0301                	addi	t1,t1,0
    1402:	0901                	addi	s2,s2,0
    1404:	0000                	unimp
    1406:	0301                	addi	t1,t1,0
    1408:	0902                	c.slli64	s2
    140a:	0000                	unimp
    140c:	0301                	addi	t1,t1,0
    140e:	0901                	addi	s2,s2,0
    1410:	0000                	unimp
    1412:	0301                	addi	t1,t1,0
    1414:	0901                	addi	s2,s2,0
    1416:	0000                	unimp
    1418:	0301                	addi	t1,t1,0
    141a:	0901                	addi	s2,s2,0
    141c:	0000                	unimp
    141e:	0501                	addi	a0,a0,0
    1420:	0609                	addi	a2,a2,2
    1422:	00090003          	lb	zero,0(s2)
    1426:	0100                	addi	s0,sp,128
    1428:	0505                	addi	a0,a0,1
    142a:	0306                	slli	t1,t1,0x1
    142c:	0901                	addi	s2,s2,0
    142e:	0002                	c.slli64	zero
    1430:	0301                	addi	t1,t1,0
    1432:	0901                	addi	s2,s2,0
    1434:	0000                	unimp
    1436:	0301                	addi	t1,t1,0
    1438:	0901                	addi	s2,s2,0
    143a:	0000                	unimp
    143c:	0301                	addi	t1,t1,0
    143e:	0901                	addi	s2,s2,0
    1440:	0000                	unimp
    1442:	0301                	addi	t1,t1,0
    1444:	0902                	c.slli64	s2
    1446:	0000                	unimp
    1448:	0301                	addi	t1,t1,0
    144a:	0901                	addi	s2,s2,0
    144c:	0000                	unimp
    144e:	0501                	addi	a0,a0,0
    1450:	060c                	addi	a1,sp,768
    1452:	02090003          	lb	zero,32(s2)
    1456:	0100                	addi	s0,sp,128
    1458:	1105                	addi	sp,sp,-31
    145a:	02090303          	lb	t1,32(s2)
    145e:	0100                	addi	s0,sp,128
    1460:	0200                	addi	s0,sp,256
    1462:	0104                	addi	s1,sp,128
    1464:	0306                	slli	t1,t1,0x1
    1466:	097d                	addi	s2,s2,31
    1468:	0008                	0x8
    146a:	0501                	addi	a0,a0,0
    146c:	0005                	c.nop	1
    146e:	0402                	c.slli64	s0
    1470:	0601                	addi	a2,a2,0
    1472:	00090003          	lb	zero,0(s2)
    1476:	0100                	addi	s0,sp,128
    1478:	0306                	slli	t1,t1,0x1
    147a:	090a                	slli	s2,s2,0x2
    147c:	0004                	0x4
    147e:	0501                	addi	a0,a0,0
    1480:	060d                	addi	a2,a2,3
    1482:	00090003          	lb	zero,0(s2)
    1486:	0100                	addi	s0,sp,128
    1488:	0505                	addi	a0,a0,1
    148a:	0306                	slli	t1,t1,0x1
    148c:	00060903          	lb	s2,0(a2) # 30000 <_stack_start+0x20000>
    1490:	0501                	addi	a0,a0,0
    1492:	0900030b          	0x900030b
    1496:	0000                	unimp
    1498:	0501                	addi	a0,a0,0
    149a:	0624                	addi	s1,sp,776
    149c:	00090b03          	lb	s6,0(s2)
    14a0:	0100                	addi	s0,sp,128
    14a2:	1905                	addi	s2,s2,-31
    14a4:	08092303          	lw	t1,128(s2)
    14a8:	0100                	addi	s0,sp,128
    14aa:	0905                	addi	s2,s2,1
    14ac:	0306                	slli	t1,t1,0x1
    14ae:	0954                	addi	a3,sp,148
    14b0:	0008                	0x8
    14b2:	0501                	addi	a0,a0,0
    14b4:	0302                	c.slli64	t1
    14b6:	0902                	c.slli64	s2
    14b8:	0000                	unimp
    14ba:	0301                	addi	t1,t1,0
    14bc:	00080903          	lb	s2,0(a6)
    14c0:	0501                	addi	a0,a0,0
    14c2:	0309                	addi	t1,t1,2
    14c4:	00080903          	lb	s2,0(a6)
    14c8:	0501                	addi	a0,a0,0
    14ca:	0003060f          	0x3060f
    14ce:	0009                	c.nop	2
    14d0:	0100                	addi	s0,sp,128
    14d2:	0905                	addi	s2,s2,1
    14d4:	0306                	slli	t1,t1,0x1
    14d6:	0901                	addi	s2,s2,0
    14d8:	000c                	0xc
    14da:	0501                	addi	a0,a0,0
    14dc:	0019                	c.nop	6
    14de:	0402                	c.slli64	s0
    14e0:	0301                	addi	t1,t1,0
    14e2:	0900                	addi	s0,sp,144
    14e4:	0004                	0x4
    14e6:	0501                	addi	a0,a0,0
    14e8:	0009                	c.nop	2
    14ea:	0402                	c.slli64	s0
    14ec:	0601                	addi	a2,a2,0
    14ee:	00090003          	lb	zero,0(s2)
    14f2:	0100                	addi	s0,sp,128
    14f4:	1005                	c.nop	-31
    14f6:	0a090603          	lb	a2,160(s2)
    14fa:	0100                	addi	s0,sp,128
    14fc:	1505                	addi	a0,a0,-31
    14fe:	0200                	addi	s0,sp,256
    1500:	0104                	addi	s1,sp,128
    1502:	0306                	slli	t1,t1,0x1
    1504:	0900                	addi	s0,sp,144
    1506:	0002                	c.slli64	zero
    1508:	0501                	addi	a0,a0,0
    150a:	0009                	c.nop	2
    150c:	0402                	c.slli64	s0
    150e:	0601                	addi	a2,a2,0
    1510:	00090003          	lb	zero,0(s2)
    1514:	0100                	addi	s0,sp,128
    1516:	0306                	slli	t1,t1,0x1
    1518:	0905                	addi	s2,s2,1
    151a:	0004                	0x4
    151c:	0301                	addi	t1,t1,0
    151e:	0902                	c.slli64	s2
    1520:	0008                	0x8
    1522:	0501                	addi	a0,a0,0
    1524:	0610                	addi	a2,sp,768
    1526:	00090003          	lb	zero,0(s2)
    152a:	0100                	addi	s0,sp,128
    152c:	0905                	addi	s2,s2,1
    152e:	0306                	slli	t1,t1,0x1
    1530:	0901                	addi	s2,s2,0
    1532:	000c                	0xc
    1534:	0501                	addi	a0,a0,0
    1536:	0610                	addi	a2,sp,768
    1538:	00090003          	lb	zero,0(s2)
    153c:	0100                	addi	s0,sp,128
    153e:	1505                	addi	a0,a0,-31
    1540:	0200                	addi	s0,sp,256
    1542:	0104                	addi	s1,sp,128
    1544:	0306                	slli	t1,t1,0x1
    1546:	0900                	addi	s0,sp,144
    1548:	0002                	c.slli64	zero
    154a:	0501                	addi	a0,a0,0
    154c:	0009                	c.nop	2
    154e:	0402                	c.slli64	s0
    1550:	0601                	addi	a2,a2,0
    1552:	00090003          	lb	zero,0(s2)
    1556:	0100                	addi	s0,sp,128
    1558:	0205                	addi	tp,tp,1
    155a:	0306                	slli	t1,t1,0x1
    155c:	0906                	slli	s2,s2,0x1
    155e:	0004                	0x4
    1560:	0501                	addi	a0,a0,0
    1562:	0309                	addi	t1,t1,2
    1564:	0905                	addi	s2,s2,1
    1566:	0008                	0x8
    1568:	0501                	addi	a0,a0,0
    156a:	0610                	addi	a2,sp,768
    156c:	00090003          	lb	zero,0(s2)
    1570:	0100                	addi	s0,sp,128
    1572:	0905                	addi	s2,s2,1
    1574:	0306                	slli	t1,t1,0x1
    1576:	0901                	addi	s2,s2,0
    1578:	000e                	c.slli	zero,0x3
    157a:	0501                	addi	a0,a0,0
    157c:	0610                	addi	a2,sp,768
    157e:	00090003          	lb	zero,0(s2)
    1582:	0100                	addi	s0,sp,128
    1584:	1505                	addi	a0,a0,-31
    1586:	0200                	addi	s0,sp,256
    1588:	0104                	addi	s1,sp,128
    158a:	0306                	slli	t1,t1,0x1
    158c:	0900                	addi	s0,sp,144
    158e:	0002                	c.slli64	zero
    1590:	0501                	addi	a0,a0,0
    1592:	0009                	c.nop	2
    1594:	0402                	c.slli64	s0
    1596:	0601                	addi	a2,a2,0
    1598:	00090003          	lb	zero,0(s2)
    159c:	0100                	addi	s0,sp,128
    159e:	0205                	addi	tp,tp,1
    15a0:	0306                	slli	t1,t1,0x1
    15a2:	0905                	addi	s2,s2,1
    15a4:	0004                	0x4
    15a6:	0501                	addi	a0,a0,0
    15a8:	0309                	addi	t1,t1,2
    15aa:	00080903          	lb	s2,0(a6)
    15ae:	0501                	addi	a0,a0,0
    15b0:	0610                	addi	a2,sp,768
    15b2:	02090003          	lb	zero,32(s2)
    15b6:	0100                	addi	s0,sp,128
    15b8:	1505                	addi	a0,a0,-31
    15ba:	0200                	addi	s0,sp,256
    15bc:	0104                	addi	s1,sp,128
    15be:	0306                	slli	t1,t1,0x1
    15c0:	0900                	addi	s0,sp,144
    15c2:	0002                	c.slli64	zero
    15c4:	0501                	addi	a0,a0,0
    15c6:	0009                	c.nop	2
    15c8:	0402                	c.slli64	s0
    15ca:	0601                	addi	a2,a2,0
    15cc:	00090003          	lb	zero,0(s2)
    15d0:	0100                	addi	s0,sp,128
    15d2:	0306                	slli	t1,t1,0x1
    15d4:	0904                	addi	s1,sp,144
    15d6:	0004                	0x4
    15d8:	0301                	addi	t1,t1,0
    15da:	0904                	addi	s1,sp,144
    15dc:	0008                	0x8
    15de:	0501                	addi	a0,a0,0
    15e0:	0612                	slli	a2,a2,0x4
    15e2:	02094d03          	lbu	s10,32(s2)
    15e6:	0100                	addi	s0,sp,128
    15e8:	1005                	c.nop	-31
    15ea:	02093303          	0x2093303
    15ee:	0100                	addi	s0,sp,128
    15f0:	1505                	addi	a0,a0,-31
    15f2:	0200                	addi	s0,sp,256
    15f4:	0104                	addi	s1,sp,128
    15f6:	0306                	slli	t1,t1,0x1
    15f8:	0900                	addi	s0,sp,144
    15fa:	0002                	c.slli64	zero
    15fc:	0501                	addi	a0,a0,0
    15fe:	0009                	c.nop	2
    1600:	0402                	c.slli64	s0
    1602:	0601                	addi	a2,a2,0
    1604:	00090003          	lb	zero,0(s2)
    1608:	0100                	addi	s0,sp,128
    160a:	0b05                	addi	s6,s6,1
    160c:	0306                	slli	t1,t1,0x1
    160e:	0004094b          	fnmsub.s	fs2,fs0,ft0,ft0,rne
    1612:	0501                	addi	a0,a0,0
    1614:	0610                	addi	a2,sp,768
    1616:	0900c003          	lbu	zero,144(ra)
    161a:	0002                	c.slli64	zero
    161c:	0301                	addi	t1,t1,0
    161e:	0901                	addi	s2,s2,0
    1620:	0002                	c.slli64	zero
    1622:	0501                	addi	a0,a0,0
    1624:	0015                	c.nop	5
    1626:	0402                	c.slli64	s0
    1628:	0601                	addi	a2,a2,0
    162a:	02097f03          	0x2097f03
    162e:	0100                	addi	s0,sp,128
    1630:	0905                	addi	s2,s2,1
    1632:	0200                	addi	s0,sp,256
    1634:	0104                	addi	s1,sp,128
    1636:	0306                	slli	t1,t1,0x1
    1638:	0900                	addi	s0,sp,144
    163a:	0000                	unimp
    163c:	0501                	addi	a0,a0,0
    163e:	0015                	c.nop	5
    1640:	0402                	c.slli64	s0
    1642:	0601                	addi	a2,a2,0
    1644:	0c090c03          	lb	s8,192(s2)
    1648:	0100                	addi	s0,sp,128
    164a:	0905                	addi	s2,s2,1
    164c:	0200                	addi	s0,sp,256
    164e:	0104                	addi	s1,sp,128
    1650:	0306                	slli	t1,t1,0x1
    1652:	0900                	addi	s0,sp,144
    1654:	0000                	unimp
    1656:	0601                	addi	a2,a2,0
    1658:	04090503          	lb	a0,64(s2)
    165c:	0100                	addi	s0,sp,128
    165e:	00090103          	lb	sp,0(s2)
    1662:	0100                	addi	s0,sp,128
    1664:	0505                	addi	a0,a0,1
    1666:	0306                	slli	t1,t1,0x1
    1668:	0901                	addi	s2,s2,0
    166a:	0000                	unimp
    166c:	0501                	addi	a0,a0,0
    166e:	0009                	c.nop	2
    1670:	0402                	c.slli64	s0
    1672:	a1030603          	lb	a2,-1520(t1)
    1676:	097f                	0x97f
    1678:	002a                	c.slli	zero,0xa
    167a:	0501                	addi	a0,a0,0
    167c:	0018                	0x18
    167e:	0402                	c.slli64	s0
    1680:	00030603          	lb	a2,0(t1)
    1684:	0009                	c.nop	2
    1686:	0100                	addi	s0,sp,128
    1688:	1105                	addi	sp,sp,-31
    168a:	0200                	addi	s0,sp,256
    168c:	0304                	addi	s1,sp,384
    168e:	04090003          	lb	zero,64(s2)
    1692:	0100                	addi	s0,sp,128
    1694:	1b05                	addi	s6,s6,-31
    1696:	0200                	addi	s0,sp,256
    1698:	0304                	addi	s1,sp,384
    169a:	08097f03          	0x8097f03
    169e:	0100                	addi	s0,sp,128
    16a0:	1105                	addi	sp,sp,-31
    16a2:	0200                	addi	s0,sp,256
    16a4:	0304                	addi	s1,sp,384
    16a6:	02090103          	lb	sp,32(s2)
    16aa:	0100                	addi	s0,sp,128
    16ac:	0905                	addi	s2,s2,1
    16ae:	0200                	addi	s0,sp,256
    16b0:	0304                	addi	s1,sp,384
    16b2:	0306                	slli	t1,t1,0x1
    16b4:	0901                	addi	s2,s2,0
    16b6:	0004                	0x4
    16b8:	0501                	addi	a0,a0,0
    16ba:	0018                	0x18
    16bc:	0402                	c.slli64	s0
    16be:	00030603          	lb	a2,0(t1)
    16c2:	0009                	c.nop	2
    16c4:	0100                	addi	s0,sp,128
    16c6:	1105                	addi	sp,sp,-31
    16c8:	0200                	addi	s0,sp,256
    16ca:	0304                	addi	s1,sp,384
    16cc:	04090003          	lb	zero,64(s2)
    16d0:	0100                	addi	s0,sp,128
    16d2:	0905                	addi	s2,s2,1
    16d4:	0200                	addi	s0,sp,256
    16d6:	0304                	addi	s1,sp,384
    16d8:	0306                	slli	t1,t1,0x1
    16da:	0901                	addi	s2,s2,0
    16dc:	000c                	0xc
    16de:	0501                	addi	a0,a0,0
    16e0:	0011                	c.nop	4
    16e2:	0402                	c.slli64	s0
    16e4:	00030603          	lb	a2,0(t1)
    16e8:	0009                	c.nop	2
    16ea:	0100                	addi	s0,sp,128
    16ec:	0905                	addi	s2,s2,1
    16ee:	0200                	addi	s0,sp,256
    16f0:	0304                	addi	s1,sp,384
    16f2:	0306                	slli	t1,t1,0x1
    16f4:	0901                	addi	s2,s2,0
    16f6:	0008                	0x8
    16f8:	0501                	addi	a0,a0,0
    16fa:	0011                	c.nop	4
    16fc:	0402                	c.slli64	s0
    16fe:	00030603          	lb	a2,0(t1)
    1702:	0009                	c.nop	2
    1704:	0100                	addi	s0,sp,128
    1706:	1b05                	addi	s6,s6,-31
    1708:	0200                	addi	s0,sp,256
    170a:	0304                	addi	s1,sp,384
    170c:	0306                	slli	t1,t1,0x1
    170e:	097c                	addi	a5,sp,156
    1710:	0008                	0x8
    1712:	0501                	addi	a0,a0,0
    1714:	000d                	c.nop	3
    1716:	0402                	c.slli64	s0
    1718:	09190303          	lb	t1,145(s2)
    171c:	0004                	0x4
    171e:	0501                	addi	a0,a0,0
    1720:	0022                	c.slli	zero,0x8
    1722:	0402                	c.slli64	s0
    1724:	00030603          	lb	a2,0(t1)
    1728:	0009                	c.nop	2
    172a:	0100                	addi	s0,sp,128
    172c:	1d05                	addi	s10,s10,-31
    172e:	0200                	addi	s0,sp,256
    1730:	0304                	addi	s1,sp,384
    1732:	06090003          	lb	zero,96(s2)
    1736:	0100                	addi	s0,sp,128
    1738:	2a05                	jal	1868 <result+0x17c>
    173a:	0200                	addi	s0,sp,256
    173c:	0304                	addi	s1,sp,384
    173e:	02097f03          	0x2097f03
    1742:	0100                	addi	s0,sp,128
    1744:	1d05                	addi	s10,s10,-31
    1746:	0200                	addi	s0,sp,256
    1748:	0304                	addi	s1,sp,384
    174a:	04090103          	lb	sp,64(s2)
    174e:	0100                	addi	s0,sp,128
    1750:	2a05                	jal	1880 <result+0x194>
    1752:	0200                	addi	s0,sp,256
    1754:	0304                	addi	s1,sp,384
    1756:	0306                	slli	t1,t1,0x1
    1758:	097f                	0x97f
    175a:	0004                	0x4
    175c:	0501                	addi	a0,a0,0
    175e:	000d                	c.nop	3
    1760:	0402                	c.slli64	s0
    1762:	09070303          	lb	t1,144(a4)
    1766:	0002                	c.slli64	zero
    1768:	0501                	addi	a0,a0,0
    176a:	0402001b          	0x402001b
    176e:	00030603          	lb	a2,0(t1)
    1772:	0009                	c.nop	2
    1774:	0100                	addi	s0,sp,128
    1776:	2305                	jal	1c96 <random_keys+0x1c2>
    1778:	0200                	addi	s0,sp,256
    177a:	0304                	addi	s1,sp,384
    177c:	04090003          	lb	zero,64(s2)
    1780:	0100                	addi	s0,sp,128
    1782:	1f05                	addi	t5,t5,-31
    1784:	0200                	addi	s0,sp,256
    1786:	0304                	addi	s1,sp,384
    1788:	04090003          	lb	zero,64(s2)
    178c:	0100                	addi	s0,sp,128
    178e:	1505                	addi	a0,a0,-31
    1790:	0200                	addi	s0,sp,256
    1792:	0304                	addi	s1,sp,384
    1794:	04090003          	lb	zero,64(s2)
    1798:	0100                	addi	s0,sp,128
    179a:	2005                	jal	17ba <result+0xce>
    179c:	0200                	addi	s0,sp,256
    179e:	0304                	addi	s1,sp,384
    17a0:	04097f03          	0x4097f03
    17a4:	0100                	addi	s0,sp,128
    17a6:	1f05                	addi	t5,t5,-31
    17a8:	0200                	addi	s0,sp,256
    17aa:	0304                	addi	s1,sp,384
    17ac:	02090103          	lb	sp,32(s2)
    17b0:	0100                	addi	s0,sp,128
    17b2:	1505                	addi	a0,a0,-31
    17b4:	0200                	addi	s0,sp,256
    17b6:	0304                	addi	s1,sp,384
    17b8:	02090003          	lb	zero,32(s2)
    17bc:	0100                	addi	s0,sp,128
    17be:	2005                	jal	17de <result+0xf2>
    17c0:	0200                	addi	s0,sp,256
    17c2:	0304                	addi	s1,sp,384
    17c4:	0306                	slli	t1,t1,0x1
    17c6:	097f                	0x97f
    17c8:	0002                	c.slli64	zero
    17ca:	0501                	addi	a0,a0,0
    17cc:	000d                	c.nop	3
    17ce:	0402                	c.slli64	s0
    17d0:	09090303          	lb	t1,144(s2)
    17d4:	0004                	0x4
    17d6:	0501                	addi	a0,a0,0
    17d8:	0402001b          	0x402001b
    17dc:	00030603          	lb	a2,0(t1)
    17e0:	0409                	addi	s0,s0,2
    17e2:	0100                	addi	s0,sp,128
    17e4:	1505                	addi	a0,a0,-31
    17e6:	0200                	addi	s0,sp,256
    17e8:	0304                	addi	s1,sp,384
    17ea:	06090003          	lb	zero,96(s2)
    17ee:	0100                	addi	s0,sp,128
    17f0:	2005                	jal	1810 <result+0x124>
    17f2:	0200                	addi	s0,sp,256
    17f4:	0304                	addi	s1,sp,384
    17f6:	02097f03          	0x2097f03
    17fa:	0100                	addi	s0,sp,128
    17fc:	1505                	addi	a0,a0,-31
    17fe:	0200                	addi	s0,sp,256
    1800:	0304                	addi	s1,sp,384
    1802:	02090103          	lb	sp,32(s2)
    1806:	0100                	addi	s0,sp,128
    1808:	2005                	jal	1828 <result+0x13c>
    180a:	0200                	addi	s0,sp,256
    180c:	0304                	addi	s1,sp,384
    180e:	0306                	slli	t1,t1,0x1
    1810:	097f                	0x97f
    1812:	0002                	c.slli64	zero
    1814:	0501                	addi	a0,a0,0
    1816:	000d                	c.nop	3
    1818:	0402                	c.slli64	s0
    181a:	090d0303          	lb	t1,144(s10)
    181e:	0002                	c.slli64	zero
    1820:	0501                	addi	a0,a0,0
    1822:	0402001b          	0x402001b
    1826:	00030603          	lb	a2,0(t1)
    182a:	0409                	addi	s0,s0,2
    182c:	0100                	addi	s0,sp,128
    182e:	1505                	addi	a0,a0,-31
    1830:	0200                	addi	s0,sp,256
    1832:	0304                	addi	s1,sp,384
    1834:	06090003          	lb	zero,96(s2)
    1838:	0100                	addi	s0,sp,128
    183a:	2005                	jal	185a <result+0x16e>
    183c:	0200                	addi	s0,sp,256
    183e:	0304                	addi	s1,sp,384
    1840:	02097f03          	0x2097f03
    1844:	0100                	addi	s0,sp,128
    1846:	1505                	addi	a0,a0,-31
    1848:	0200                	addi	s0,sp,256
    184a:	0304                	addi	s1,sp,384
    184c:	02090103          	lb	sp,32(s2)
    1850:	0100                	addi	s0,sp,128
    1852:	2005                	jal	1872 <result+0x186>
    1854:	0200                	addi	s0,sp,256
    1856:	0304                	addi	s1,sp,384
    1858:	0306                	slli	t1,t1,0x1
    185a:	097f                	0x97f
    185c:	0002                	c.slli64	zero
    185e:	0501                	addi	a0,a0,0
    1860:	000d                	c.nop	3
    1862:	0402                	c.slli64	s0
    1864:	09090303          	lb	t1,144(s2)
    1868:	0002                	c.slli64	zero
    186a:	0501                	addi	a0,a0,0
    186c:	0019                	c.nop	6
    186e:	0402                	c.slli64	s0
    1870:	00030603          	lb	a2,0(t1)
    1874:	0009                	c.nop	2
    1876:	0100                	addi	s0,sp,128
    1878:	2305                	jal	1d98 <random_keys+0x2c4>
    187a:	0200                	addi	s0,sp,256
    187c:	0304                	addi	s1,sp,384
    187e:	04090003          	lb	zero,64(s2)
    1882:	0100                	addi	s0,sp,128
    1884:	1d05                	addi	s10,s10,-31
    1886:	0200                	addi	s0,sp,256
    1888:	0304                	addi	s1,sp,384
    188a:	04090003          	lb	zero,64(s2)
    188e:	0100                	addi	s0,sp,128
    1890:	1305                	addi	t1,t1,-31
    1892:	0200                	addi	s0,sp,256
    1894:	0304                	addi	s1,sp,384
    1896:	04090003          	lb	zero,64(s2)
    189a:	0100                	addi	s0,sp,128
    189c:	2005                	jal	18bc <result+0x1d0>
    189e:	0200                	addi	s0,sp,256
    18a0:	0304                	addi	s1,sp,384
    18a2:	04097f03          	0x4097f03
    18a6:	0100                	addi	s0,sp,128
    18a8:	1d05                	addi	s10,s10,-31
    18aa:	0200                	addi	s0,sp,256
    18ac:	0304                	addi	s1,sp,384
    18ae:	02090103          	lb	sp,32(s2)
    18b2:	0100                	addi	s0,sp,128
    18b4:	1305                	addi	t1,t1,-31
    18b6:	0200                	addi	s0,sp,256
    18b8:	0304                	addi	s1,sp,384
    18ba:	02090003          	lb	zero,32(s2)
    18be:	0100                	addi	s0,sp,128
    18c0:	2005                	jal	18e0 <result+0x1f4>
    18c2:	0200                	addi	s0,sp,256
    18c4:	0304                	addi	s1,sp,384
    18c6:	0306                	slli	t1,t1,0x1
    18c8:	097f                	0x97f
    18ca:	0002                	c.slli64	zero
    18cc:	0501                	addi	a0,a0,0
    18ce:	000d                	c.nop	3
    18d0:	0402                	c.slli64	s0
    18d2:	09090303          	lb	t1,144(s2)
    18d6:	0004                	0x4
    18d8:	0501                	addi	a0,a0,0
    18da:	0015                	c.nop	5
    18dc:	0402                	c.slli64	s0
    18de:	00030603          	lb	a2,0(t1)
    18e2:	0409                	addi	s0,s0,2
    18e4:	0100                	addi	s0,sp,128
    18e6:	2005                	jal	1906 <result+0x21a>
    18e8:	0200                	addi	s0,sp,256
    18ea:	0304                	addi	s1,sp,384
    18ec:	06097f03          	0x6097f03
    18f0:	0100                	addi	s0,sp,128
    18f2:	1505                	addi	a0,a0,-31
    18f4:	0200                	addi	s0,sp,256
    18f6:	0304                	addi	s1,sp,384
    18f8:	02090103          	lb	sp,32(s2)
    18fc:	0100                	addi	s0,sp,128
    18fe:	0d05                	addi	s10,s10,1
    1900:	0200                	addi	s0,sp,256
    1902:	0304                	addi	s1,sp,384
    1904:	0306                	slli	t1,t1,0x1
    1906:	0901                	addi	s2,s2,0
    1908:	0002                	c.slli64	zero
    190a:	0501                	addi	a0,a0,0
    190c:	0019                	c.nop	6
    190e:	0402                	c.slli64	s0
    1910:	00030603          	lb	a2,0(t1)
    1914:	0009                	c.nop	2
    1916:	0100                	addi	s0,sp,128
    1918:	1505                	addi	a0,a0,-31
    191a:	0200                	addi	s0,sp,256
    191c:	0304                	addi	s1,sp,384
    191e:	06090103          	lb	sp,96(s2)
    1922:	0100                	addi	s0,sp,128
    1924:	0200                	addi	s0,sp,256
    1926:	0304                	addi	s1,sp,384
    1928:	04097f03          	0x4097f03
    192c:	0100                	addi	s0,sp,128
    192e:	0d05                	addi	s10,s10,1
    1930:	0200                	addi	s0,sp,256
    1932:	0304                	addi	s1,sp,384
    1934:	0306                	slli	t1,t1,0x1
    1936:	0901                	addi	s2,s2,0
    1938:	0002                	c.slli64	zero
    193a:	0501                	addi	a0,a0,0
    193c:	0015                	c.nop	5
    193e:	0402                	c.slli64	s0
    1940:	00030603          	lb	a2,0(t1)
    1944:	0409                	addi	s0,s0,2
    1946:	0100                	addi	s0,sp,128
    1948:	1605                	addi	a2,a2,-31
    194a:	0200                	addi	s0,sp,256
    194c:	0304                	addi	s1,sp,384
    194e:	04090303          	lb	t1,64(s2)
    1952:	0100                	addi	s0,sp,128
    1954:	1505                	addi	a0,a0,-31
    1956:	0200                	addi	s0,sp,256
    1958:	0304                	addi	s1,sp,384
    195a:	02097d03          	0x2097d03
    195e:	0100                	addi	s0,sp,128
    1960:	0d05                	addi	s10,s10,1
    1962:	0200                	addi	s0,sp,256
    1964:	0304                	addi	s1,sp,384
    1966:	0306                	slli	t1,t1,0x1
    1968:	0901                	addi	s2,s2,0
    196a:	0004                	0x4
    196c:	0501                	addi	a0,a0,0
    196e:	0019                	c.nop	6
    1970:	0402                	c.slli64	s0
    1972:	00030603          	lb	a2,0(t1)
    1976:	0009                	c.nop	2
    1978:	0100                	addi	s0,sp,128
    197a:	1505                	addi	a0,a0,-31
    197c:	0200                	addi	s0,sp,256
    197e:	0304                	addi	s1,sp,384
    1980:	04090003          	lb	zero,64(s2)
    1984:	0100                	addi	s0,sp,128
    1986:	0d05                	addi	s10,s10,1
    1988:	0200                	addi	s0,sp,256
    198a:	0304                	addi	s1,sp,384
    198c:	0306                	slli	t1,t1,0x1
    198e:	0901                	addi	s2,s2,0
    1990:	0004                	0x4
    1992:	0501                	addi	a0,a0,0
    1994:	0015                	c.nop	5
    1996:	0402                	c.slli64	s0
    1998:	00030603          	lb	a2,0(t1)
    199c:	0009                	c.nop	2
    199e:	0100                	addi	s0,sp,128
    19a0:	0d05                	addi	s10,s10,1
    19a2:	0200                	addi	s0,sp,256
    19a4:	0304                	addi	s1,sp,384
    19a6:	0306                	slli	t1,t1,0x1
    19a8:	0901                	addi	s2,s2,0
    19aa:	0008                	0x8
    19ac:	0501                	addi	a0,a0,0
    19ae:	0020                	addi	s0,sp,8
    19b0:	0402                	c.slli64	s0
    19b2:	097a0303          	lb	t1,151(s4)
    19b6:	0000                	unimp
    19b8:	0501                	addi	a0,a0,0
    19ba:	030d                	addi	t1,t1,3
    19bc:	090c                	addi	a1,sp,144
    19be:	0004                	0x4
    19c0:	0501                	addi	a0,a0,0
    19c2:	0003061b          	0x3061b
    19c6:	0009                	c.nop	2
    19c8:	0100                	addi	s0,sp,128
    19ca:	2005                	jal	19ea <ti_2+0xa6>
    19cc:	08090003          	lb	zero,128(s2)
    19d0:	0100                	addi	s0,sp,128
    19d2:	1005                	c.nop	-31
    19d4:	04090003          	lb	zero,64(s2)
    19d8:	0100                	addi	s0,sp,128
    19da:	1e05                	addi	t3,t3,-31
    19dc:	0200                	addi	s0,sp,256
    19de:	0204                	addi	s1,sp,256
    19e0:	0306                	slli	t1,t1,0x1
    19e2:	097f                	0x97f
    19e4:	0004                	0x4
    19e6:	0501                	addi	a0,a0,0
    19e8:	000d                	c.nop	3
    19ea:	0402                	c.slli64	s0
    19ec:	090d0303          	lb	t1,144(s10)
    19f0:	0004                	0x4
    19f2:	0501                	addi	a0,a0,0
    19f4:	0020                	addi	s0,sp,8
    19f6:	0402                	c.slli64	s0
    19f8:	00030603          	lb	a2,0(t1)
    19fc:	0009                	c.nop	2
    19fe:	0100                	addi	s0,sp,128
    1a00:	0200                	addi	s0,sp,256
    1a02:	0304                	addi	s1,sp,384
    1a04:	02097f03          	0x2097f03
    1a08:	0100                	addi	s0,sp,128
    1a0a:	0200                	addi	s0,sp,256
    1a0c:	0304                	addi	s1,sp,384
    1a0e:	04090103          	lb	sp,64(s2)
    1a12:	0100                	addi	s0,sp,128
    1a14:	2505                	jal	2034 <_min_stack+0x34>
    1a16:	0200                	addi	s0,sp,256
    1a18:	0304                	addi	s1,sp,384
    1a1a:	04090003          	lb	zero,64(s2)
    1a1e:	0100                	addi	s0,sp,128
    1a20:	1505                	addi	a0,a0,-31
    1a22:	0200                	addi	s0,sp,256
    1a24:	0304                	addi	s1,sp,384
    1a26:	04090003          	lb	zero,64(s2)
    1a2a:	0100                	addi	s0,sp,128
    1a2c:	2005                	jal	1a4c <ti_2+0x108>
    1a2e:	0200                	addi	s0,sp,256
    1a30:	0304                	addi	s1,sp,384
    1a32:	0306                	slli	t1,t1,0x1
    1a34:	097f                	0x97f
    1a36:	0004                	0x4
    1a38:	0501                	addi	a0,a0,0
    1a3a:	0328                	addi	a0,sp,392
    1a3c:	090c                	addi	a1,sp,144
    1a3e:	0002                	c.slli64	zero
    1a40:	0501                	addi	a0,a0,0
    1a42:	0305                	addi	t1,t1,1
    1a44:	00000903          	lb	s2,0(zero) # 0 <__DYNAMIC>
    1a48:	0501                	addi	a0,a0,0
    1a4a:	0628                	addi	a0,sp,776
    1a4c:	00097d03          	0x97d03
    1a50:	0100                	addi	s0,sp,128
    1a52:	36090003          	lb	zero,864(s2)
    1a56:	0100                	addi	s0,sp,128
    1a58:	0905                	addi	s2,s2,1
    1a5a:	04090303          	lb	t1,64(s2)
    1a5e:	0100                	addi	s0,sp,128
    1a60:	10090103          	lb	sp,256(s2)
    1a64:	0100                	addi	s0,sp,128
    1a66:	0a097f03          	0xa097f03
    1a6a:	0100                	addi	s0,sp,128
    1a6c:	0505                	addi	a0,a0,1
    1a6e:	0306                	slli	t1,t1,0x1
    1a70:	0901                	addi	s2,s2,0
    1a72:	006c                	addi	a1,sp,12
    1a74:	0501                	addi	a0,a0,0
    1a76:	0610                	addi	a2,sp,768
    1a78:	00090603          	lb	a2,0(s2)
    1a7c:	0100                	addi	s0,sp,128
    1a7e:	0905                	addi	s2,s2,1
    1a80:	04097a03          	0x4097a03
    1a84:	0100                	addi	s0,sp,128
    1a86:	02090603          	lb	a2,32(s2)
    1a8a:	0100                	addi	s0,sp,128
    1a8c:	0e05                	addi	t3,t3,1
    1a8e:	0e090503          	lb	a0,224(s2)
    1a92:	0100                	addi	s0,sp,128
    1a94:	0905                	addi	s2,s2,1
    1a96:	0a097503          	0xa097503
    1a9a:	0100                	addi	s0,sp,128
    1a9c:	0505                	addi	a0,a0,1
    1a9e:	0306                	slli	t1,t1,0x1
    1aa0:	0902                	c.slli64	s2
    1aa2:	0064                	addi	s1,sp,12
    1aa4:	0301                	addi	t1,t1,0
    1aa6:	0901                	addi	s2,s2,0
    1aa8:	0000                	unimp
    1aaa:	0301                	addi	t1,t1,0
    1aac:	0901                	addi	s2,s2,0
    1aae:	0000                	unimp
    1ab0:	0301                	addi	t1,t1,0
    1ab2:	0901                	addi	s2,s2,0
    1ab4:	0000                	unimp
    1ab6:	0301                	addi	t1,t1,0
    1ab8:	0901                	addi	s2,s2,0
    1aba:	0000                	unimp
    1abc:	0301                	addi	t1,t1,0
    1abe:	0901                	addi	s2,s2,0
    1ac0:	0000                	unimp
    1ac2:	0301                	addi	t1,t1,0
    1ac4:	0901                	addi	s2,s2,0
    1ac6:	0000                	unimp
    1ac8:	0301                	addi	t1,t1,0
    1aca:	00000903          	lb	s2,0(zero) # 0 <__DYNAMIC>
    1ace:	0301                	addi	t1,t1,0
    1ad0:	0901                	addi	s2,s2,0
    1ad2:	0000                	unimp
    1ad4:	0501                	addi	a0,a0,0
    1ad6:	060e                	slli	a2,a2,0x3
    1ad8:	00090003          	lb	zero,0(s2)
    1adc:	0100                	addi	s0,sp,128
    1ade:	0505                	addi	a0,a0,1
    1ae0:	0306                	slli	t1,t1,0x1
    1ae2:	0902                	c.slli64	s2
    1ae4:	0004                	0x4
    1ae6:	0501                	addi	a0,a0,0
    1ae8:	0003060b          	0x3060b
    1aec:	0009                	c.nop	2
    1aee:	0100                	addi	s0,sp,128
    1af0:	1005                	c.nop	-31
    1af2:	0200                	addi	s0,sp,256
    1af4:	0104                	addi	s1,sp,128
    1af6:	0306                	slli	t1,t1,0x1
    1af8:	0900                	addi	s0,sp,144
    1afa:	0002                	c.slli64	zero
    1afc:	0501                	addi	a0,a0,0
    1afe:	0005                	c.nop	1
    1b00:	0402                	c.slli64	s0
    1b02:	0601                	addi	a2,a2,0
    1b04:	00090003          	lb	zero,0(s2)
    1b08:	0100                	addi	s0,sp,128
    1b0a:	06090603          	lb	a2,96(s2)
    1b0e:	0100                	addi	s0,sp,128
    1b10:	1105                	addi	sp,sp,-31
    1b12:	0200                	addi	s0,sp,256
    1b14:	0104                	addi	s1,sp,128
    1b16:	0306                	slli	t1,t1,0x1
    1b18:	0900                	addi	s0,sp,144
    1b1a:	0004                	0x4
    1b1c:	0501                	addi	a0,a0,0
    1b1e:	0005                	c.nop	1
    1b20:	0402                	c.slli64	s0
    1b22:	0601                	addi	a2,a2,0
    1b24:	00090003          	lb	zero,0(s2)
    1b28:	0100                	addi	s0,sp,128
    1b2a:	0b05                	addi	s6,s6,1
    1b2c:	04090703          	lb	a4,64(s2)
    1b30:	0100                	addi	s0,sp,128
    1b32:	1805                	addi	a6,a6,-31
    1b34:	02090103          	lb	sp,32(s2)
    1b38:	0100                	addi	s0,sp,128
    1b3a:	1005                	c.nop	-31
    1b3c:	0200                	addi	s0,sp,256
    1b3e:	0104                	addi	s1,sp,128
    1b40:	0306                	slli	t1,t1,0x1
    1b42:	097f                	0x97f
    1b44:	0008                	0x8
    1b46:	0501                	addi	a0,a0,0
    1b48:	0005                	c.nop	1
    1b4a:	0402                	c.slli64	s0
    1b4c:	0601                	addi	a2,a2,0
    1b4e:	00090003          	lb	zero,0(s2)
    1b52:	0100                	addi	s0,sp,128
    1b54:	1605                	addi	a2,a2,-31
    1b56:	08090503          	lb	a0,128(s2)
    1b5a:	0100                	addi	s0,sp,128
    1b5c:	1805                	addi	a6,a6,-31
    1b5e:	08090103          	lb	sp,128(s2)
    1b62:	0100                	addi	s0,sp,128
    1b64:	1005                	c.nop	-31
    1b66:	0200                	addi	s0,sp,256
    1b68:	0104                	addi	s1,sp,128
    1b6a:	0306                	slli	t1,t1,0x1
    1b6c:	097f                	0x97f
    1b6e:	0008                	0x8
    1b70:	0501                	addi	a0,a0,0
    1b72:	0005                	c.nop	1
    1b74:	0402                	c.slli64	s0
    1b76:	0601                	addi	a2,a2,0
    1b78:	00090003          	lb	zero,0(s2)
    1b7c:	0100                	addi	s0,sp,128
    1b7e:	0306                	slli	t1,t1,0x1
    1b80:	0905                	addi	s2,s2,1
    1b82:	0004                	0x4
    1b84:	0501                	addi	a0,a0,0
    1b86:	061a                	slli	a2,a2,0x6
    1b88:	00090303          	lb	t1,0(s2)
    1b8c:	0100                	addi	s0,sp,128
    1b8e:	0a05                	addi	s4,s4,1
    1b90:	06097d03          	0x6097d03
    1b94:	0100                	addi	s0,sp,128
    1b96:	0505                	addi	a0,a0,1
    1b98:	0306                	slli	t1,t1,0x1
    1b9a:	000c0903          	lb	s2,0(s8) # 19000 <_stack_start+0x9000>
    1b9e:	0501                	addi	a0,a0,0
    1ba0:	0618                	addi	a4,sp,768
    1ba2:	02090103          	lb	sp,32(s2)
    1ba6:	0100                	addi	s0,sp,128
    1ba8:	1405                	addi	s0,s0,-31
    1baa:	0200                	addi	s0,sp,256
    1bac:	0104                	addi	s1,sp,128
    1bae:	0306                	slli	t1,t1,0x1
    1bb0:	097f                	0x97f
    1bb2:	0008                	0x8
    1bb4:	0501                	addi	a0,a0,0
    1bb6:	0005                	c.nop	1
    1bb8:	0402                	c.slli64	s0
    1bba:	0601                	addi	a2,a2,0
    1bbc:	00090003          	lb	zero,0(s2)
    1bc0:	0100                	addi	s0,sp,128
    1bc2:	0306                	slli	t1,t1,0x1
    1bc4:	0906                	slli	s2,s2,0x1
    1bc6:	0004                	0x4
    1bc8:	0501                	addi	a0,a0,0
    1bca:	060a                	slli	a2,a2,0x2
    1bcc:	00090003          	lb	zero,0(s2)
    1bd0:	0100                	addi	s0,sp,128
    1bd2:	0505                	addi	a0,a0,1
    1bd4:	0306                	slli	t1,t1,0x1
    1bd6:	0904                	addi	s1,sp,144
    1bd8:	000c                	0xc
    1bda:	0501                	addi	a0,a0,0
    1bdc:	061a                	slli	a2,a2,0x6
    1bde:	06090003          	lb	zero,96(s2)
    1be2:	0100                	addi	s0,sp,128
    1be4:	1805                	addi	a6,a6,-31
    1be6:	02090103          	lb	sp,32(s2)
    1bea:	0100                	addi	s0,sp,128
    1bec:	1405                	addi	s0,s0,-31
    1bee:	0200                	addi	s0,sp,256
    1bf0:	0104                	addi	s1,sp,128
    1bf2:	0306                	slli	t1,t1,0x1
    1bf4:	097f                	0x97f
    1bf6:	0008                	0x8
    1bf8:	0501                	addi	a0,a0,0
    1bfa:	0005                	c.nop	1
    1bfc:	0402                	c.slli64	s0
    1bfe:	0601                	addi	a2,a2,0
    1c00:	00090003          	lb	zero,0(s2)
    1c04:	0100                	addi	s0,sp,128
    1c06:	0306                	slli	t1,t1,0x1
    1c08:	0905                	addi	s2,s2,1
    1c0a:	0004                	0x4
    1c0c:	0501                	addi	a0,a0,0
    1c0e:	060a                	slli	a2,a2,0x2
    1c10:	00090003          	lb	zero,0(s2)
    1c14:	0100                	addi	s0,sp,128
    1c16:	0505                	addi	a0,a0,1
    1c18:	0306                	slli	t1,t1,0x1
    1c1a:	000c0903          	lb	s2,0(s8)
    1c1e:	0501                	addi	a0,a0,0
    1c20:	0003060b          	0x3060b
    1c24:	0209                	addi	tp,tp,2
    1c26:	0100                	addi	s0,sp,128
    1c28:	1805                	addi	a6,a6,-31
    1c2a:	02090003          	lb	zero,32(s2)
    1c2e:	0100                	addi	s0,sp,128
    1c30:	1005                	c.nop	-31
    1c32:	0200                	addi	s0,sp,256
    1c34:	0104                	addi	s1,sp,128
    1c36:	0306                	slli	t1,t1,0x1
    1c38:	0900                	addi	s0,sp,144
    1c3a:	0004                	0x4
    1c3c:	0501                	addi	a0,a0,0
    1c3e:	0005                	c.nop	1
    1c40:	0402                	c.slli64	s0
    1c42:	0601                	addi	a2,a2,0
    1c44:	00090003          	lb	zero,0(s2)
    1c48:	0100                	addi	s0,sp,128
    1c4a:	0306                	slli	t1,t1,0x1
    1c4c:	0906                	slli	s2,s2,0x1
    1c4e:	0004                	0x4
    1c50:	0501                	addi	a0,a0,0
    1c52:	060a                	slli	a2,a2,0x2
    1c54:	00090003          	lb	zero,0(s2)
    1c58:	0100                	addi	s0,sp,128
    1c5a:	0505                	addi	a0,a0,1
    1c5c:	0306                	slli	t1,t1,0x1
    1c5e:	0904                	addi	s1,sp,144
    1c60:	0008                	0x8
    1c62:	0501                	addi	a0,a0,0
    1c64:	061a                	slli	a2,a2,0x6
    1c66:	00090003          	lb	zero,0(s2)
    1c6a:	0100                	addi	s0,sp,128
    1c6c:	1805                	addi	a6,a6,-31
    1c6e:	0a090103          	lb	sp,160(s2)
    1c72:	0100                	addi	s0,sp,128
    1c74:	1405                	addi	s0,s0,-31
    1c76:	0200                	addi	s0,sp,256
    1c78:	0104                	addi	s1,sp,128
    1c7a:	0306                	slli	t1,t1,0x1
    1c7c:	097f                	0x97f
    1c7e:	0008                	0x8
    1c80:	0501                	addi	a0,a0,0
    1c82:	0005                	c.nop	1
    1c84:	0402                	c.slli64	s0
    1c86:	0601                	addi	a2,a2,0
    1c88:	02090003          	lb	zero,32(s2)
    1c8c:	0100                	addi	s0,sp,128
    1c8e:	1a05                	addi	s4,s4,-31
    1c90:	04090503          	lb	a0,64(s2)
    1c94:	0100                	addi	s0,sp,128
    1c96:	1805                	addi	a6,a6,-31
    1c98:	04090103          	lb	sp,64(s2)
    1c9c:	0100                	addi	s0,sp,128
    1c9e:	1a05                	addi	s4,s4,-31
    1ca0:	08097f03          	0x8097f03
    1ca4:	0100                	addi	s0,sp,128
    1ca6:	1405                	addi	s0,s0,-31
    1ca8:	0200                	addi	s0,sp,256
    1caa:	0104                	addi	s1,sp,128
    1cac:	0306                	slli	t1,t1,0x1
    1cae:	0900                	addi	s0,sp,144
    1cb0:	0008                	0x8
    1cb2:	0501                	addi	a0,a0,0
    1cb4:	0005                	c.nop	1
    1cb6:	0402                	c.slli64	s0
    1cb8:	0601                	addi	a2,a2,0
    1cba:	00090003          	lb	zero,0(s2)
    1cbe:	0100                	addi	s0,sp,128
    1cc0:	0306                	slli	t1,t1,0x1
    1cc2:	0906                	slli	s2,s2,0x1
    1cc4:	0004                	0x4
    1cc6:	0301                	addi	t1,t1,0
    1cc8:	0902                	c.slli64	s2
    1cca:	0000                	unimp
    1ccc:	0501                	addi	a0,a0,0
    1cce:	0601                	addi	a2,a2,0
    1cd0:	00090103          	lb	sp,0(s2)
    1cd4:	0100                	addi	s0,sp,128
    1cd6:	0905                	addi	s2,s2,1
    1cd8:	0200                	addi	s0,sp,256
    1cda:	0304                	addi	s1,sp,384
    1cdc:	0306                	slli	t1,t1,0x1
    1cde:	7fbd                	lui	t6,0xfffef
    1ce0:	4009                	c.li	zero,2
    1ce2:	0100                	addi	s0,sp,128
    1ce4:	1205                	addi	tp,tp,-31
    1ce6:	0200                	addi	s0,sp,256
    1ce8:	0304                	addi	s1,sp,384
    1cea:	0306                	slli	t1,t1,0x1
    1cec:	0900                	addi	s0,sp,144
    1cee:	0000                	unimp
    1cf0:	0501                	addi	a0,a0,0
    1cf2:	04020017          	auipc	zero,0x4020
    1cf6:	7f030603          	lb	a2,2032(t1)
    1cfa:	0a09                	addi	s4,s4,2
    1cfc:	0100                	addi	s0,sp,128
    1cfe:	0905                	addi	s2,s2,1
    1d00:	0200                	addi	s0,sp,256
    1d02:	0304                	addi	s1,sp,384
    1d04:	04090703          	lb	a4,64(s2)
    1d08:	0100                	addi	s0,sp,128
    1d0a:	0e05                	addi	t3,t3,1
    1d0c:	0200                	addi	s0,sp,256
    1d0e:	0304                	addi	s1,sp,384
    1d10:	0306                	slli	t1,t1,0x1
    1d12:	0900                	addi	s0,sp,144
    1d14:	0004                	0x4
    1d16:	0501                	addi	a0,a0,0
    1d18:	0009                	c.nop	2
    1d1a:	0402                	c.slli64	s0
    1d1c:	01030603          	lb	a2,16(t1)
    1d20:	0a09                	addi	s4,s4,2
    1d22:	0100                	addi	s0,sp,128
    1d24:	0e05                	addi	t3,t3,1
    1d26:	0200                	addi	s0,sp,256
    1d28:	0304                	addi	s1,sp,384
    1d2a:	0306                	slli	t1,t1,0x1
    1d2c:	0900                	addi	s0,sp,144
    1d2e:	0000                	unimp
    1d30:	0501                	addi	a0,a0,0
    1d32:	0019                	c.nop	6
    1d34:	0402                	c.slli64	s0
    1d36:	7e030603          	lb	a2,2016(t1)
    1d3a:	0a09                	addi	s4,s4,2
    1d3c:	0100                	addi	s0,sp,128
    1d3e:	0905                	addi	s2,s2,1
    1d40:	0200                	addi	s0,sp,256
    1d42:	0304                	addi	s1,sp,384
    1d44:	04090803          	lb	a6,64(s2)
    1d48:	0100                	addi	s0,sp,128
    1d4a:	1b05                	addi	s6,s6,-31
    1d4c:	0200                	addi	s0,sp,256
    1d4e:	0304                	addi	s1,sp,384
    1d50:	0306                	slli	t1,t1,0x1
    1d52:	0900                	addi	s0,sp,144
    1d54:	0004                	0x4
    1d56:	0501                	addi	a0,a0,0
    1d58:	0018                	0x18
    1d5a:	0402                	c.slli64	s0
    1d5c:	09000303          	lb	t1,144(zero) # 90 <instr_mod+0x4>
    1d60:	0004                	0x4
    1d62:	0501                	addi	a0,a0,0
    1d64:	0402001b          	0x402001b
    1d68:	09000303          	lb	t1,144(zero) # 90 <instr_mod+0x4>
    1d6c:	0004                	0x4
    1d6e:	0501                	addi	a0,a0,0
    1d70:	0018                	0x18
    1d72:	0402                	c.slli64	s0
    1d74:	09000303          	lb	t1,144(zero) # 90 <instr_mod+0x4>
    1d78:	0002                	c.slli64	zero
    1d7a:	0501                	addi	a0,a0,0
    1d7c:	04020017          	auipc	zero,0x4020
    1d80:	097f0303          	lb	t1,151(t5)
    1d84:	0002                	c.slli64	zero
    1d86:	0501                	addi	a0,a0,0
    1d88:	0018                	0x18
    1d8a:	0402                	c.slli64	s0
    1d8c:	09010303          	lb	t1,144(sp)
    1d90:	0002                	c.slli64	zero
    1d92:	0501                	addi	a0,a0,0
    1d94:	04020017          	auipc	zero,0x4020
    1d98:	7f030603          	lb	a2,2032(t1)
    1d9c:	0209                	addi	tp,tp,2
    1d9e:	0100                	addi	s0,sp,128
    1da0:	0905                	addi	s2,s2,1
    1da2:	0200                	addi	s0,sp,256
    1da4:	0304                	addi	s1,sp,384
    1da6:	02090603          	lb	a2,32(s2)
    1daa:	0100                	addi	s0,sp,128
    1dac:	1805                	addi	a6,a6,-31
    1dae:	0200                	addi	s0,sp,256
    1db0:	0304                	addi	s1,sp,384
    1db2:	0306                	slli	t1,t1,0x1
    1db4:	0900                	addi	s0,sp,144
    1db6:	0000                	unimp
    1db8:	0501                	addi	a0,a0,0
    1dba:	0402001b          	0x402001b
    1dbe:	7f030603          	lb	a2,2032(t1)
    1dc2:	0a09                	addi	s4,s4,2
    1dc4:	0100                	addi	s0,sp,128
    1dc6:	0905                	addi	s2,s2,1
    1dc8:	0200                	addi	s0,sp,256
    1dca:	0304                	addi	s1,sp,384
    1dcc:	06090903          	lb	s2,96(s2)
    1dd0:	0100                	addi	s0,sp,128
    1dd2:	1c05                	addi	s8,s8,-31
    1dd4:	0200                	addi	s0,sp,256
    1dd6:	0304                	addi	s1,sp,384
    1dd8:	0306                	slli	t1,t1,0x1
    1dda:	0900                	addi	s0,sp,144
    1ddc:	0000                	unimp
    1dde:	0501                	addi	a0,a0,0
    1de0:	0018                	0x18
    1de2:	0402                	c.slli64	s0
    1de4:	09000303          	lb	t1,144(zero) # 90 <instr_mod+0x4>
    1de8:	0002                	c.slli64	zero
    1dea:	0501                	addi	a0,a0,0
    1dec:	001f 0402 0603      	0x6030402001f
    1df2:	08097f03          	0x8097f03
    1df6:	0100                	addi	s0,sp,128
    1df8:	0905                	addi	s2,s2,1
    1dfa:	0200                	addi	s0,sp,256
    1dfc:	0304                	addi	s1,sp,384
    1dfe:	06090b03          	lb	s6,96(s2)
    1e02:	0100                	addi	s0,sp,128
    1e04:	1c05                	addi	s8,s8,-31
    1e06:	0200                	addi	s0,sp,256
    1e08:	0304                	addi	s1,sp,384
    1e0a:	0306                	slli	t1,t1,0x1
    1e0c:	0900                	addi	s0,sp,144
    1e0e:	0004                	0x4
    1e10:	0501                	addi	a0,a0,0
    1e12:	0018                	0x18
    1e14:	0402                	c.slli64	s0
    1e16:	09000303          	lb	t1,144(zero) # 90 <instr_mod+0x4>
    1e1a:	0008                	0x8
    1e1c:	0501                	addi	a0,a0,0
    1e1e:	001f 0402 0303      	0x3030402001f
    1e24:	097f                	0x97f
    1e26:	0002                	c.slli64	zero
    1e28:	0501                	addi	a0,a0,0
    1e2a:	0018                	0x18
    1e2c:	0402                	c.slli64	s0
    1e2e:	09010303          	lb	t1,144(sp)
    1e32:	0002                	c.slli64	zero
    1e34:	0501                	addi	a0,a0,0
    1e36:	001f 0402 0603      	0x6030402001f
    1e3c:	02097f03          	0x2097f03
    1e40:	0100                	addi	s0,sp,128
    1e42:	0905                	addi	s2,s2,1
    1e44:	0200                	addi	s0,sp,256
    1e46:	0304                	addi	s1,sp,384
    1e48:	02090903          	lb	s2,32(s2)
    1e4c:	0100                	addi	s0,sp,128
    1e4e:	1605                	addi	a2,a2,-31
    1e50:	0200                	addi	s0,sp,256
    1e52:	0304                	addi	s1,sp,384
    1e54:	0306                	slli	t1,t1,0x1
    1e56:	0900                	addi	s0,sp,144
    1e58:	0000                	unimp
    1e5a:	0501                	addi	a0,a0,0
    1e5c:	001d                	c.nop	7
    1e5e:	0402                	c.slli64	s0
    1e60:	097f0303          	lb	t1,151(t5)
    1e64:	0002                	c.slli64	zero
    1e66:	0501                	addi	a0,a0,0
    1e68:	0016                	c.slli	zero,0x5
    1e6a:	0402                	c.slli64	s0
    1e6c:	09010303          	lb	t1,144(sp)
    1e70:	0004                	0x4
    1e72:	0501                	addi	a0,a0,0
    1e74:	0402000f          	0x402000f
    1e78:	09000303          	lb	t1,144(zero) # 90 <instr_mod+0x4>
    1e7c:	0004                	0x4
    1e7e:	0501                	addi	a0,a0,0
    1e80:	001d                	c.nop	7
    1e82:	0402                	c.slli64	s0
    1e84:	7f030603          	lb	a2,2032(t1)
    1e88:	0409                	addi	s0,s0,2
    1e8a:	0100                	addi	s0,sp,128
    1e8c:	0905                	addi	s2,s2,1
    1e8e:	0200                	addi	s0,sp,256
    1e90:	0304                	addi	s1,sp,384
    1e92:	02090b03          	lb	s6,32(s2)
    1e96:	0100                	addi	s0,sp,128
    1e98:	1c05                	addi	s8,s8,-31
    1e9a:	0200                	addi	s0,sp,256
    1e9c:	0304                	addi	s1,sp,384
    1e9e:	0306                	slli	t1,t1,0x1
    1ea0:	0900                	addi	s0,sp,144
    1ea2:	0000                	unimp
    1ea4:	0501                	addi	a0,a0,0
    1ea6:	0018                	0x18
    1ea8:	0402                	c.slli64	s0
    1eaa:	09000303          	lb	t1,144(zero) # 90 <instr_mod+0x4>
    1eae:	0004                	0x4
    1eb0:	0501                	addi	a0,a0,0
    1eb2:	001f 0402 0603      	0x6030402001f
    1eb8:	08097f03          	0x8097f03
    1ebc:	0100                	addi	s0,sp,128
    1ebe:	0905                	addi	s2,s2,1
    1ec0:	0200                	addi	s0,sp,256
    1ec2:	0304                	addi	s1,sp,384
    1ec4:	04090603          	lb	a2,64(s2)
    1ec8:	0100                	addi	s0,sp,128
    1eca:	1805                	addi	a6,a6,-31
    1ecc:	0200                	addi	s0,sp,256
    1ece:	0304                	addi	s1,sp,384
    1ed0:	0306                	slli	t1,t1,0x1
    1ed2:	0900                	addi	s0,sp,144
    1ed4:	0004                	0x4
    1ed6:	0501                	addi	a0,a0,0
    1ed8:	001f 0402 0303      	0x3030402001f
    1ede:	0900                	addi	s0,sp,144
    1ee0:	0004                	0x4
    1ee2:	0501                	addi	a0,a0,0
    1ee4:	0018                	0x18
    1ee6:	0402                	c.slli64	s0
    1ee8:	09000303          	lb	t1,144(zero) # 90 <instr_mod+0x4>
    1eec:	0004                	0x4
    1eee:	0501                	addi	a0,a0,0
    1ef0:	0021                	c.nop	8
    1ef2:	0402                	c.slli64	s0
    1ef4:	097f0303          	lb	t1,151(t5)
    1ef8:	0002                	c.slli64	zero
    1efa:	0501                	addi	a0,a0,0
    1efc:	0018                	0x18
    1efe:	0402                	c.slli64	s0
    1f00:	09010303          	lb	t1,144(sp)
    1f04:	0002                	c.slli64	zero
    1f06:	0501                	addi	a0,a0,0
    1f08:	0021                	c.nop	8
    1f0a:	0402                	c.slli64	s0
    1f0c:	7f030603          	lb	a2,2032(t1)
    1f10:	0209                	addi	tp,tp,2
    1f12:	0100                	addi	s0,sp,128
    1f14:	4b05                	li	s6,1
    1f16:	02090c03          	lb	s8,32(s2)
    1f1a:	0100                	addi	s0,sp,128
    1f1c:	0505                	addi	a0,a0,1
    1f1e:	00090203          	lb	tp,0(s2)
    1f22:	0100                	addi	s0,sp,128
    1f24:	00090103          	lb	sp,0(s2)
    1f28:	0100                	addi	s0,sp,128
    1f2a:	00090203          	lb	tp,0(s2)
    1f2e:	0100                	addi	s0,sp,128
    1f30:	4b05                	li	s6,1
    1f32:	0306                	slli	t1,t1,0x1
    1f34:	0000097b          	0x97b
    1f38:	0501                	addi	a0,a0,0
    1f3a:	0309                	addi	t1,t1,2
    1f3c:	0905                	addi	s2,s2,1
    1f3e:	000e                	c.slli	zero,0x3
    1f40:	0501                	addi	a0,a0,0
    1f42:	097b034b          	fnmsub.s	ft6,fs6,fs7,ft1,rne
    1f46:	000e                	c.slli	zero,0x3
    1f48:	0301                	addi	t1,t1,0
    1f4a:	0900                	addi	s0,sp,144
    1f4c:	0006                	c.slli	zero,0x1
    1f4e:	0501                	addi	a0,a0,0
    1f50:	0309                	addi	t1,t1,2
    1f52:	0905                	addi	s2,s2,1
    1f54:	0004                	0x4
    1f56:	0501                	addi	a0,a0,0
    1f58:	0605                	addi	a2,a2,1
    1f5a:	02090103          	lb	sp,32(s2)
    1f5e:	0100                	addi	s0,sp,128
    1f60:	00090103          	lb	sp,0(s2)
    1f64:	0100                	addi	s0,sp,128
    1f66:	00090303          	lb	t1,0(s2)
    1f6a:	0100                	addi	s0,sp,128
    1f6c:	0c05                	addi	s8,s8,1
    1f6e:	0306                	slli	t1,t1,0x1
    1f70:	0900                	addi	s0,sp,144
    1f72:	0000                	unimp
    1f74:	0501                	addi	a0,a0,0
    1f76:	0605                	addi	a2,a2,1
    1f78:	12090403          	lb	s0,288(s2)
    1f7c:	0100                	addi	s0,sp,128
    1f7e:	1005                	c.nop	-31
    1f80:	00090003          	lb	zero,0(s2)
    1f84:	0100                	addi	s0,sp,128
    1f86:	0c05                	addi	s8,s8,1
    1f88:	0306                	slli	t1,t1,0x1
    1f8a:	097c                	addi	a5,sp,156
    1f8c:	0000                	unimp
    1f8e:	0501                	addi	a0,a0,0
    1f90:	0305                	addi	t1,t1,1
    1f92:	0904                	addi	s1,sp,144
    1f94:	0002                	c.slli64	zero
    1f96:	0501                	addi	a0,a0,0
    1f98:	0009                	c.nop	2
    1f9a:	0402                	c.slli64	s0
    1f9c:	01030603          	lb	a2,16(t1)
    1fa0:	0409                	addi	s0,s0,2
    1fa2:	0100                	addi	s0,sp,128
    1fa4:	2405                	jal	21c4 <_min_stack+0x1c4>
    1fa6:	0200                	addi	s0,sp,256
    1fa8:	0304                	addi	s1,sp,384
    1faa:	0306                	slli	t1,t1,0x1
    1fac:	0900                	addi	s0,sp,144
    1fae:	0004                	0x4
    1fb0:	0501                	addi	a0,a0,0
    1fb2:	0402001b          	0x402001b
    1fb6:	09000303          	lb	t1,144(zero) # 90 <instr_mod+0x4>
    1fba:	0004                	0x4
    1fbc:	0501                	addi	a0,a0,0
    1fbe:	0011                	c.nop	4
    1fc0:	0402                	c.slli64	s0
    1fc2:	09000303          	lb	t1,144(zero) # 90 <instr_mod+0x4>
    1fc6:	0008                	0x8
    1fc8:	0501                	addi	a0,a0,0
    1fca:	0018                	0x18
    1fcc:	0402                	c.slli64	s0
    1fce:	7f030603          	lb	a2,2032(t1)
    1fd2:	0209                	addi	tp,tp,2
    1fd4:	0100                	addi	s0,sp,128
    1fd6:	1005                	c.nop	-31
    1fd8:	0200                	addi	s0,sp,256
    1fda:	0304                	addi	s1,sp,384
    1fdc:	00090003          	lb	zero,0(s2)
    1fe0:	0100                	addi	s0,sp,128
    1fe2:	0505                	addi	a0,a0,1
    1fe4:	0200                	addi	s0,sp,256
    1fe6:	0304                	addi	s1,sp,384
    1fe8:	0306                	slli	t1,t1,0x1
    1fea:	0900                	addi	s0,sp,144
    1fec:	0000                	unimp
    1fee:	0601                	addi	a2,a2,0
    1ff0:	04090603          	lb	a2,64(s2)
    1ff4:	0100                	addi	s0,sp,128
    1ff6:	0a05                	addi	s4,s4,1
    1ff8:	0306                	slli	t1,t1,0x1
    1ffa:	0900                	addi	s0,sp,144
    1ffc:	0000                	unimp
    1ffe:	0501                	addi	a0,a0,0
    2000:	0605                	addi	a2,a2,1
    2002:	12090203          	lb	tp,288(s2)
    2006:	0100                	addi	s0,sp,128
    2008:	1a05                	addi	s4,s4,-31
    200a:	0306                	slli	t1,t1,0x1
    200c:	0900                	addi	s0,sp,144
    200e:	0000                	unimp
    2010:	0501                	addi	a0,a0,0
    2012:	0014                	0x14
    2014:	0402                	c.slli64	s0
    2016:	0601                	addi	a2,a2,0
    2018:	08090003          	lb	zero,128(s2)
    201c:	0100                	addi	s0,sp,128
    201e:	0505                	addi	a0,a0,1
    2020:	0200                	addi	s0,sp,256
    2022:	0104                	addi	s1,sp,128
    2024:	0306                	slli	t1,t1,0x1
    2026:	0900                	addi	s0,sp,144
    2028:	0000                	unimp
    202a:	0501                	addi	a0,a0,0
    202c:	0301                	addi	t1,t1,0
    202e:	0909                	addi	s2,s2,2
    2030:	0004                	0x4
    2032:	0501                	addi	a0,a0,0
    2034:	0009                	c.nop	2
    2036:	0402                	c.slli64	s0
    2038:	78030603          	lb	a2,1920(t1)
    203c:	1009                	c.nop	-30
    203e:	0100                	addi	s0,sp,128
    2040:	1905                	addi	s2,s2,-31
    2042:	0200                	addi	s0,sp,256
    2044:	0304                	addi	s1,sp,384
    2046:	0306                	slli	t1,t1,0x1
    2048:	0900                	addi	s0,sp,144
    204a:	0000                	unimp
    204c:	0501                	addi	a0,a0,0
    204e:	001f 0402 0303      	0x3030402001f
    2054:	097f                	0x97f
    2056:	0008                	0x8
    2058:	0501                	addi	a0,a0,0
    205a:	0015                	c.nop	5
    205c:	0402                	c.slli64	s0
    205e:	09010303          	lb	t1,144(sp)
    2062:	0004                	0x4
    2064:	0501                	addi	a0,a0,0
    2066:	001f 0402 0603      	0x6030402001f
    206c:	04097f03          	0x4097f03
    2070:	0100                	addi	s0,sp,128
    2072:	6c05                	lui	s8,0x1
    2074:	02090c03          	lb	s8,32(s2)
    2078:	0100                	addi	s0,sp,128
    207a:	0505                	addi	a0,a0,1
    207c:	00090203          	lb	tp,0(s2)
    2080:	0100                	addi	s0,sp,128
    2082:	00090103          	lb	sp,0(s2)
    2086:	0100                	addi	s0,sp,128
    2088:	00090103          	lb	sp,0(s2)
    208c:	0100                	addi	s0,sp,128
    208e:	00090103          	lb	sp,0(s2)
    2092:	0100                	addi	s0,sp,128
    2094:	00090103          	lb	sp,0(s2)
    2098:	0100                	addi	s0,sp,128
    209a:	00090103          	lb	sp,0(s2)
    209e:	0100                	addi	s0,sp,128
    20a0:	00090303          	lb	t1,0(s2)
    20a4:	0100                	addi	s0,sp,128
    20a6:	6c05                	lui	s8,0x1
    20a8:	0306                	slli	t1,t1,0x1
    20aa:	0976                	slli	s2,s2,0x1d
    20ac:	0000                	unimp
    20ae:	0501                	addi	a0,a0,0
    20b0:	031e                	slli	t1,t1,0x7
    20b2:	0911                	addi	s2,s2,4
    20b4:	0008                	0x8
    20b6:	0501                	addi	a0,a0,0
    20b8:	036c                	addi	a1,sp,396
    20ba:	0006096f          	jal	s2,620ba <_stack_start+0x520ba>
    20be:	0501                	addi	a0,a0,0
    20c0:	0309                	addi	t1,t1,2
    20c2:	090a                	slli	s2,s2,0x2
    20c4:	000a                	c.slli	zero,0x2
    20c6:	0501                	addi	a0,a0,0
    20c8:	036c                	addi	a1,sp,396
    20ca:	0976                	slli	s2,s2,0x1d
    20cc:	0004                	0x4
    20ce:	0501                	addi	a0,a0,0
    20d0:	0309                	addi	t1,t1,2
    20d2:	090a                	slli	s2,s2,0x2
    20d4:	0004                	0x4
    20d6:	0501                	addi	a0,a0,0
    20d8:	036c                	addi	a1,sp,396
    20da:	0976                	slli	s2,s2,0x1d
    20dc:	0004                	0x4
    20de:	0301                	addi	t1,t1,0
    20e0:	0900                	addi	s0,sp,144
    20e2:	0008                	0x8
    20e4:	0501                	addi	a0,a0,0
    20e6:	030a                	slli	t1,t1,0x2
    20e8:	090e                	slli	s2,s2,0x3
    20ea:	0002                	c.slli64	zero
    20ec:	0501                	addi	a0,a0,0
    20ee:	0309                	addi	t1,t1,2
    20f0:	097c                	addi	a5,sp,156
    20f2:	0004                	0x4
    20f4:	0501                	addi	a0,a0,0
    20f6:	0605                	addi	a2,a2,1
    20f8:	04090403          	lb	s0,64(s2)
    20fc:	0100                	addi	s0,sp,128
    20fe:	0a05                	addi	s4,s4,1
    2100:	0306                	slli	t1,t1,0x1
    2102:	0900                	addi	s0,sp,144
    2104:	0000                	unimp
    2106:	0501                	addi	a0,a0,0
    2108:	0605                	addi	a2,a2,1
    210a:	12090303          	lb	t1,288(s2)
    210e:	0100                	addi	s0,sp,128
    2110:	0b05                	addi	s6,s6,1
    2112:	0306                	slli	t1,t1,0x1
    2114:	0900                	addi	s0,sp,144
    2116:	0004                	0x4
    2118:	0501                	addi	a0,a0,0
    211a:	0014                	0x14
    211c:	0402                	c.slli64	s0
    211e:	0601                	addi	a2,a2,0
    2120:	02090003          	lb	zero,32(s2)
    2124:	0100                	addi	s0,sp,128
    2126:	0505                	addi	a0,a0,1
    2128:	0200                	addi	s0,sp,256
    212a:	0104                	addi	s1,sp,128
    212c:	0306                	slli	t1,t1,0x1
    212e:	0900                	addi	s0,sp,144
    2130:	0000                	unimp
    2132:	0501                	addi	a0,a0,0
    2134:	0316                	slli	t1,t1,0x5
    2136:	0906                	slli	s2,s2,0x1
    2138:	0004                	0x4
    213a:	0501                	addi	a0,a0,0
    213c:	030c                	addi	a1,sp,384
    213e:	097f                	0x97f
    2140:	0006                	c.slli	zero,0x1
    2142:	0501                	addi	a0,a0,0
    2144:	0011                	c.nop	4
    2146:	0402                	c.slli64	s0
    2148:	0601                	addi	a2,a2,0
    214a:	02090003          	lb	zero,32(s2)
    214e:	0100                	addi	s0,sp,128
    2150:	0505                	addi	a0,a0,1
    2152:	0200                	addi	s0,sp,256
    2154:	0104                	addi	s1,sp,128
    2156:	0306                	slli	t1,t1,0x1
    2158:	0900                	addi	s0,sp,144
    215a:	0000                	unimp
    215c:	0601                	addi	a2,a2,0
    215e:	04090803          	lb	a6,64(s2)
    2162:	0100                	addi	s0,sp,128
    2164:	0905                	addi	s2,s2,1
    2166:	0306                	slli	t1,t1,0x1
    2168:	0900                	addi	s0,sp,144
    216a:	0000                	unimp
    216c:	0501                	addi	a0,a0,0
    216e:	0605                	addi	a2,a2,1
    2170:	0c090403          	lb	s0,192(s2)
    2174:	0100                	addi	s0,sp,128
    2176:	0a05                	addi	s4,s4,1
    2178:	0306                	slli	t1,t1,0x1
    217a:	0900                	addi	s0,sp,144
    217c:	0000                	unimp
    217e:	0501                	addi	a0,a0,0
    2180:	0605                	addi	a2,a2,1
    2182:	0c090103          	lb	sp,192(s2)
    2186:	0100                	addi	s0,sp,128
    2188:	1405                	addi	s0,s0,-31
    218a:	0200                	addi	s0,sp,256
    218c:	0104                	addi	s1,sp,128
    218e:	02090003          	lb	zero,32(s2)
    2192:	0100                	addi	s0,sp,128
    2194:	0505                	addi	a0,a0,1
    2196:	0200                	addi	s0,sp,256
    2198:	0104                	addi	s1,sp,128
    219a:	0306                	slli	t1,t1,0x1
    219c:	0900                	addi	s0,sp,144
    219e:	0000                	unimp
    21a0:	0501                	addi	a0,a0,0
    21a2:	0301                	addi	t1,t1,0
    21a4:	00040907          	0x40907
    21a8:	0501                	addi	a0,a0,0
    21aa:	0009                	c.nop	2
    21ac:	0402                	c.slli64	s0
    21ae:	68030603          	lb	a2,1664(t1)
    21b2:	1609                	addi	a2,a2,-30
    21b4:	0100                	addi	s0,sp,128
    21b6:	1905                	addi	s2,s2,-31
    21b8:	0200                	addi	s0,sp,256
    21ba:	0304                	addi	s1,sp,384
    21bc:	0306                	slli	t1,t1,0x1
    21be:	0900                	addi	s0,sp,144
    21c0:	0000                	unimp
    21c2:	0501                	addi	a0,a0,0
    21c4:	04020023          	sb	zero,64(tp) # 40 <__DYNAMIC+0x40>
    21c8:	097f0303          	lb	t1,151(t5)
    21cc:	0008                	0x8
    21ce:	0501                	addi	a0,a0,0
    21d0:	0015                	c.nop	5
    21d2:	0402                	c.slli64	s0
    21d4:	09010303          	lb	t1,144(sp)
    21d8:	0004                	0x4
    21da:	0501                	addi	a0,a0,0
    21dc:	04020023          	sb	zero,64(tp) # 40 <__DYNAMIC+0x40>
    21e0:	7f030603          	lb	a2,2032(t1)
    21e4:	0409                	addi	s0,s0,2
    21e6:	0100                	addi	s0,sp,128
    21e8:	0905                	addi	s2,s2,1
    21ea:	02090603          	lb	a2,32(s2)
    21ee:	0100                	addi	s0,sp,128
    21f0:	0e05                	addi	t3,t3,1
    21f2:	0306                	slli	t1,t1,0x1
    21f4:	0900                	addi	s0,sp,144
    21f6:	0000                	unimp
    21f8:	0501                	addi	a0,a0,0
    21fa:	0900030b          	0x900030b
    21fe:	0002                	c.slli64	zero
    2200:	0501                	addi	a0,a0,0
    2202:	060d                	addi	a2,a2,3
    2204:	04090303          	lb	t1,64(s2)
    2208:	0100                	addi	s0,sp,128
    220a:	1905                	addi	s2,s2,-31
    220c:	0306                	slli	t1,t1,0x1
    220e:	0900                	addi	s0,sp,144
    2210:	0000                	unimp
    2212:	0501                	addi	a0,a0,0
    2214:	09000313          	li	t1,144
    2218:	0004                	0x4
    221a:	0501                	addi	a0,a0,0
    221c:	0018                	0x18
    221e:	0402                	c.slli64	s0
    2220:	0602                	c.slli64	a2
    2222:	02097c03          	0x2097c03
    2226:	0100                	addi	s0,sp,128
    2228:	0905                	addi	s2,s2,1
    222a:	0200                	addi	s0,sp,256
    222c:	0304                	addi	s1,sp,384
    222e:	06090e03          	lb	t3,96(s2)
    2232:	0100                	addi	s0,sp,128
    2234:	1905                	addi	s2,s2,-31
    2236:	0200                	addi	s0,sp,256
    2238:	0304                	addi	s1,sp,384
    223a:	0306                	slli	t1,t1,0x1
    223c:	0900                	addi	s0,sp,144
    223e:	0000                	unimp
    2240:	0501                	addi	a0,a0,0
    2242:	04020023          	sb	zero,64(tp) # 40 <__DYNAMIC+0x40>
    2246:	097f0303          	lb	t1,151(t5)
    224a:	0008                	0x8
    224c:	0501                	addi	a0,a0,0
    224e:	0015                	c.nop	5
    2250:	0402                	c.slli64	s0
    2252:	09010303          	lb	t1,144(sp)
    2256:	0004                	0x4
    2258:	0501                	addi	a0,a0,0
    225a:	04020023          	sb	zero,64(tp) # 40 <__DYNAMIC+0x40>
    225e:	7f030603          	lb	a2,2032(t1)
    2262:	0409                	addi	s0,s0,2
    2264:	0100                	addi	s0,sp,128
    2266:	0209                	addi	tp,tp,2
    2268:	0000                	unimp
    226a:	0101                	addi	sp,sp,0
    226c:	0b05                	addi	s6,s6,1
    226e:	0500                	addi	s0,sp,640
    2270:	6e02                	flw	ft8,0(sp)
    2272:	0300000f          	fence	rw,unknown
    2276:	04e9                	addi	s1,s1,26
    2278:	0501                	addi	a0,a0,0
    227a:	0305                	addi	t1,t1,1
    227c:	0901                	addi	s2,s2,0
    227e:	0000                	unimp
    2280:	0301                	addi	t1,t1,0
    2282:	0901                	addi	s2,s2,0
    2284:	0000                	unimp
    2286:	0301                	addi	t1,t1,0
    2288:	0901                	addi	s2,s2,0
    228a:	0000                	unimp
    228c:	0301                	addi	t1,t1,0
    228e:	0901                	addi	s2,s2,0
    2290:	0000                	unimp
    2292:	0301                	addi	t1,t1,0
    2294:	0901                	addi	s2,s2,0
    2296:	0000                	unimp
    2298:	0301                	addi	t1,t1,0
    229a:	0901                	addi	s2,s2,0
    229c:	0000                	unimp
    229e:	0301                	addi	t1,t1,0
    22a0:	0902                	c.slli64	s2
    22a2:	0000                	unimp
    22a4:	0501                	addi	a0,a0,0
    22a6:	7803060b          	0x7803060b
    22aa:	0009                	c.nop	2
    22ac:	0100                	addi	s0,sp,128
    22ae:	0905                	addi	s2,s2,1
    22b0:	04090803          	lb	a6,64(s2)
    22b4:	0100                	addi	s0,sp,128
    22b6:	0b05                	addi	s6,s6,1
    22b8:	0e097803          	0xe097803
    22bc:	0100                	addi	s0,sp,128
    22be:	1205                	addi	tp,tp,-31
    22c0:	10091803          	lh	a6,256(s2)
    22c4:	0100                	addi	s0,sp,128
    22c6:	0905                	addi	s2,s2,1
    22c8:	04097003          	0x4097003
    22cc:	0100                	addi	s0,sp,128
    22ce:	0505                	addi	a0,a0,1
    22d0:	0306                	slli	t1,t1,0x1
    22d2:	0901                	addi	s2,s2,0
    22d4:	0002                	c.slli64	zero
    22d6:	0301                	addi	t1,t1,0
    22d8:	0901                	addi	s2,s2,0
    22da:	0000                	unimp
    22dc:	0301                	addi	t1,t1,0
    22de:	0901                	addi	s2,s2,0
    22e0:	0000                	unimp
    22e2:	0301                	addi	t1,t1,0
    22e4:	0901                	addi	s2,s2,0
    22e6:	0000                	unimp
    22e8:	0301                	addi	t1,t1,0
    22ea:	0901                	addi	s2,s2,0
    22ec:	0000                	unimp
    22ee:	0301                	addi	t1,t1,0
    22f0:	0901                	addi	s2,s2,0
    22f2:	0000                	unimp
    22f4:	0301                	addi	t1,t1,0
    22f6:	0901                	addi	s2,s2,0
    22f8:	0000                	unimp
    22fa:	0301                	addi	t1,t1,0
    22fc:	0909                	addi	s2,s2,2
    22fe:	0000                	unimp
    2300:	0501                	addi	a0,a0,0
    2302:	0612                	slli	a2,a2,0x4
    2304:	00090003          	lb	zero,0(s2)
    2308:	0100                	addi	s0,sp,128
    230a:	0c05                	addi	s8,s8,1
    230c:	0c090103          	lb	sp,192(s2)
    2310:	0100                	addi	s0,sp,128
    2312:	1205                	addi	tp,tp,-31
    2314:	0a097f03          	0xa097f03
    2318:	0100                	addi	s0,sp,128
    231a:	0505                	addi	a0,a0,1
    231c:	0306                	slli	t1,t1,0x1
    231e:	0901                	addi	s2,s2,0
    2320:	0002                	c.slli64	zero
    2322:	0501                	addi	a0,a0,0
    2324:	0612                	slli	a2,a2,0x4
    2326:	00090103          	lb	sp,0(s2)
    232a:	0100                	addi	s0,sp,128
    232c:	0c05                	addi	s8,s8,1
    232e:	04097f03          	0x4097f03
    2332:	0100                	addi	s0,sp,128
    2334:	0505                	addi	a0,a0,1
    2336:	0306                	slli	t1,t1,0x1
    2338:	0901                	addi	s2,s2,0
    233a:	0002                	c.slli64	zero
    233c:	0501                	addi	a0,a0,0
    233e:	0612                	slli	a2,a2,0x4
    2340:	00090003          	lb	zero,0(s2)
    2344:	0100                	addi	s0,sp,128
    2346:	0505                	addi	a0,a0,1
    2348:	0306                	slli	t1,t1,0x1
    234a:	0902                	c.slli64	s2
    234c:	0004                	0x4
    234e:	0501                	addi	a0,a0,0
    2350:	0310                	addi	a2,sp,384
    2352:	0900                	addi	s0,sp,144
    2354:	0000                	unimp
    2356:	0501                	addi	a0,a0,0
    2358:	0605                	addi	a2,a2,1
    235a:	00090003          	lb	zero,0(s2)
    235e:	0100                	addi	s0,sp,128
    2360:	0905                	addi	s2,s2,1
    2362:	0200                	addi	s0,sp,256
    2364:	0304                	addi	s1,sp,384
    2366:	0306                	slli	t1,t1,0x1
    2368:	0902                	c.slli64	s2
    236a:	0004                	0x4
    236c:	0501                	addi	a0,a0,0
    236e:	001f 0402 0603      	0x6030402001f
    2374:	00090003          	lb	zero,0(s2)
    2378:	0100                	addi	s0,sp,128
    237a:	1905                	addi	s2,s2,-31
    237c:	0200                	addi	s0,sp,256
    237e:	0304                	addi	s1,sp,384
    2380:	06090003          	lb	zero,96(s2)
    2384:	0100                	addi	s0,sp,128
    2386:	1705                	addi	a4,a4,-31
    2388:	0200                	addi	s0,sp,256
    238a:	0304                	addi	s1,sp,384
    238c:	0306                	slli	t1,t1,0x1
    238e:	097e                	slli	s2,s2,0x1f
    2390:	0006                	c.slli	zero,0x1
    2392:	0501                	addi	a0,a0,0
    2394:	0010                	0x10
    2396:	0402                	c.slli64	s0
    2398:	09000303          	lb	t1,144(zero) # 90 <instr_mod+0x4>
    239c:	0000                	unimp
    239e:	0501                	addi	a0,a0,0
    23a0:	0005                	c.nop	1
    23a2:	0402                	c.slli64	s0
    23a4:	00030603          	lb	a2,0(t1)
    23a8:	0209                	addi	tp,tp,2
    23aa:	0100                	addi	s0,sp,128
    23ac:	0905                	addi	s2,s2,1
    23ae:	0200                	addi	s0,sp,256
    23b0:	0304                	addi	s1,sp,384
    23b2:	0306                	slli	t1,t1,0x1
    23b4:	0909                	addi	s2,s2,2
    23b6:	0004                	0x4
    23b8:	0501                	addi	a0,a0,0
    23ba:	0402001b          	0x402001b
    23be:	097e0303          	lb	t1,151(t3) # 1a097 <_stack_start+0xa097>
    23c2:	0000                	unimp
    23c4:	0501                	addi	a0,a0,0
    23c6:	0010                	0x10
    23c8:	0402                	c.slli64	s0
    23ca:	09000303          	lb	t1,144(zero) # 90 <instr_mod+0x4>
    23ce:	0000                	unimp
    23d0:	0501                	addi	a0,a0,0
    23d2:	0009                	c.nop	2
    23d4:	0402                	c.slli64	s0
    23d6:	09090303          	lb	t1,144(s2)
    23da:	000c                	0xc
    23dc:	0501                	addi	a0,a0,0
    23de:	0026                	c.slli	zero,0x9
    23e0:	0402                	c.slli64	s0
    23e2:	00030603          	lb	a2,0(t1)
    23e6:	0009                	c.nop	2
    23e8:	0100                	addi	s0,sp,128
    23ea:	2005                	jal	240a <_min_stack+0x40a>
    23ec:	0200                	addi	s0,sp,256
    23ee:	0304                	addi	s1,sp,384
    23f0:	06090003          	lb	zero,96(s2)
    23f4:	0100                	addi	s0,sp,128
    23f6:	1f05                	addi	t5,t5,-31
    23f8:	0200                	addi	s0,sp,256
    23fa:	0304                	addi	s1,sp,384
    23fc:	0306                	slli	t1,t1,0x1
    23fe:	097e                	slli	s2,s2,0x1f
    2400:	0004                	0x4
    2402:	0501                	addi	a0,a0,0
    2404:	0014                	0x14
    2406:	0402                	c.slli64	s0
    2408:	09000303          	lb	t1,144(zero) # 90 <instr_mod+0x4>
    240c:	0000                	unimp
    240e:	0501                	addi	a0,a0,0
    2410:	0005                	c.nop	1
    2412:	0402                	c.slli64	s0
    2414:	00030603          	lb	a2,0(t1)
    2418:	0009                	c.nop	2
    241a:	0100                	addi	s0,sp,128
    241c:	0905                	addi	s2,s2,1
    241e:	0200                	addi	s0,sp,256
    2420:	0304                	addi	s1,sp,384
    2422:	0306                	slli	t1,t1,0x1
    2424:	0909                	addi	s2,s2,2
    2426:	0004                	0x4
    2428:	0501                	addi	a0,a0,0
    242a:	001f 0402 0303      	0x3030402001f
    2430:	097e                	slli	s2,s2,0x1f
    2432:	0000                	unimp
    2434:	0501                	addi	a0,a0,0
    2436:	0014                	0x14
    2438:	0402                	c.slli64	s0
    243a:	09000303          	lb	t1,144(zero) # 90 <instr_mod+0x4>
    243e:	0000                	unimp
    2440:	0501                	addi	a0,a0,0
    2442:	0009                	c.nop	2
    2444:	0402                	c.slli64	s0
    2446:	09090303          	lb	t1,144(s2)
    244a:	000c                	0xc
    244c:	0501                	addi	a0,a0,0
    244e:	04020023          	sb	zero,64(tp) # 40 <__DYNAMIC+0x40>
    2452:	00030603          	lb	a2,0(t1)
    2456:	0009                	c.nop	2
    2458:	0100                	addi	s0,sp,128
    245a:	1d05                	addi	s10,s10,-31
    245c:	0200                	addi	s0,sp,256
    245e:	0304                	addi	s1,sp,384
    2460:	06090003          	lb	zero,96(s2)
    2464:	0100                	addi	s0,sp,128
    2466:	1f05                	addi	t5,t5,-31
    2468:	0200                	addi	s0,sp,256
    246a:	0304                	addi	s1,sp,384
    246c:	0306                	slli	t1,t1,0x1
    246e:	097e                	slli	s2,s2,0x1f
    2470:	0004                	0x4
    2472:	0501                	addi	a0,a0,0
    2474:	0014                	0x14
    2476:	0402                	c.slli64	s0
    2478:	09000303          	lb	t1,144(zero) # 90 <instr_mod+0x4>
    247c:	0000                	unimp
    247e:	0501                	addi	a0,a0,0
    2480:	0005                	c.nop	1
    2482:	0402                	c.slli64	s0
    2484:	00030603          	lb	a2,0(t1)
    2488:	0009                	c.nop	2
    248a:	0100                	addi	s0,sp,128
    248c:	0905                	addi	s2,s2,1
    248e:	0200                	addi	s0,sp,256
    2490:	0304                	addi	s1,sp,384
    2492:	0306                	slli	t1,t1,0x1
    2494:	0909                	addi	s2,s2,2
    2496:	000c                	0xc
    2498:	0501                	addi	a0,a0,0
    249a:	0022                	c.slli	zero,0x8
    249c:	0402                	c.slli64	s0
    249e:	00030603          	lb	a2,0(t1)
    24a2:	0009                	c.nop	2
    24a4:	0100                	addi	s0,sp,128
    24a6:	1c05                	addi	s8,s8,-31
    24a8:	0200                	addi	s0,sp,256
    24aa:	0304                	addi	s1,sp,384
    24ac:	06090003          	lb	zero,96(s2)
    24b0:	0100                	addi	s0,sp,128
    24b2:	2105                	jal	28d2 <_min_stack+0x8d2>
    24b4:	0200                	addi	s0,sp,256
    24b6:	0304                	addi	s1,sp,384
    24b8:	0306                	slli	t1,t1,0x1
    24ba:	097e                	slli	s2,s2,0x1f
    24bc:	0004                	0x4
    24be:	0501                	addi	a0,a0,0
    24c0:	0014                	0x14
    24c2:	0402                	c.slli64	s0
    24c4:	09000303          	lb	t1,144(zero) # 90 <instr_mod+0x4>
    24c8:	0000                	unimp
    24ca:	0501                	addi	a0,a0,0
    24cc:	0005                	c.nop	1
    24ce:	0402                	c.slli64	s0
    24d0:	00030603          	lb	a2,0(t1)
    24d4:	0009                	c.nop	2
    24d6:	0100                	addi	s0,sp,128
    24d8:	0306                	slli	t1,t1,0x1
    24da:	0908                	addi	a0,sp,144
    24dc:	0004                	0x4
    24de:	0501                	addi	a0,a0,0
    24e0:	0612                	slli	a2,a2,0x4
    24e2:	00090003          	lb	zero,0(s2)
    24e6:	0100                	addi	s0,sp,128
    24e8:	1305                	addi	t1,t1,-31
    24ea:	08090103          	lb	sp,128(s2)
    24ee:	0100                	addi	s0,sp,128
    24f0:	1205                	addi	tp,tp,-31
    24f2:	08090103          	lb	sp,128(s2)
    24f6:	0100                	addi	s0,sp,128
    24f8:	1305                	addi	t1,t1,-31
    24fa:	04097f03          	0x4097f03
    24fe:	0100                	addi	s0,sp,128
    2500:	1205                	addi	tp,tp,-31
    2502:	04097f03          	0x4097f03
    2506:	0100                	addi	s0,sp,128
    2508:	0505                	addi	a0,a0,1
    250a:	0306                	slli	t1,t1,0x1
    250c:	0901                	addi	s2,s2,0
    250e:	0002                	c.slli64	zero
    2510:	0501                	addi	a0,a0,0
    2512:	00030613          	mv	a2,t1
    2516:	0009                	c.nop	2
    2518:	0100                	addi	s0,sp,128
    251a:	1205                	addi	tp,tp,-31
    251c:	02090103          	lb	sp,32(s2)
    2520:	0100                	addi	s0,sp,128
    2522:	02090903          	lb	s2,32(s2)
    2526:	0100                	addi	s0,sp,128
    2528:	1305                	addi	t1,t1,-31
    252a:	08097603          	0x8097603
    252e:	0100                	addi	s0,sp,128
    2530:	0505                	addi	a0,a0,1
    2532:	0306                	slli	t1,t1,0x1
    2534:	0901                	addi	s2,s2,0
    2536:	0002                	c.slli64	zero
    2538:	0301                	addi	t1,t1,0
    253a:	0909                	addi	s2,s2,2
    253c:	0000                	unimp
    253e:	0501                	addi	a0,a0,0
    2540:	0612                	slli	a2,a2,0x4
    2542:	00090003          	lb	zero,0(s2)
    2546:	0100                	addi	s0,sp,128
    2548:	0505                	addi	a0,a0,1
    254a:	0306                	slli	t1,t1,0x1
    254c:	0901                	addi	s2,s2,0
    254e:	0002                	c.slli64	zero
    2550:	0501                	addi	a0,a0,0
    2552:	00030613          	mv	a2,t1
    2556:	0009                	c.nop	2
    2558:	0100                	addi	s0,sp,128
    255a:	0505                	addi	a0,a0,1
    255c:	0306                	slli	t1,t1,0x1
    255e:	0901                	addi	s2,s2,0
    2560:	0014                	0x14
    2562:	0501                	addi	a0,a0,0
    2564:	0612                	slli	a2,a2,0x4
    2566:	00090003          	lb	zero,0(s2)
    256a:	0100                	addi	s0,sp,128
    256c:	1a05                	addi	s4,s4,-31
    256e:	04091b03          	lh	s6,64(s2)
    2572:	0100                	addi	s0,sp,128
    2574:	1205                	addi	tp,tp,-31
    2576:	04096503          	0x4096503
    257a:	0100                	addi	s0,sp,128
    257c:	0505                	addi	a0,a0,1
    257e:	0306                	slli	t1,t1,0x1
    2580:	00020913          	mv	s2,tp
    2584:	0501                	addi	a0,a0,0
    2586:	0310                	addi	a2,sp,384
    2588:	0900                	addi	s0,sp,144
    258a:	0000                	unimp
    258c:	0501                	addi	a0,a0,0
    258e:	0612                	slli	a2,a2,0x4
    2590:	00096d03          	0x96d03
    2594:	0100                	addi	s0,sp,128
    2596:	1a05                	addi	s4,s4,-31
    2598:	02091b03          	lh	s6,32(s2)
    259c:	0100                	addi	s0,sp,128
    259e:	0505                	addi	a0,a0,1
    25a0:	04097803          	0x4097803
    25a4:	0100                	addi	s0,sp,128
    25a6:	0905                	addi	s2,s2,1
    25a8:	0306                	slli	t1,t1,0x1
    25aa:	0901                	addi	s2,s2,0
    25ac:	0004                	0x4
    25ae:	0501                	addi	a0,a0,0
    25b0:	0003060b          	0x3060b
    25b4:	0009                	c.nop	2
    25b6:	0100                	addi	s0,sp,128
    25b8:	2705                	jal	2cd8 <_min_stack+0xcd8>
    25ba:	02090003          	lb	zero,32(s2)
    25be:	0100                	addi	s0,sp,128
    25c0:	0b05                	addi	s6,s6,1
    25c2:	04090003          	lb	zero,64(s2)
    25c6:	0100                	addi	s0,sp,128
    25c8:	0d05                	addi	s10,s10,1
    25ca:	0306                	slli	t1,t1,0x1
    25cc:	0902                	c.slli64	s2
    25ce:	000a                	c.slli	zero,0x2
    25d0:	0501                	addi	a0,a0,0
    25d2:	061a                	slli	a2,a2,0x6
    25d4:	00090003          	lb	zero,0(s2)
    25d8:	0100                	addi	s0,sp,128
    25da:	0d05                	addi	s10,s10,1
    25dc:	0306                	slli	t1,t1,0x1
    25de:	0902                	c.slli64	s2
    25e0:	000a                	c.slli	zero,0x2
    25e2:	0501                	addi	a0,a0,0
    25e4:	0305                	addi	t1,t1,1
    25e6:	0909                	addi	s2,s2,2
    25e8:	0000                	unimp
    25ea:	0501                	addi	a0,a0,0
    25ec:	0601                	addi	a2,a2,0
    25ee:	00090103          	lb	sp,0(s2)
    25f2:	0100                	addi	s0,sp,128
    25f4:	0d05                	addi	s10,s10,1
    25f6:	0200                	addi	s0,sp,256
    25f8:	0204                	addi	s1,sp,256
    25fa:	0306                	slli	t1,t1,0x1
    25fc:	0979                	addi	s2,s2,30
    25fe:	0018                	0x18
    2600:	0501                	addi	a0,a0,0
    2602:	001a                	c.slli	zero,0x6
    2604:	0402                	c.slli64	s0
    2606:	0602                	c.slli64	a2
    2608:	00090003          	lb	zero,0(s2)
    260c:	0100                	addi	s0,sp,128
    260e:	1805                	addi	a6,a6,-31
    2610:	0200                	addi	s0,sp,256
    2612:	0204                	addi	s1,sp,256
    2614:	0306                	slli	t1,t1,0x1
    2616:	0978                	addi	a4,sp,156
    2618:	0002                	c.slli64	zero
    261a:	0501                	addi	a0,a0,0
    261c:	0010                	0x10
    261e:	0402                	c.slli64	s0
    2620:	0302                	c.slli64	t1
    2622:	0900                	addi	s0,sp,144
    2624:	0000                	unimp
    2626:	0501                	addi	a0,a0,0
    2628:	0005                	c.nop	1
    262a:	0402                	c.slli64	s0
    262c:	0602                	c.slli64	a2
    262e:	02090003          	lb	zero,32(s2)
    2632:	0100                	addi	s0,sp,128
    2634:	0609                	addi	a2,a2,2
    2636:	0000                	unimp
    2638:	0101                	addi	sp,sp,0
    263a:	0150                	addi	a2,sp,132
    263c:	0000                	unimp
    263e:	001d0003          	lb	zero,1(s10)
    2642:	0000                	unimp
    2644:	0101                	addi	sp,sp,0
    2646:	000d0efb          	0xd0efb
    264a:	0101                	addi	sp,sp,0
    264c:	0101                	addi	sp,sp,0
    264e:	0000                	unimp
    2650:	0100                	addi	s0,sp,128
    2652:	0000                	unimp
    2654:	0001                	nop
    2656:	30747263          	bgeu	s0,t2,295a <_min_stack+0x95a>
    265a:	532e                	lw	t1,232(sp)
    265c:	0000                	unimp
    265e:	0000                	unimp
    2660:	0000                	unimp
    2662:	0205                	addi	tp,tp,1
    2664:	0d72                	slli	s10,s10,0x1c
    2666:	0000                	unimp
    2668:	0315                	addi	t1,t1,5
    266a:	0904                	addi	s1,sp,144
    266c:	0004                	0x4
    266e:	0301                	addi	t1,t1,0
    2670:	0901                	addi	s2,s2,0
    2672:	0004                	0x4
    2674:	0301                	addi	t1,t1,0
    2676:	0901                	addi	s2,s2,0
    2678:	0002                	c.slli64	zero
    267a:	0301                	addi	t1,t1,0
    267c:	0901                	addi	s2,s2,0
    267e:	0002                	c.slli64	zero
    2680:	0301                	addi	t1,t1,0
    2682:	0901                	addi	s2,s2,0
    2684:	0002                	c.slli64	zero
    2686:	0301                	addi	t1,t1,0
    2688:	0901                	addi	s2,s2,0
    268a:	0002                	c.slli64	zero
    268c:	0301                	addi	t1,t1,0
    268e:	0901                	addi	s2,s2,0
    2690:	0002                	c.slli64	zero
    2692:	0301                	addi	t1,t1,0
    2694:	0901                	addi	s2,s2,0
    2696:	0002                	c.slli64	zero
    2698:	0301                	addi	t1,t1,0
    269a:	0901                	addi	s2,s2,0
    269c:	0002                	c.slli64	zero
    269e:	0301                	addi	t1,t1,0
    26a0:	0901                	addi	s2,s2,0
    26a2:	0002                	c.slli64	zero
    26a4:	0301                	addi	t1,t1,0
    26a6:	0901                	addi	s2,s2,0
    26a8:	0002                	c.slli64	zero
    26aa:	0301                	addi	t1,t1,0
    26ac:	0901                	addi	s2,s2,0
    26ae:	0002                	c.slli64	zero
    26b0:	0301                	addi	t1,t1,0
    26b2:	0901                	addi	s2,s2,0
    26b4:	0002                	c.slli64	zero
    26b6:	0301                	addi	t1,t1,0
    26b8:	0901                	addi	s2,s2,0
    26ba:	0002                	c.slli64	zero
    26bc:	0301                	addi	t1,t1,0
    26be:	0901                	addi	s2,s2,0
    26c0:	0002                	c.slli64	zero
    26c2:	0301                	addi	t1,t1,0
    26c4:	0901                	addi	s2,s2,0
    26c6:	0002                	c.slli64	zero
    26c8:	0301                	addi	t1,t1,0
    26ca:	0901                	addi	s2,s2,0
    26cc:	0002                	c.slli64	zero
    26ce:	0301                	addi	t1,t1,0
    26d0:	0901                	addi	s2,s2,0
    26d2:	0002                	c.slli64	zero
    26d4:	0301                	addi	t1,t1,0
    26d6:	0901                	addi	s2,s2,0
    26d8:	0002                	c.slli64	zero
    26da:	0301                	addi	t1,t1,0
    26dc:	0901                	addi	s2,s2,0
    26de:	0002                	c.slli64	zero
    26e0:	0301                	addi	t1,t1,0
    26e2:	0901                	addi	s2,s2,0
    26e4:	0002                	c.slli64	zero
    26e6:	0301                	addi	t1,t1,0
    26e8:	0901                	addi	s2,s2,0
    26ea:	0002                	c.slli64	zero
    26ec:	0301                	addi	t1,t1,0
    26ee:	0901                	addi	s2,s2,0
    26f0:	0002                	c.slli64	zero
    26f2:	0301                	addi	t1,t1,0
    26f4:	0901                	addi	s2,s2,0
    26f6:	0002                	c.slli64	zero
    26f8:	0301                	addi	t1,t1,0
    26fa:	0901                	addi	s2,s2,0
    26fc:	0002                	c.slli64	zero
    26fe:	0301                	addi	t1,t1,0
    2700:	0901                	addi	s2,s2,0
    2702:	0002                	c.slli64	zero
    2704:	0301                	addi	t1,t1,0
    2706:	0901                	addi	s2,s2,0
    2708:	0002                	c.slli64	zero
    270a:	0301                	addi	t1,t1,0
    270c:	0901                	addi	s2,s2,0
    270e:	0002                	c.slli64	zero
    2710:	0301                	addi	t1,t1,0
    2712:	0901                	addi	s2,s2,0
    2714:	0002                	c.slli64	zero
    2716:	0301                	addi	t1,t1,0
    2718:	0901                	addi	s2,s2,0
    271a:	0002                	c.slli64	zero
    271c:	0301                	addi	t1,t1,0
    271e:	0901                	addi	s2,s2,0
    2720:	0002                	c.slli64	zero
    2722:	0301                	addi	t1,t1,0
    2724:	00020903          	lb	s2,0(tp) # 0 <__DYNAMIC>
    2728:	0301                	addi	t1,t1,0
    272a:	0906                	slli	s2,s2,0x1
    272c:	0008                	0x8
    272e:	0301                	addi	t1,t1,0
    2730:	0901                	addi	s2,s2,0
    2732:	0008                	0x8
    2734:	0301                	addi	t1,t1,0
    2736:	0902                	c.slli64	s2
    2738:	0008                	0x8
    273a:	0301                	addi	t1,t1,0
    273c:	00040903          	lb	s2,0(s0)
    2740:	0301                	addi	t1,t1,0
    2742:	0901                	addi	s2,s2,0
    2744:	0004                	0x4
    2746:	0301                	addi	t1,t1,0
    2748:	0901                	addi	s2,s2,0
    274a:	0002                	c.slli64	zero
    274c:	0301                	addi	t1,t1,0
    274e:	0906                	slli	s2,s2,0x1
    2750:	0004                	0x4
    2752:	0301                	addi	t1,t1,0
    2754:	0901                	addi	s2,s2,0
    2756:	0004                	0x4
    2758:	0301                	addi	t1,t1,0
    275a:	0901                	addi	s2,s2,0
    275c:	0004                	0x4
    275e:	0901                	addi	s2,s2,0
    2760:	0004                	0x4
    2762:	0100                	addi	s0,sp,128
    2764:	0001                	nop
    2766:	0205                	addi	tp,tp,1
    2768:	0000                	unimp
    276a:	0000                	unimp
    276c:	0100cb03          	lbu	s6,16(ra)
    2770:	7c090103          	lb	sp,1984(s2)
    2774:	0100                	addi	s0,sp,128
    2776:	04090403          	lb	s0,64(s2)
    277a:	0100                	addi	s0,sp,128
    277c:	04090403          	lb	s0,64(s2)
    2780:	0100                	addi	s0,sp,128
    2782:	04090403          	lb	s0,64(s2)
    2786:	0100                	addi	s0,sp,128
    2788:	0409                	addi	s0,s0,2
    278a:	0000                	unimp
    278c:	0101                	addi	sp,sp,0

Disassembly of section .debug_str:

00000000 <.debug_str>:
  .endr
   0:	645f 6f73 685f      	0x685f6f73645f
   6:	6e61                	lui	t3,0x18
   8:	6c64                	flw	fs1,92(s0)
   a:	0065                	c.nop	25
   c:	6f70                	flw	fa2,92(a4)
   e:	616c                	flw	fa1,68(a0)
  10:	5f00                	lw	s0,56(a4)
  12:	657a6973          	csrrsi	s2,0x657,20
  16:	5f00                	lw	s0,56(a4)
  18:	6172                	flw	ft2,28(sp)
  1a:	646e                	flw	fs0,216(sp)
  1c:	3834                	fld	fa3,112(s0)
  1e:	5f00                	lw	s0,56(a4)
  20:	6d65                	lui	s10,0x19
  22:	7265                	lui	tp,0xffff9
  24:	636e6567          	0x636e6567
  28:	0079                	c.nop	30
  2a:	6f70                	flw	fa2,92(a4)
  2c:	796c                	flw	fa1,116(a0)
  2e:	756d                	lui	a0,0xffffb
  30:	746c                	flw	fa1,108(s0)
  32:	0032                	c.slli	zero,0xc
  34:	645f 7461 0061      	0x617461645f
  3a:	775f 7263 6f74      	0x6f747263775f
  40:	626d                	lui	tp,0x1b
  42:	735f 6174 6574      	0x65746174735f
  48:	5f00                	lw	s0,56(a4)
  4a:	72736377          	0x72736377
  4e:	6f74                	flw	fa3,92(a4)
  50:	626d                	lui	tp,0x1b
  52:	74735f73          	csrrwi	t5,0x747,6
  56:	7461                	lui	s0,0xffff8
  58:	0065                	c.nop	25
  5a:	5f5f 7562 6c69      	0x6c6975625f5f
  60:	6974                	flw	fa3,84(a0)
  62:	5f6e                	lw	t5,248(sp)
  64:	656d                	lui	a0,0x1b
  66:	736d                	lui	t1,0xffffb
  68:	7465                	lui	s0,0xffff9
  6a:	6c00                	flw	fs0,24(s0)
  6c:	20676e6f          	jal	t3,76272 <_stack_start+0x66272>
  70:	6f6c                	flw	fa1,92(a4)
  72:	676e                	flw	fa4,216(sp)
  74:	7520                	flw	fs0,104(a0)
  76:	736e                	flw	ft6,248(sp)
  78:	6769                	lui	a4,0x1a
  7a:	656e                	flw	fa0,216(sp)
  jal x0, default_exc_handler
  7c:	2064                	fld	fs1,192(s0)
  7e:	6e69                	lui	t3,0x1a
  jal x0, reset_handler
  80:	0074                	addi	a3,sp,12
  82:	6544                	flw	fs1,12(a0)
  jal x0, default_exc_handler
  84:	654d5f63          	bge	s10,s4,6e2 <ext_euclid+0xc>
  jal x0, default_exc_handler
  88:	67617373          	csrrci	t1,0x676,2
    asm volatile(
  8c:	0065                	c.nop	25
  8e:	6c5f 6662 6973      	0x697366626c5f
    for(i=0;i<(length/3);i++) {
  94:	657a                	flw	fa0,156(sp)
  96:	7200                	flw	fs0,32(a2)
    asm volatile(
  98:	6e61                	lui	t3,0x18
    for(i=0;i<(length/3);i++) {
  9a:	6f64                	flw	fs1,92(a4)
  9c:	5f6d                	li	t5,-5
  9e:	7379656b          	0x7379656b
    asm volatile(
  a2:	5f00                	lw	s0,56(a4)
  a4:	6c5f 636f 6c61      	0x6c61636f6c5f
  aa:	5f65                	li	t5,-7
    for(i=0;i<(length/3);i++) {
  ac:	0074                	addi	a3,sp,12
  ae:	72636573          	csrrsi	a0,0x726,6
int *polymult(int *a, int size_a, int *b, int size_b, int mod, int star_mult){
  b2:	7465                	lui	s0,0xffff9
  b4:	6b5f 7965 665f      	0x665f79656b5f
  ba:	7300                	flw	fs0,32(a4)
    int line[size_b][size_a + size_b];
  bc:	6365                	lui	t1,0x19
  be:	6572                	flw	fa0,28(sp)
int *polymult(int *a, int size_a, int *b, int size_b, int mod, int star_mult){
  c0:	5f74                	lw	a3,124(a4)
  c2:	5f79656b          	0x5f79656b
    int line[size_b][size_a + size_b];
  c6:	6d5f0067          	jr	1749(t5)
  ca:	7262                	flw	ft4,56(sp)
  cc:	6f74                	flw	fa3,92(a4)
  ce:	735f6377          	0x735f6377
int *polymult(int *a, int size_a, int *b, int size_b, int mod, int star_mult){
  d2:	6174                	flw	fa3,68(a0)
  d4:	6574                	flw	fa3,76(a0)
  d6:	5f00                	lw	s0,56(a4)
  d8:	6f746377          	0x6f746377
  dc:	626d                	lui	tp,0x1b
  de:	735f 6174 6574      	0x65746174735f
  e4:	5f00                	lw	s0,56(a4)
    int line[size_b][size_a + size_b];
  e6:	745f 5f6d 6573      	0x65735f6d745f
    int pola[size_a];
  ec:	6f6c0063          	beq	s8,s6,7cc <ext_euclid+0xf6>
  f0:	676e                	flw	fa4,216(sp)
int *polymult(int *a, int size_a, int *b, int size_b, int mod, int star_mult){
  f2:	6c20                	flw	fs0,88(s0)
    int line[size_b][size_a + size_b];
  f4:	20676e6f          	jal	t3,762fa <_stack_start+0x662fa>
    int pola[size_a];
  f8:	6e69                	lui	t3,0x1a
    int polb[size_b];
  fa:	0074                	addi	a3,sp,12
  fc:	657a6973          	csrrsi	s2,0x657,20
 100:	4e5f 6900 736e      	0x736e69004e5f
int *polymult(int *a, int size_a, int *b, int size_b, int mod, int star_mult){
 106:	7274                	flw	fa3,100(a2)
 108:	6d5f 646f 7000      	0x7000646f6d5f
            line[i][j] = 0;
 10e:	6d796c6f          	jal	s8,96fe4 <_stack_start+0x86fe4>
    int polb[size_b];
 112:	6c75                	lui	s8,0x1d
int *polymult(int *a, int size_a, int *b, int size_b, int mod, int star_mult){
 114:	0074                	addi	a3,sp,12
    int pola[size_a];
 116:	755f 7562 0066      	0x667562755f
            line[i][j] = 0;
 11c:	625f 7361 0065      	0x657361625f
    for (i = 0; i < size_b; ++i){
 122:	5f5f 6d74 685f      	0x685f6d745f5f
            product[j] = 0;
 128:	0072756f          	jal	a0,2792e <_stack_start+0x1792e>
 12c:	5f5f 6673 5f00      	0x5f0066735f5f
    for (i = 0; i < size_a; ++i){
 132:	655f6e6f          	jal	t3,f6f86 <_stack_start+0xe6f86>
 136:	6978                	flw	fa4,84(a0)
	array_mod(pola,mod,size_a);
 138:	5f74                	lw	a3,124(a4)
 13a:	7261                	lui	tp,0xffff8
 13c:	5f007367          	0x5f007367
 140:	6b6f6f63          	bltu	t5,s6,7fe <ext_euclid+0x128>
    for (i = 0; i < size_b; ++i){
 144:	6569                	lui	a0,0x1a
 146:	5f00                	lw	s0,56(a4)
 148:	735f 6c67 6575      	0x65756c67735f
	array_mod(polb,mod,size_b);
 14e:	7200                	flw	fs0,32(a2)
 150:	7365                	lui	t1,0xffff9
 152:	0031                	c.nop	12
 154:	6572                	flw	fa0,28(sp)
    if(star_mult == 1){
 156:	5f003273          	csrrc	tp,0x5f0,zero
 15a:	6c66                	flw	fs8,88(sp)
 15c:	6761                	lui	a4,0x18
 15e:	695f0073          	0x695f0073
 162:	78635f73          	csrrwi	t5,0x786,6
 166:	0061                	c.nop	24
 168:	735f 6474 6e69      	0x6e696474735f
            for (k = size_a-1; k >= 0; k = k-1 ){
 16e:	5f00                	lw	s0,56(a4)
 170:	6c62                	flw	fs8,24(sp)
            product[j] = 0;
 172:	7a69736b          	0x7a69736b
 176:	0065                	c.nop	25
            line[i][j] = 0;
 178:	7270                	flw	fa2,100(a2)
 17a:	6375646f          	jal	s0,56fb0 <_stack_start+0x46fb0>
            product[j] = 0;
 17e:	0074                	addi	a3,sp,12
        for(j = 0; j < size_a + size_b -1; ++j){
 180:	6f70                	flw	fa2,92(a4)
 182:	796c                	flw	fa1,116(a0)
 184:	6964                	flw	fs1,84(a0)
 186:	0076                	c.slli	zero,0x1d
    for (i = 0; i < size_b; ++i){
 188:	6f70                	flw	fa2,92(a4)
 18a:	796c                	flw	fa1,116(a0)
 18c:	0066                	c.slli	zero,0x19
 18e:	635f 7476 7562      	0x75627476635f
        pola[i] = a[i];
 194:	0066                	c.slli	zero,0x19
 196:	6f5f 6666 6573      	0x657366666f5f
 19c:	0074                	addi	a3,sp,12
 19e:	6d5f 7362 7472      	0x747273626d5f
 1a4:	7363776f          	jal	a4,378da <_stack_start+0x278da>
        polb[i] = b[i];
 1a8:	735f 6174 6574      	0x65746174735f
 1ae:	5f00                	lw	s0,56(a4)
 1b0:	626d                	lui	tp,0x1b
 1b2:	6c72                	flw	fs8,28(sp)
    for (i = 0; i < size_b; ++i){
 1b4:	6e65                	lui	t3,0x19
        polb[i] = b[i];
 1b6:	735f 6174 6574      	0x65746174735f
        for (j = size_b -1; j >= 0; j = j-1){
 1bc:	5f00                	lw	s0,56(a4)
 1be:	6e66                	flw	ft8,88(sp)
            for (k = size_a-1; k >= 0; k = k-1 ){
 1c0:	7261                	lui	tp,0xffff8
    for (i = 0; i < size_b; ++i){
 1c2:	6e007367          	0x6e007367
 1c6:	7274                	flw	fa3,100(a2)
 1c8:	5f75                	li	t5,-3
 1ca:	6564                	flw	fs1,76(a0)
 1cc:	70796563          	bltu	s2,t2,8d6 <ext_euclid+0x200>
    for(j = 0; j < size_a + size_b -1; ++j){
 1d0:	0074                	addi	a3,sp,12
 1d2:	665f 736e 5f00      	0x5f00736e665f
    array_mod(product,mod,size_a+size_b-1);
 1d8:	6e676973          	csrrsi	s2,0x6e6,14
 1dc:	5f00                	lw	s0,56(a4)
 1de:	6c66                	flw	fs8,88(sp)
 1e0:	5f6b636f          	jal	t1,b67d6 <_stack_start+0xa67d6>
}
 1e4:	0074                	addi	a3,sp,12
 1e6:	735f 6474 7265      	0x72656474735f
 1ec:	0072                	c.slli	zero,0x1c
 1ee:	425f 6769 6e69      	0x6e696769425f
 1f4:	0074                	addi	a3,sp,12
 1f6:	675f 6d61 616d      	0x616d6d61675f
 1fc:	735f 6769 676e      	0x676e6769735f
 202:	6d61                	lui	s10,0x18
 204:	5f00                	lw	s0,56(a4)
 206:	6572                	flw	fa0,28(sp)
 208:	6461                	lui	s0,0x18
 20a:	5f00                	lw	s0,56(a4)
                line[size_b-1-j][k] = pola[k]*polb[j];
 20c:	6572                	flw	fa0,28(sp)
 20e:	746c7573          	csrrci	a0,0x746,24
 212:	6b5f 5f00 745f      	0x745f5f006b5f
 218:	006d                	c.nop	27
 21a:	6564                	flw	fs1,76(a0)
            for (k = size_a-1; k >= 0; k = k-1 ){
 21c:	756e                	flw	fa0,248(sp)
                line[size_b-1-j][k] = pola[k]*polb[j];
 21e:	5f6d                	li	t5,-5
 220:	6574                	flw	fa3,76(a0)
 222:	706d                	c.lui	zero,0xffffb
            for (k = size_a-1; k >= 0; k = k-1 ){
 224:	5f00                	lw	s0,56(a4)
 226:	775f 6863 0062      	0x626863775f
        for (j = size_b -1; j >= 0; j = j-1){
 22c:	6572                	flw	fa0,28(sp)
 22e:	746c7573          	csrrci	a0,0x746,24
            for (k = size_a-1; k >= 0; k = k-1 ){
 232:	006e6f6b          	0x6e6f6b
                line[size_b-1-j][k + j] = pola[k]*polb[j];
 236:	735f 6474 756f      	0x756f6474735f
 23c:	0074                	addi	a3,sp,12
 23e:	635f 7476 656c      	0x656c7476635f
            for (k = size_a-1; k >= 0; k = k-1 ){
 244:	006e                	c.slli	zero,0x1b
                line[size_b-1-j][k + j] = pola[k]*polb[j];
 246:	72636573          	csrrsi	a0,0x726,6
 24a:	7465                	lui	s0,0xffff9
            for (k = size_a-1; k >= 0; k = k-1 ){
 24c:	6b5f 7965 665f      	0x665f79656b5f
        for (j = size_b -1; j >= 0; j = j-1){
 252:	0071                	c.nop	28
 254:	665f 6c69 0065      	0x656c69665f
        array_mod(line[i],mod,(size_a+size_b-1));
 25a:	6572                	flw	fa0,28(sp)
 25c:	7574                	flw	fa3,108(a0)
 25e:	6e72                	flw	ft8,28(sp)
    for (i = 0; i < size_b; ++i){
 260:	615f 6464 6572      	0x65726464615f
            product[j] += line[i][j];
 266:	00317373          	csrrci	t1,fcsr,2
 26a:	6572                	flw	fa0,28(sp)
 26c:	7574                	flw	fa3,108(a0)
 26e:	6e72                	flw	ft8,28(sp)
        for(i = 0; i < size_b; ++i){
 270:	615f 6464 6572      	0x65726464615f
            product[j] += line[i][j];
 276:	00327373          	csrrci	t1,fcsr,4
 27a:	6572                	flw	fa0,28(sp)
 27c:	7574                	flw	fa3,108(a0)
        for(i = 0; i < size_b; ++i){
 27e:	6e72                	flw	ft8,28(sp)
 280:	615f 6464 6572      	0x65726464615f
    for(j = 0; j < size_a + size_b -1; ++j){
 286:	00337373          	csrrci	t1,fcsr,6
        for(i = 0; i < size_b; ++i){
 28a:	6572                	flw	fa0,28(sp)
    int line[size_b][size_a + size_b];
 28c:	7574                	flw	fa3,108(a0)
 28e:	6e72                	flw	ft8,28(sp)
 290:	615f 6464 6572      	0x65726464615f
 296:	00347373          	csrrci	t1,fcsr,8
 29a:	6e5f 6f69 7362      	0x73626f696e5f
int *polymult2(int *a, int size_a, int *b, int size_b, int star_mult){
 2a0:	7200                	flw	fs0,32(a2)
 2a2:	7465                	lui	s0,0xffff9
 2a4:	7275                	lui	tp,0xffffd
 2a6:	5f6e                	lw	t5,248(sp)
 2a8:	6461                	lui	s0,0x18
 2aa:	7264                	flw	fs1,100(a2)
 2ac:	7365                	lui	t1,0xffff9
 2ae:	72003673          	csrrc	a2,0x720,zero
    int line[size_b][size_a + size_b];
 2b2:	7465                	lui	s0,0xffff9
 2b4:	7275                	lui	tp,0xffffd
 2b6:	5f6e                	lw	t5,248(sp)
 2b8:	6461                	lui	s0,0x18
    int pola[size_a];
 2ba:	7264                	flw	fs1,100(a2)
 2bc:	7365                	lui	t1,0xffff9
 2be:	73003773          	csrrc	a4,0x730,zero
    int line[size_b][size_a + size_b];
 2c2:	6f68                	flw	fa0,92(a4)
    int pola[size_a];
 2c4:	7472                	flw	fs0,60(sp)
 2c6:	7520                	flw	fs0,104(a0)
    int polb[size_b];
 2c8:	736e                	flw	ft6,248(sp)
 2ca:	6769                	lui	a4,0x1a
 2cc:	656e                	flw	fa0,216(sp)
    int pola[size_a];
 2ce:	2064                	fld	fs1,192(s0)
    int polb[size_b];
 2d0:	6e69                	lui	t3,0x1a
 2d2:	0074                	addi	a3,sp,12
    int line[size_b][size_a + size_b];
 2d4:	615f 6574 6978      	0x69786574615f
    int pola[size_a];
 2da:	3074                	fld	fa3,224(s0)
    int polb[size_b];
 2dc:	5f00                	lw	s0,56(a4)
            line[i][j] = 0;
 2de:	6e676973          	csrrsi	s2,0x6e6,14
 2e2:	6c61                	lui	s8,0x18
    for (i = 0; i < size_b; ++i){
 2e4:	625f 6675 5f00      	0x5f006675625f
            product2[j] = 0;
 2ea:	7361                	lui	t1,0xffff8
 2ec:	6d697463          	bgeu	s2,s6,9b4 <generate_keys+0x94>
    for (i = 0; i < size_b; ++i){
 2f0:	5f65                	li	t5,-7
 2f2:	7562                	flw	fa0,56(sp)
    for(i = 0; i < size_a; ++i){
 2f4:	0066                	c.slli	zero,0x19
 2f6:	725f 7365 6c75      	0x6c757365725f
    for(i = 0; i < size_b; ++i){
 2fc:	0074                	addi	a3,sp,12
 2fe:	5f5f 6377 0068      	0x6863775f5f
    if(star_mult == 1){
 304:	746e6977          	0x746e6977
 308:	745f 6700 6e65      	0x6e656700745f
        for (j = size_b -1; j >= 0; j = j-1){
 30e:	7265                	lui	tp,0xffff9
 310:	7461                	lui	s0,0xffff8
            for (k = size_a-1; k >= 0; k = k-1 ){
 312:	5f65                	li	t5,-7
 314:	7379656b          	0x7379656b
            product2[j] = 0;
 318:	5f00                	lw	s0,56(a4)
 31a:	625f 6975 746c      	0x746c6975625f
 320:	6e69                	lui	t3,0x1a
 322:	6d5f 6d65 7063      	0x70636d656d5f
        for(j = 0; j < size_a + size_b -1; ++j){
 328:	0079                	c.nop	30
 32a:	6c5f 636f 006b      	0x6b636f6c5f
    for (i = 0; i < size_b; ++i){
 330:	544e                	lw	s0,240(sp)
 332:	5552                	lw	a0,52(sp)
        for(j = 0; j < size_a + size_b -1; ++j){
 334:	345f 5f38 6962      	0x69625f38345f
        pola[i] = a[i];
 33a:	4d74                	lw	a3,92(a0)
 33c:	632e                	flw	ft6,200(sp)
 33e:	7000                	flw	fs0,32(s0)
 340:	6f72                	flw	ft10,28(sp)
 342:	7564                	flw	fs1,108(a0)
    for(i = 0; i < size_a; ++i){
 344:	00327463          	bgeu	tp,gp,34c <polymult2+0xc0>
        pola[i] = a[i];
 348:	7865                	lui	a6,0xffff9
    for(i = 0; i < size_a; ++i){
 34a:	5f74                	lw	a3,124(a4)
        polb[i] = b[i];
 34c:	7565                	lui	a0,0xffff9
 34e:	64696c63          	bltu	s2,t1,9a6 <generate_keys+0x86>
 352:	5f00                	lw	s0,56(a4)
 354:	74697277          	0x74697277
    for(i = 0; i < size_b; ++i){
 358:	0065                	c.nop	25
        polb[i] = b[i];
 35a:	5f5f 6d74 795f      	0x795f6d745f5f
                line[size_b-1-j][k] = pola[k]*polb[j];
 360:	6165                	addi	sp,sp,112
 362:	0072                	c.slli	zero,0x1c
 364:	6f70                	flw	fa2,92(a4)
 366:	626c                	flw	fa1,68(a2)
 368:	7200                	flw	fs0,32(a2)
 36a:	6e61                	lui	t3,0x18
 36c:	6f64                	flw	fs1,92(a4)
 36e:	5f6d                	li	t5,-5
            for (k = size_a-1; k >= 0; k = k-1 ){
 370:	6176                	flw	ft2,92(sp)
                line[size_b-1-j][k] = pola[k]*polb[j];
 372:	006c                	addi	a1,sp,12
 374:	6e5f 616d 6c6c      	0x6c6c616d6e5f
            for (k = size_a-1; k >= 0; k = k-1 ){
 37a:	6c00636f          	jal	t1,6a3a <_stack_len+0x2a3a>
        for (j = size_b -1; j >= 0; j = j-1){
 37e:	20676e6f          	jal	t3,76584 <_stack_start+0x66584>
 382:	6f64                	flw	fs1,92(a4)
 384:	6275                	lui	tp,0x1d
 386:	656c                	flw	fa1,76(a0)
 388:	5f00                	lw	s0,56(a4)
 38a:	656e                	flw	fa0,216(sp)
 38c:	7478                	flw	fa4,108(s0)
        for(i = 0; i < size_b; ++i){
 38e:	0066                	c.slli	zero,0x19
    for(j = 0; j < size_a + size_b -1; ++j){
 390:	656d                	lui	a0,0x1b
 392:	67617373          	csrrci	t1,0x676,2
}
 396:	0065                	c.nop	25
 398:	5f5f 6d74 6d5f      	0x6d5f6d745f5f
 39e:	72006e6f          	jal	t3,6abe <_stack_len+0x2abe>
 3a2:	7465                	lui	s0,0xffff9
 3a4:	7275                	lui	tp,0xffffd
 3a6:	5f6e                	lw	t5,248(sp)
 3a8:	6461                	lui	s0,0x18
 3aa:	7264                	flw	fs1,100(a2)
 3ac:	7365                	lui	t1,0xffff9
 3ae:	5f003573          	csrrc	a0,0x5f0,zero
            for (k = size_a-1; k >= 0; k = k-1 ){
 3b2:	7461                	lui	s0,0xffff8
 3b4:	7865                	lui	a6,0xffff9
                line[size_b-1-j][k + j] = pola[k]*polb[j];
 3b6:	7469                	lui	s0,0xffffa
 3b8:	7300                	flw	fs0,32(a4)
 3ba:	6275                	lui	tp,0x1d
 3bc:	6174706f          	j	481d2 <_stack_start+0x381d2>
 3c0:	6772                	flw	fa4,28(sp)
 3c2:	5f00                	lw	s0,56(a4)
 3c4:	735f 6964 6964      	0x69646964735f
 3ca:	696e                	flw	fs2,216(sp)
 3cc:	0074                	addi	a3,sp,12
            for (k = size_a-1; k >= 0; k = k-1 ){
 3ce:	6f5f 6666 745f      	0x745f66666f5f
        for (j = size_b -1; j >= 0; j = j-1){
 3d4:	4500                	lw	s0,8(a0)
 3d6:	636e                	flw	ft6,216(sp)
 3d8:	4d5f 7365 6173      	0x617373654d5f
            product2[j] += line[i][j];
 3de:	63006567          	0x63006567
 3e2:	72746e6f          	jal	t3,47308 <_stack_start+0x37308>
 3e6:	00526c6f          	jal	s8,26bea <_stack_start+0x16bea>
 3ea:	665f 6572 6c65      	0x6c656572665f
        for(i = 0; i < size_b; ++i){
 3f0:	7369                	lui	t1,0xffffa
    for(j = 0; j < size_a + size_b -1; ++j){
 3f2:	0074                	addi	a3,sp,12
 3f4:	6972                	flw	fs2,28(sp)
 3f6:	676e                	flw	fa4,216(sp)
        for(i = 0; i < size_b; ++i){
 3f8:	705f 6c6f 0079      	0x796c6f705f
    int v[size_N];
 3fe:	4c5f 434f 5f4b      	0x5f4b434f4c5f
 404:	4552                	lw	a0,20(sp)
int *polydiv(int *num, int size_N, int*denum, int size_D, int mod){
 406:	53525543          	fmadd.d	fa0,ft4,fs5,fa0,unknown
 40a:	5649                	li	a2,-14
 40c:	5f45                	li	t5,-15
 40e:	0054                	addi	a3,sp,4
 410:	6974                	flw	fa3,84(a0)
 412:	315f 7400 5f69      	0x5f697400315f
 418:	0032                	c.slli	zero,0xc
 41a:	6e75                	lui	t3,0x1d
 41c:	6e676973          	csrrsi	s2,0x6e6,14
 420:	6465                	lui	s0,0x19
    int v[size_N];
 422:	6320                	flw	fs0,64(a4)
 424:	6168                	flw	fa0,68(a0)
 426:	0072                	c.slli	zero,0x1c
    int q[size_N];
 428:	6971                	lui	s2,0x1c
 42a:	315f 5f00 656e      	0x656e5f00315f
    int num_temp[size_N];
 430:	685f0077          	0x685f0077
    int denum_temp[size_D];
 434:	655f 7272 6f6e      	0x6f6e7272655f
    int num_temp[size_N];
 43a:	7300                	flw	fs0,32(a4)
    int denum_temp[size_D];
 43c:	6f68                	flw	fa0,92(a4)
 43e:	7472                	flw	fs0,60(sp)
int *polydiv(int *num, int size_N, int*denum, int size_D, int mod){
 440:	6920                	flw	fs0,80(a0)
 442:	746e                	flw	fs0,248(sp)
 444:	5f00                	lw	s0,56(a4)
 446:	745f 5f6d 6479      	0x64795f6d745f
    int denum_temp[size_D];
 44c:	7961                	lui	s2,0xffff8
 44e:	5f00                	lw	s0,56(a4)
 450:	735f 7562 0066      	0x667562735f
    for (i = 0; i < size_N; ++i){
 456:	665f 616c 7367      	0x7367616c665f
    if(size_N == 106) {
 45c:	0032                	c.slli	zero,0xc
 45e:	695f 626f 0073      	0x73626f695f
        array_mod(num_temp, mod, size_N - 1);
 464:	5f5f 4946 454c      	0x454c49465f5f
        while(num_temp[size_N - 1] < 0){
 46a:	5f00                	lw	s0,56(a4)
 46c:	626d                	lui	tp,0x1b
 46e:	74617473          	csrrci	s0,0x746,2
        num_temp[size_N - 1] = num_temp[size_N - 1] % mod;
 472:	5f65                	li	t5,-7
 474:	0074                	addi	a3,sp,12
 476:	5f5f 4673 4c49      	0x4c4946735f5f
    for (i = 0; i < size_D; ++i) {
 47c:	0045                	c.nop	17
 47e:	6d5f 7362 6174      	0x617473626d5f
	array_mod(denum_temp,mod,size_D);
 484:	6574                	flw	fa3,76(a0)
 486:	5f00                	lw	s0,56(a4)
    for (i = 0; i < size_N; ++i){
 488:	6172                	flw	ft2,28(sp)
 48a:	646e                	flw	fs0,216(sp)
 48c:	6e5f 7865 0074      	0x7478656e5f
    for (i = size_D-1; i >= 0; i = i-1){
 492:	6d5f 6c62 6e65      	0x6e656c626d5f
 498:	735f 6174 6574      	0x65746174735f
        if ( (b_N*u)%mod == 1 )
 49e:	5f00                	lw	s0,56(a4)
    for (u = 0; u < mod; ++u){
 4a0:	6e69                	lui	t3,0x1a
 4a2:	695f0063          	beq	t5,s5,b22 <generate_keys+0x202>
 4a6:	646e                	flw	fs0,216(sp)
        num_temp[i] = num[i];
 4a8:	5f00                	lw	s0,56(a4)
 4aa:	6f6c                	flw	fa1,92(a4)
 4ac:	656c6163          	bltu	s8,s6,aee <generate_keys+0x1ce>
 4b0:	5f00                	lw	s0,56(a4)
 4b2:	635f 656c 6e61      	0x6e61656c635f
    for (i = 0; i < size_N; ++i){
 4b8:	7075                	c.lui	zero,0xffffd
            num_temp[size_N - 1] = num_temp[size_N - 1]+mod;
 4ba:	5f00                	lw	s0,56(a4)
 4bc:	6e75                	lui	t3,0x1d
 4be:	63657073          	csrci	0x636,10
        array_mod(num_temp, mod, size_N);
 4c2:	6669                	lui	a2,0x1a
 4c4:	6569                	lui	a0,0x1a
 4c6:	5f64                	lw	s1,124(a4)
 4c8:	6f6c                	flw	fa1,92(a4)
 4ca:	656c6163          	bltu	s8,s6,b0c <generate_keys+0x1ec>
        denum_temp[i] = denum[i];
 4ce:	695f 666e 006f      	0x6f666e695f
 4d4:	6d5f 7861 6477      	0x647778616d5f
 4da:	725f0073          	0x725f0073
        q[i] = 0;
 4de:	6565                	lui	a0,0x19
 4e0:	746e                	flw	fs0,248(sp)
 4e2:	7300                	flw	fs0,32(a4)
 4e4:	6174                	flw	fa3,68(a0)
        v[i] = 0;
 4e6:	5f72                	lw	t5,60(sp)
        q[i] = 0;
 4e8:	756d                	lui	a0,0xffffb
 4ea:	746c                	flw	fa1,108(s0)
        v[i] = 0;
 4ec:	5f00                	lw	s0,56(a4)
 4ee:	64656573          	csrrsi	a0,0x646,10
    for (i = 0; i < size_N; ++i){
 4f2:	7200                	flw	fs0,32(a2)
        if( denum_temp[i] != 0 )
 4f4:	5f69                	li	t5,-6
    for (i = size_D-1; i >= 0; i = i-1){
 4f6:	0032                	c.slli	zero,0xc
 4f8:	5f5f 6f63 6e75      	0x6e756f635f5f
        if ( (b_N*u)%mod == 1 )
 4fe:	0074                	addi	a3,sp,12
 500:	5f5f 6176 756c      	0x756c61765f5f
    for (u = 0; u < mod; ++u){
 506:	0065                	c.nop	25
        if( num_temp[i] != 0 )
 508:	735f 6565 006b      	0x6b6565735f
    for (i = size_N-1; i >= 0; i = i-1){
 50e:	665f 6f70 5f73      	0x5f736f70665f
 514:	0074                	addi	a3,sp,12
 516:	656c                	flw	fa1,76(a0)
         if(size_N == 106) {
 518:	676e                	flw	fa4,216(sp)
 51a:	6874                	flw	fa3,84(s0)
 51c:	5f00                	lw	s0,56(a4)
        v[(d-d2)] = u*r_d;
 51e:	745f 5f6d 696d      	0x696d5f6d745f
 524:	006e                	c.slli	zero,0x1b
 526:	7570                	flw	fa2,108(a0)
 528:	6c62                	flw	fs8,24(sp)
 52a:	6369                	lui	t1,0x1a
         if(size_N == 106) {
 52c:	6b5f 7965 6100      	0x610079656b5f
            array_mod(v, mod, size_N - 1);
 532:	7272                	flw	ft4,60(sp)
 534:	7961                	lui	s2,0xffff8
 536:	6d5f 646f 5f00      	0x5f00646f6d5f
            while(v[size_N - 1] < 0){
 53c:	74727473          	csrrci	s0,0x747,4
 540:	6c5f6b6f          	jal	s6,f7404 <_stack_start+0xe7404>
            v[size_N - 1] = v[size_N - 1] % mod;
 544:	7361                	lui	t1,0xffff8
 546:	0074                	addi	a3,sp,12
 548:	665f 746e 7079      	0x7079746e665f
        product = polymult(denum_temp,size_D,v,size_D,mod,0);
 54e:	7365                	lui	t1,0xffff9
 550:	7300                	flw	fs0,32(a4)
 552:	6365                	lui	t1,0x19
 554:	6572                	flw	fa0,28(sp)
 556:	5f74                	lw	a3,124(a4)
        if(size_N == 106) {
 558:	5f79656b          	0x5f79656b
 55c:	7066                	flw	ft0,120(sp)
 55e:	5f00                	lw	s0,56(a4)
            array_mod(product, mod, size_N - 1);
 560:	6461                	lui	s0,0x18
 562:	0064                	addi	s1,sp,12
 564:	6d6f682f          	0x6d6f682f
            while(product[size_N - 1] < 0){
 568:	2f65                	jal	d20 <ntru_deceypt+0x76>
 56a:	6f74                	flw	fa3,92(a4)
 56c:	6170                	flw	fa2,68(a0)
 56e:	636c                	flw	fa1,68(a4)
 570:	7365442f          	0x7365442f
            product[size_N - 1] = product[size_N - 1] % mod;
 574:	706f746b          	0x706f746b
 578:	6f72702f          	0x6f72702f
 57c:	656a                	flw	fa0,152(sp)
 57e:	656c                	flw	fa1,76(a0)
        for (i = 0; i < size_N; ++i){
 580:	2f72                	fld	ft10,280(sp)
 582:	75636c6f          	jal	s8,36cd8 <_stack_start+0x26cd8>
 	if(size_N == 106) {
 586:	006d                	c.nop	27
            array_mod(num_temp, mod, size_N - 1);
 588:	5f5f 4c55 6e6f      	0x6e6f4c555f5f
 58e:	69720067          	jr	1687(tp) # 0 <__DYNAMIC>
            while(num_temp[size_N - 1] < 0){
 592:	315f 5f00 6567      	0x65675f00315f
 598:	6474                	flw	fa3,76(s0)
            num_temp[size_N - 1] = num_temp[size_N - 1] % mod;
 59a:	7461                	lui	s0,0xffff8
 59c:	5f65                	li	t5,-7
 59e:	7265                	lui	tp,0xffff9
 5a0:	0072                	c.slli	zero,0x1c
 5a2:	675f 6f6c 6162      	0x61626f6c675f
        for(i = 0; i < size_N; ++i){
 5a8:	5f6c                	lw	a1,124(a4)
 	if(size_N == 106) {
 5aa:	6d69                	lui	s10,0x1a
 5ac:	7570                	flw	fa2,108(a0)
            array_mod(q, mod, size_N - 1);
 5ae:	6572                	flw	fa0,28(sp)
 5b0:	705f 7274 4700      	0x47007274705f
 5b6:	554e                	lw	a0,240(sp)
            while(q[size_N - 1] < 0){
 5b8:	4320                	lw	s0,64(a4)
 5ba:	3731                	jal	4c6 <polydiv+0xca>
 5bc:	3920                	fld	fs0,112(a0)
 5be:	322e                	fld	ft4,232(sp)
            q[size_N - 1] = q[size_N - 1] % mod;
 5c0:	302e                	fld	ft0,232(sp)
 5c2:	2d20                	fld	fs0,88(a0)
 5c4:	616d                	addi	sp,sp,240
 5c6:	6372                	flw	ft6,28(sp)
    int v[size_N];
 5c8:	3d68                	fld	fa0,248(a0)
        for (i = size_N-1; i >= 0; i = i-1){
 5ca:	7672                	flw	fa2,60(sp)
 5cc:	6d693233          	0x6d693233
 5d0:	6d2d2063          	0x6d2d2063
 5d4:	6261                	lui	tp,0x18
 5d6:	3d69                	jal	470 <polydiv+0x74>
 5d8:	6c69                	lui	s8,0x1a
                v[size_N - 1] = v[size_N - 1]+mod;
 5da:	3370                	fld	fa2,224(a4)
 5dc:	2032                	fld	ft0,264(sp)
 5de:	6d2d                	lui	s10,0xb
 5e0:	646f6d63          	bltu	t5,t1,c3a <ntru_encyrpt+0x26>
            array_mod(v, mod, size_N);
 5e4:	6c65                	lui	s8,0x19
 5e6:	6d3d                	lui	s10,0xf
 5e8:	6465                	lui	s0,0x19
 5ea:	6e61                	lui	t3,0x18
                product[size_N - 1] = product[size_N - 1]+mod;
 5ec:	2079                	jal	67a <polydiv+0x27e>
 5ee:	6d2d                	lui	s10,0xb
 5f0:	7574                	flw	fa3,108(a0)
 5f2:	656e                	flw	fa0,216(sp)
            array_mod(product, mod, size_N);
 5f4:	723d                	lui	tp,0xfffef
 5f6:	656b636f          	jal	t1,b6c4c <_stack_start+0xa6c4c>
 5fa:	2074                	fld	fa3,192(s0)
 5fc:	672d                	lui	a4,0xb
 5fe:	2d20                	fld	fs0,88(a0)
            num_temp[i] = num_temp[i] - product[i];
 600:	2d20734f          	0x2d20734f
 604:	7666                	flw	fa2,120(sp)
 606:	7369                	lui	t1,0xffffa
 608:	6269                	lui	tp,0x1a
        for (i = 0; i < size_N; ++i){
 60a:	6c69                	lui	s8,0x1a
 60c:	7469                	lui	s0,0xffffa
            num_temp[i] = num_temp[i] - product[i];
 60e:	3d79                	jal	4ac <polydiv+0xb0>
 610:	6968                	flw	fa0,84(a0)
 612:	6464                	flw	fs1,76(s0)
        for (i = 0; i < size_N; ++i){
 614:	6e65                	lui	t3,0x19
                num_temp[size_N - 1] = num_temp[size_N - 1]+mod;
 616:	5f00                	lw	s0,56(a4)
 618:	6e75                	lui	t3,0x1d
 61a:	7375                	lui	t1,0xffffd
 61c:	6465                	lui	s0,0x19
            array_mod(num_temp, mod, size_N);
 61e:	725f 6e61 0064      	0x646e61725f
 624:	696c                	flw	fa1,84(a0)
 626:	656e                	flw	fa0,216(sp)
            q[i] = q[i] + v[i];
 628:	5f00                	lw	s0,56(a4)
 62a:	00736477          	0x736477
 62e:	5f5f 6d74 775f      	0x775f6d745f5f
        for(i = 0; i < size_N; ++i){
 634:	6164                	flw	fs1,68(a0)
            q[i] = q[i] + v[i];
 636:	0079                	c.nop	30
 638:	675f 756c 0065      	0x65756c675f
                q[size_N - 1] = q[size_N - 1]+mod;
 63e:	746e                	flw	fs0,248(sp)
 640:	7572                	flw	fa0,60(sp)
 642:	655f 636e 7279      	0x7279636e655f
            array_mod(q, mod, size_N);
 648:	7470                	flw	fa2,108(s0)
 64a:	5f00                	lw	s0,56(a4)
 64c:	7a697373          	csrrci	t1,0x7a6,18
            if( num_temp[i] != 0 )
 650:	5f65                	li	t5,-7
        for (i = size_N-1; i >= 0; i = i-1){
 652:	0074                	addi	a3,sp,12
 654:	6c5f 3436 5f61      	0x5f6134366c5f
            v[i] = 0;
 65a:	7562                	flw	fa0,56(sp)
 65c:	0066                	c.slli	zero,0x19
 65e:	6564                	flw	fs1,76(a0)
        for (i = 0; i < size_N; ++i){
 660:	756e                	flw	fa0,248(sp)
 662:	006d                	c.nop	27
 664:	735f 6769 665f      	0x665f6769735f
    for(i = 0; i < size_N; ++i){
 66a:	6e75                	lui	t3,0x1d
        result[i] = q[i];
 66c:	6e5f0063          	beq	t5,t0,d4c <ntru_deceypt+0xa2>
 670:	7562                	flw	fa0,56(sp)
 672:	0066                	c.slli	zero,0x19
    for(i = 0; i < size_N; ++i){
 674:	755f 756e 6573      	0x6573756e755f
    for(i = size_N; i < (2*size_N); ++i){
 67a:	0064                	addi	s1,sp,12
        result[i] = num_temp[i-size_N];
 67c:	6f70                	flw	fa2,92(a4)
 67e:	796c                	flw	fa1,116(a0)
 680:	0052                	c.slli	zero,0x14
 682:	657a6973          	csrrsi	s2,0x657,20
    for(i = size_N; i < (2*size_N); ++i){
 686:	445f 5f00 745f      	0x745f5f00445f
}
 68c:	5f6d                	li	t5,-5
 68e:	7369                	lui	t1,0xffffa
 690:	7364                	flw	fs1,100(a4)
 692:	0074                	addi	a3,sp,12
 694:	6c5f 636f 6c61      	0x6c61636f6c5f
 69a:	6974                	flw	fa3,84(a0)
 69c:	656d                	lui	a0,0x1b
 69e:	625f 6675 5f00      	0x5f006675625f
 6a4:	736f6c63          	bltu	t5,s6,ddc <main_entry>
 6a8:	0065                	c.nop	25
 6aa:	725f 3834 5f00      	0x5f003834725f
 6b0:	626d                	lui	tp,0x1b
        result[i] = q[i];
 6b2:	6f74                	flw	fa3,92(a4)
 6b4:	735f6377          	0x735f6377
 6b8:	6174                	flw	fa3,68(a0)
 6ba:	6574                	flw	fa3,76(a0)
 6bc:	5f00                	lw	s0,56(a4)
    for(i = 0; i < size_N; ++i){
 6be:	3570                	fld	fa2,232(a0)
        result[i] = q[i];
 6c0:	616d0073          	0x616d0073
        result[i] = num_temp[i-size_N];
 6c4:	6e69                	lui	t3,0x1a
 6c6:	5f00                	lw	s0,56(a4)
 6c8:	745f 5f6d 646d      	0x646d5f6d745f
 6ce:	7961                	lui	s2,0xffff8
    for(i = size_N; i < (2*size_N); ++i){
 6d0:	7300                	flw	fs0,32(a4)
 6d2:	7a69                	lui	s4,0xffffa
 6d4:	5f65                	li	t5,-7
    int ri_2[size]; // MX-ring poly, a
 6d6:	0061                	c.nop	24
 6d8:	657a6973          	csrrsi	s2,0x657,20
 6dc:	625f 6300 7472      	0x74726300625f
int* ext_euclid(int* polyR, int* polyf, int size, int mod) {
 6e2:	2e30                	fld	fa2,88(a2)
 6e4:	4e470053          	0x4e470053
 6e8:	2055                	jal	78c <ext_euclid+0xb6>
 6ea:	5341                	li	t1,-16
 6ec:	3220                	fld	fs0,96(a2)
 6ee:	332e                	fld	ft6,232(sp)
 6f0:	0032                	c.slli	zero,0xc

Disassembly of section .comment:

00000000 <.comment>:
  .endr
   0:	3a434347          	fmsub.d	ft6,ft6,ft4,ft7,rmm
   4:	2820                	fld	fs0,80(s0)
   6:	29554e47          	fmsub.s	ft8,fa0,fs5,ft5,rmm
   a:	3920                	fld	fs0,112(a0)
   c:	322e                	fld	ft4,232(sp)
   e:	302e                	fld	ft0,232(sp)
	...

Disassembly of section .riscv.attributes:

00000000 <.riscv.attributes>:
   0:	2541                	jal	680 <polydiv+0x284>
   2:	0000                	unimp
   4:	7200                	flw	fs0,32(a2)
   6:	7369                	lui	t1,0xffffa
   8:	01007663          	bgeu	zero,a6,14 <__DYNAMIC+0x14>
   c:	0000001b          	0x1b
  10:	1004                	addi	s1,sp,32
  12:	7205                	lui	tp,0xfffe1
  14:	3376                	fld	ft6,376(sp)
  16:	6932                	flw	fs2,12(sp)
  18:	7032                	flw	ft0,44(sp)
  1a:	5f30                	lw	a2,120(a4)
  1c:	326d                	jal	fffff9c6 <_stack_start+0xfffef9c6>
  1e:	3070                	fld	fa2,224(s0)
  20:	635f 7032 0030      	0x307032635f

Disassembly of section .debug_frame:

00000000 <.debug_frame>:
   0:	000c                	0xc
   2:	0000                	unimp
   4:	ffff                	0xffff
   6:	ffff                	0xffff
   8:	0001                	nop
   a:	7c01                	lui	s8,0xfffe0
   c:	0d01                	addi	s10,s10,0
   e:	0002                	c.slli64	zero
  10:	000c                	0xc
  12:	0000                	unimp
  14:	0000                	unimp
  16:	0000                	unimp
  18:	008c                	addi	a1,sp,64
  1a:	0000                	unimp
  1c:	0006                	c.slli	zero,0x1
  1e:	0000                	unimp
  20:	000c                	0xc
  22:	0000                	unimp
  24:	0000                	unimp
  26:	0000                	unimp
  28:	0092                	slli	ra,ra,0x4
  2a:	0000                	unimp
  2c:	001e                	c.slli	zero,0x7
  2e:	0000                	unimp
  30:	0058                	addi	a4,sp,4
  32:	0000                	unimp
  34:	0000                	unimp
  36:	0000                	unimp
  38:	00b0                	addi	a2,sp,72
  3a:	0000                	unimp
  3c:	01dc                	addi	a5,sp,196
  3e:	0000                	unimp
  40:	0e42                	slli	t3,t3,0x10
  42:	4450                	lw	a2,12(s0)
  44:	0a980593          	addi	a1,a6,169 # ffff90a9 <_stack_start+0xfffe90a9>
  48:	944e                	add	s0,s0,s3
  4a:	9706                	add	a4,a4,ra
  4c:	5009                	c.li	zero,-30
  4e:	0288                	addi	a0,sp,320
  50:	0389                	addi	t2,t2,2
  52:	0c42                	slli	s8,s8,0x10
  54:	0008                	0x8
  56:	9252                	add	tp,tp,s4
  58:	9504                	0x9504
  5a:	99089607          	0x99089607
  5e:	9b0c9a0b          	0x9b0c9a0b
  62:	810d                	srli	a0,a0,0x3
  64:	0301                	addi	t1,t1,0
  66:	00fe                	slli	ra,ra,0x1f
  68:	0c0a                	slli	s8,s8,0x2
  6a:	5002                	0x5002
  6c:	c142                	sw	a6,128(sp)
  6e:	c842                	sw	a6,16(sp)
  70:	c942                	sw	a6,144(sp)
  72:	d242                	sw	a6,36(sp)
  74:	d342                	sw	a6,164(sp)
  76:	d442                	sw	a6,40(sp)
  78:	d542                	sw	a6,168(sp)
  7a:	d642                	sw	a6,44(sp)
  jal x0, default_exc_handler
  7c:	d742                	sw	a6,172(sp)
  7e:	d842                	sw	a6,48(sp)
  jal x0, reset_handler
  80:	d942                	sw	a6,176(sp)
  82:	da42                	sw	a6,52(sp)
  jal x0, default_exc_handler
  84:	db42                	sw	a6,180(sp)
  86:	0e4a                	slli	t3,t3,0x12
  jal x0, default_exc_handler
  88:	4200                	lw	s0,0(a2)
  8a:	003c000b          	0x3c000b
    asm volatile(
  8e:	0000                	unimp
}
  90:	0000                	unimp
    for(i=0;i<(length/3);i++) {
  92:	0000                	unimp
  94:	028c                	addi	a1,sp,320
  96:	0000                	unimp
    asm volatile(
  98:	0170                	addi	a2,sp,140
    for(i=0;i<(length/3);i++) {
  9a:	0000                	unimp
  9c:	0e56                	slli	t3,t3,0x15
  9e:	4e20                	lw	s0,88(a2)
}
  a0:	0188                	addi	a0,sp,192
    asm volatile(
  a2:	0289                	addi	t0,t0,2
  a4:	0392                	slli	t2,t2,0x4
  a6:	07960493          	addi	s1,a2,121 # 1a079 <_stack_start+0xa079>
  aa:	0594                	addi	a3,sp,704
    for(i=0;i<(length/3);i++) {
  ac:	0695                	addi	a3,a3,5
  ae:	0c42                	slli	s8,s8,0x10
int *polymult(int *a, int size_a, int *b, int size_b, int mod, int star_mult){
  b0:	0008                	0x8
  b2:	e602                	fsw	ft0,12(sp)
  b4:	0c0a                	slli	s8,s8,0x2
  b6:	2002                	fld	ft0,0(sp)
  b8:	c842                	sw	a6,16(sp)
  ba:	c942                	sw	a6,144(sp)
    int line[size_b][size_a + size_b];
  bc:	d242                	sw	a6,36(sp)
  be:	d342                	sw	a6,164(sp)
int *polymult(int *a, int size_a, int *b, int size_b, int mod, int star_mult){
  c0:	d442                	sw	a6,40(sp)
  c2:	d542                	sw	a6,168(sp)
    int line[size_b][size_a + size_b];
  c4:	d642                	sw	a6,44(sp)
  c6:	0e4a                	slli	t3,t3,0x12
  c8:	4200                	lw	s0,0(a2)
  ca:	0054000b          	0x54000b
  ce:	0000                	unimp
int *polymult(int *a, int size_a, int *b, int size_b, int mod, int star_mult){
  d0:	0000                	unimp
  d2:	0000                	unimp
  d4:	03fc                	addi	a5,sp,460
  d6:	0000                	unimp
  d8:	02da                	slli	t0,t0,0x16
  da:	0000                	unimp
  dc:	0e46                	slli	t3,t3,0x11
  de:	5e50                	lw	a2,60(a2)
  e0:	0288                	addi	a0,sp,320
    int line[size_b][size_a + size_b];
  e2:	0389                	addi	t2,t2,2
int *polymult(int *a, int size_a, int *b, int size_b, int mod, int star_mult){
  e4:	0492                	slli	s1,s1,0x4
    int line[size_b][size_a + size_b];
  e6:	06940593          	addi	a1,s0,105 # 19069 <_stack_start+0x9069>
  ea:	0795                	addi	a5,a5,5
    int pola[size_a];
  ec:	0896                	slli	a7,a7,0x5
  ee:	0a980997          	auipc	s3,0xa980
int *polymult(int *a, int size_a, int *b, int size_b, int mod, int star_mult){
  f2:	0b99                	addi	s7,s7,6
    int line[size_b][size_a + size_b];
  f4:	01810d9b          	0x1810d9b
    int pola[size_a];
  f8:	0c9a                	slli	s9,s9,0x6
    int polb[size_b];
  fa:	0c42                	slli	s8,s8,0x10
  fc:	0008                	0x8
    int line[size_b][size_a + size_b];
  fe:	0a026a03          	0xa026a03
    int pola[size_a];
 102:	020c                	addi	a1,sp,256
 104:	4250                	lw	a2,4(a2)
int *polymult(int *a, int size_a, int *b, int size_b, int mod, int star_mult){
 106:	42c1                	li	t0,16
 108:	42c8                	lw	a0,4(a3)
    int pola[size_a];
 10a:	42c9                	li	t0,18
            line[i][j] = 0;
 10c:	42d2                	lw	t0,20(sp)
 10e:	42d442d3          	0x42d442d3
    int polb[size_b];
 112:	42d5                	li	t0,21
int *polymult(int *a, int size_a, int *b, int size_b, int mod, int star_mult){
 114:	42d6                	lw	t0,84(sp)
    int pola[size_a];
 116:	42d842d7          	0x42d842d7
    int polb[size_b];
 11a:	42d9                	li	t0,22
            line[i][j] = 0;
 11c:	42da                	lw	t0,148(sp)
 11e:	000e4adb          	0xe4adb
    for (i = 0; i < size_b; ++i){
 122:	0b42                	slli	s6,s6,0x10
 124:	0054                	addi	a3,sp,4
            product[j] = 0;
 126:	0000                	unimp
 128:	0000                	unimp
 12a:	0000                	unimp
 12c:	06d6                	slli	a3,a3,0x15
    for (i = 0; i < size_b; ++i){
 12e:	0000                	unimp
 130:	024a                	slli	tp,tp,0x12
    for (i = 0; i < size_a; ++i){
 132:	0000                	unimp
 134:	0e46                	slli	t3,t3,0x11
 136:	5e50                	lw	a2,60(a2)
	array_mod(pola,mod,size_a);
 138:	0288                	addi	a0,sp,320
 13a:	0389                	addi	t2,t2,2
 13c:	0492                	slli	s1,s1,0x4
 13e:	06940593          	addi	a1,s0,105
 142:	0795                	addi	a5,a5,5
    for (i = 0; i < size_b; ++i){
 144:	0896                	slli	a7,a7,0x5
 146:	0a980997          	auipc	s3,0xa980
 14a:	0b99                	addi	s7,s7,6
 14c:	01810d9b          	0x1810d9b
	array_mod(polb,mod,size_b);
 150:	0c9a                	slli	s9,s9,0x6
 152:	0c42                	slli	s8,s8,0x10
 154:	0008                	0x8
    if(star_mult == 1){
 156:	0a00fa03          	0xa00fa03
 15a:	020c                	addi	a1,sp,256
 15c:	4250                	lw	a2,4(a2)
 15e:	42c1                	li	t0,16
 160:	42c8                	lw	a0,4(a3)
 162:	42c9                	li	t0,18
 164:	42d2                	lw	t0,20(sp)
 166:	42d442d3          	0x42d442d3
        for (j = size_b -1; j >= 0; j = j-1){
 16a:	42d5                	li	t0,21
 16c:	42d6                	lw	t0,84(sp)
            for (k = size_a-1; k >= 0; k = k-1 ){
 16e:	42d842d7          	0x42d842d7
            product[j] = 0;
 172:	42d9                	li	t0,22
 174:	42da                	lw	t0,148(sp)
 176:	000e4adb          	0xe4adb
            line[i][j] = 0;
 17a:	0b42                	slli	s6,s6,0x10
            product[j] = 0;
 17c:	0054                	addi	a3,sp,4
 17e:	0000                	unimp
        for(j = 0; j < size_a + size_b -1; ++j){
 180:	0000                	unimp
 182:	0000                	unimp
 184:	0920                	addi	s0,sp,152
 186:	0000                	unimp
    for (i = 0; i < size_b; ++i){
 188:	02f4                	addi	a3,sp,332
 18a:	0000                	unimp
 18c:	0e42                	slli	t3,t3,0x10
 18e:	03f0                	addi	a2,sp,460
        for(j = 0; j < size_a + size_b -1; ++j){
 190:	814c                	0x814c
 192:	8801                	andi	s0,s0,0
        pola[i] = a[i];
 194:	8902                	jr	s2
 196:	080c4203          	lbu	tp,128(s8) # fffe0080 <_stack_start+0xfffd0080>
 19a:	6400                	flw	fs0,8(s0)
 19c:	0492                	slli	s1,s1,0x4
 19e:	06940593          	addi	a1,s0,105
 1a2:	0795                	addi	a5,a5,5
 1a4:	0896                	slli	a7,a7,0x5
    for (i = 0; i < size_a; ++i){
 1a6:	0c9a0997          	auipc	s3,0xc9a0
        polb[i] = b[i];
 1aa:	0a98                	addi	a4,sp,336
 1ac:	0b99                	addi	s7,s7,6
 1ae:	0a01dc03          	lhu	s8,160(gp)
 1b2:	020c                	addi	a1,sp,256
    for (i = 0; i < size_b; ++i){
 1b4:	03f0                	addi	a2,sp,460
        polb[i] = b[i];
 1b6:	c144                	sw	s1,4(a0)
    for (i = 0; i < size_b; ++i){
 1b8:	c844                	sw	s1,20(s0)
    if(star_mult == 1){
 1ba:	c944                	sw	s1,20(a0)
        for (j = size_b -1; j >= 0; j = j-1){
 1bc:	d244                	sw	s1,36(a2)
 1be:	d344                	sw	s1,36(a4)
            for (k = size_a-1; k >= 0; k = k-1 ){
 1c0:	d444                	sw	s1,44(s0)
    for (i = 0; i < size_b; ++i){
 1c2:	d544                	sw	s1,44(a0)
 1c4:	d644                	sw	s1,44(a2)
 1c6:	d744                	sw	s1,44(a4)
 1c8:	d844                	sw	s1,52(s0)
 1ca:	d944                	sw	s1,52(a0)
 1cc:	da44                	sw	s1,52(a2)
    for(j = 0; j < size_a + size_b -1; ++j){
 1ce:	0e4a                	slli	t3,t3,0x12
 1d0:	4200                	lw	s0,0(a2)
 1d2:	0034000b          	0x34000b
    array_mod(product,mod,size_a+size_b-1);
 1d6:	0000                	unimp
 1d8:	0000                	unimp
 1da:	0000                	unimp
 1dc:	0c14                	addi	a3,sp,528
 1de:	0000                	unimp
 1e0:	0096                	slli	ra,ra,0x5
}
 1e2:	0000                	unimp
 1e4:	0e42                	slli	t3,t3,0x10
 1e6:	01e0                	addi	s0,sp,204
 1e8:	8846                	mv	a6,a7
 1ea:	8902                	jr	s2
 1ec:	5a049203          	lh	tp,1440(s1)
 1f0:	0181                	addi	gp,gp,0
 1f2:	06940593          	addi	a1,s0,105
 1f6:	5402                	lw	s0,32(sp)
 1f8:	c10a                	sw	sp,128(sp)
 1fa:	c842                	sw	a6,16(sp)
 1fc:	c942                	sw	a6,144(sp)
 1fe:	d242                	sw	a6,36(sp)
 200:	d342                	sw	a6,164(sp)
 202:	d442                	sw	a6,40(sp)
 204:	0e42                	slli	t3,t3,0x10
 206:	4200                	lw	s0,0(a2)
 208:	0000000b          	0xb
                line[size_b-1-j][k] = pola[k]*polb[j];
 20c:	0040                	addi	s0,sp,4
 20e:	0000                	unimp
 210:	0000                	unimp
 212:	0000                	unimp
 214:	0caa                	slli	s9,s9,0xa
 216:	0000                	unimp
 218:	00c8                	addi	a0,sp,68
 21a:	0000                	unimp
            for (k = size_a-1; k >= 0; k = k-1 ){
 21c:	0e42                	slli	t3,t3,0x10
                line[size_b-1-j][k] = pola[k]*polb[j];
 21e:	4430                	lw	a2,72(s0)
 220:	0288                	addi	a0,sp,320
 222:	924e0593          	addi	a1,t3,-1756 # 19924 <_stack_start+0x9924>
            for (k = size_a-1; k >= 0; k = k-1 ){
 226:	9504                	0x9504
        for (j = size_b -1; j >= 0; j = j-1){
 228:	58099707          	0x58099707
 22c:	0181                	addi	gp,gp,0
 22e:	0389                	addi	t2,t2,2
            for (k = size_a-1; k >= 0; k = k-1 ){
 230:	0694                	addi	a3,sp,832
 232:	0896                	slli	a7,a7,0x5
                line[size_b-1-j][k + j] = pola[k]*polb[j];
 234:	5202                	lw	tp,32(sp)
 236:	c10a                	sw	sp,128(sp)
 238:	c842                	sw	a6,16(sp)
 23a:	c942                	sw	a6,144(sp)
 23c:	d242                	sw	a6,36(sp)
 23e:	d342                	sw	a6,164(sp)
 240:	d442                	sw	a6,40(sp)
 242:	d542                	sw	a6,168(sp)
            for (k = size_a-1; k >= 0; k = k-1 ){
 244:	d642                	sw	a6,44(sp)
                line[size_b-1-j][k + j] = pola[k]*polb[j];
 246:	d742                	sw	a6,172(sp)
 248:	0e42                	slli	t3,t3,0x10
 24a:	4200                	lw	s0,0(a2)
            for (k = size_a-1; k >= 0; k = k-1 ){
 24c:	0000000b          	0xb
        for (j = size_b -1; j >= 0; j = j-1){
 250:	002c                	addi	a1,sp,8
 252:	0000                	unimp
 254:	0000                	unimp
 256:	0000                	unimp
        array_mod(line[i],mod,(size_a+size_b-1));
 258:	0f6e                	slli	t5,t5,0x1b
 25a:	0000                	unimp
 25c:	0138                	addi	a4,sp,136
 25e:	0000                	unimp
    for (i = 0; i < size_b; ++i){
 260:	0e44                	addi	s1,sp,788
 262:	08b0                	addi	a2,sp,88
 264:	815e                	mv	sp,s7
            product[j] += line[i][j];
 266:	8801                	andi	s0,s0,0
 268:	8902                	jr	s2
 26a:	03049203          	lh	tp,48(s1)
 26e:	00f8                	addi	a4,sp,76
        for(i = 0; i < size_b; ++i){
 270:	c10a                	sw	sp,128(sp)
            product[j] += line[i][j];
 272:	c844                	sw	s1,20(s0)
 274:	c944                	sw	s1,20(a0)
 276:	d244                	sw	s1,36(a2)
 278:	0e46                	slli	t3,t3,0x11
 27a:	4200                	lw	s0,0(a2)
 27c:	0000000b          	0xb
