
led.elf:     file format elf32-littleriscv


Disassembly of section .vectors:

00000000 <_stack_start-0x10000>:
  // external interrupts are handled by the same callback
  // until compiler supports IRQ routines
  .org 0x00
  .rept 31
  nop
  .endr
   0:	00000013          	nop
   4:	00000013          	nop
   8:	00000013          	nop
   c:	00000013          	nop
  10:	00000013          	nop
  14:	00000013          	nop
  18:	00000013          	nop
  1c:	00000013          	nop
  20:	00000013          	nop
  24:	00000013          	nop
  28:	00000013          	nop
  2c:	00000013          	nop
  30:	00000013          	nop
  34:	00000013          	nop
  38:	00000013          	nop
  3c:	00000013          	nop
  40:	00000013          	nop
  44:	00000013          	nop
  48:	00000013          	nop
  4c:	00000013          	nop
  50:	00000013          	nop
  54:	00000013          	nop
  58:	00000013          	nop
  5c:	00000013          	nop
  60:	00000013          	nop
  64:	00000013          	nop
  68:	00000013          	nop
  6c:	00000013          	nop
  70:	00000013          	nop
  74:	00000013          	nop
  78:	00000013          	nop
  jal x0, default_exc_handler
  7c:	01e0006f          	j	9a <default_exc_handler>

  // reset vector
  .org 0x80
  jal x0, reset_handler
  80:	01e0006f          	j	9e <reset_handler>

  // illegal instruction exception
  .org 0x84
  jal x0, default_exc_handler
  84:	0160006f          	j	9a <default_exc_handler>

  // ecall handler
  .org 0x88
  jal x0, default_exc_handler
  88:	0120006f          	j	9a <default_exc_handler>

Disassembly of section .text:

0000008c <delay_loop_ibex>:
  8c:	0001                	nop
  8e:	0001                	nop
  90:	0001                	nop
  92:	0001                	nop
  94:	157d                	addi	a0,a0,-1
  96:	f97d                	bnez	a0,8c <delay_loop_ibex>
  98:	8082                	ret

0000009a <default_exc_handler>:
  jal x0, default_exc_handler
  9a:	0000006f          	j	9a <default_exc_handler>

0000009e <reset_handler>:
  mv  x1, x0
  9e:	00000093          	li	ra,0
  mv  x2, x1
  a2:	8106                	mv	sp,ra
  mv  x3, x1
  a4:	8186                	mv	gp,ra
  mv  x4, x1
  a6:	8206                	mv	tp,ra
  mv  x5, x1
  a8:	8286                	mv	t0,ra
  mv  x6, x1
  aa:	8306                	mv	t1,ra
  mv  x7, x1
  ac:	8386                	mv	t2,ra
  mv  x8, x1
  ae:	8406                	mv	s0,ra
  mv  x9, x1
  b0:	8486                	mv	s1,ra
  mv x10, x1
  b2:	8506                	mv	a0,ra
  mv x11, x1
  b4:	8586                	mv	a1,ra
  mv x12, x1
  b6:	8606                	mv	a2,ra
  mv x13, x1
  b8:	8686                	mv	a3,ra
  mv x14, x1
  ba:	8706                	mv	a4,ra
  mv x15, x1
  bc:	8786                	mv	a5,ra
  mv x16, x1
  be:	8806                	mv	a6,ra
  mv x17, x1
  c0:	8886                	mv	a7,ra
  mv x18, x1
  c2:	8906                	mv	s2,ra
  mv x19, x1
  c4:	8986                	mv	s3,ra
  mv x20, x1
  c6:	8a06                	mv	s4,ra
  mv x21, x1
  c8:	8a86                	mv	s5,ra
  mv x22, x1
  ca:	8b06                	mv	s6,ra
  mv x23, x1
  cc:	8b86                	mv	s7,ra
  mv x24, x1
  ce:	8c06                	mv	s8,ra
  mv x25, x1
  d0:	8c86                	mv	s9,ra
  mv x26, x1
  d2:	8d06                	mv	s10,ra
  mv x27, x1
  d4:	8d86                	mv	s11,ra
  mv x28, x1
  d6:	8e06                	mv	t3,ra
  mv x29, x1
  d8:	8e86                	mv	t4,ra
  mv x30, x1
  da:	8f06                	mv	t5,ra
  mv x31, x1
  dc:	8f86                	mv	t6,ra
  la   x2, _stack_start
  de:	00010117          	auipc	sp,0x10
  e2:	f2210113          	addi	sp,sp,-222 # 10000 <_stack_start>

000000e6 <_start>:
  la x26, _bss_start
  e6:	16c00d13          	li	s10,364
  la x27, _bss_end
  ea:	16c00d93          	li	s11,364
  bge x26, x27, zero_loop_end
  ee:	01bd5763          	bge	s10,s11,fc <main_entry>

000000f2 <zero_loop>:
  sw x0, 0(x26)
  f2:	000d2023          	sw	zero,0(s10)
  addi x26, x26, 4
  f6:	0d11                	addi	s10,s10,4
  ble x26, x27, zero_loop
  f8:	ffaddde3          	bge	s11,s10,f2 <zero_loop>

000000fc <main_entry>:
  addi x10, x0, 0
  fc:	00000513          	li	a0,0
  addi x11, x0, 0
 100:	00000593          	li	a1,0
  jal x1, main
 104:	004000ef          	jal	ra,108 <main>

00000108 <main>:
 108:	1141                	addi	sp,sp,-16
 10a:	27100513          	li	a0,625
 10e:	c606                	sw	ra,12(sp)
 110:	c422                	sw	s0,8(sp)
 112:	3fad                	jal	8c <delay_loop_ibex>
 114:	3b4987b7          	lui	a5,0x3b498
 118:	6431                	lui	s0,0xc
 11a:	6ce78793          	addi	a5,a5,1742 # 3b4986ce <_stack_start+0x3b4886ce>
 11e:	c81c                	sw	a5,16(s0)
 120:	27100513          	li	a0,625
 124:	37a5                	jal	8c <delay_loop_ibex>
 126:	07e4e7b7          	lui	a5,0x7e4e
 12a:	10478793          	addi	a5,a5,260 # 7e4e104 <_stack_start+0x7e3e104>
 12e:	c81c                	sw	a5,16(s0)
 130:	27100513          	li	a0,625
 134:	3fa1                	jal	8c <delay_loop_ibex>
 136:	0dfb37b7          	lui	a5,0xdfb3
 13a:	5cc78793          	addi	a5,a5,1484 # dfb35cc <_stack_start+0xdfa35cc>
 13e:	c81c                	sw	a5,16(s0)
 140:	27100513          	li	a0,625
 144:	37a1                	jal	8c <delay_loop_ibex>
 146:	2a8fd7b7          	lui	a5,0x2a8fd
 14a:	31278793          	addi	a5,a5,786 # 2a8fd312 <_stack_start+0x2a8ed312>
 14e:	40b2                	lw	ra,12(sp)
 150:	c81c                	sw	a5,16(s0)
 152:	4422                	lw	s0,8(sp)
 154:	4501                	li	a0,0
 156:	0141                	addi	sp,sp,16
 158:	8082                	ret

0000015a <__CTOR_LIST__>:
	...

00000162 <__CTOR_END__>:
	...

0000016a <__DTOR_END__>:
	...

Disassembly of section .stack:

0000c000 <_stack-0x2000>:
	...

Disassembly of section .debug_info:

00000000 <.debug_info>:
  .endr
   0:	0bb5                	addi	s7,s7,13
   2:	0000                	unimp
   4:	0004                	0x4
   6:	0000                	unimp
   8:	0000                	unimp
   a:	0104                	addi	s1,sp,128
   c:	0422                	slli	s0,s0,0x8
   e:	0000                	unimp
  10:	ea0c                	fsw	fa1,16(a2)
  12:	0001                	nop
  14:	aa00                	fsd	fs0,16(a2)
  16:	0000                	unimp
  18:	2000                	fld	fs0,0(s0)
	...
  22:	0000                	unimp
  24:	0200                	addi	s0,sp,256
  26:	0601                	addi	a2,a2,0
  28:	02ed                	addi	t0,t0,27
  2a:	0000                	unimp
  2c:	0102                	c.slli64	sp
  2e:	eb08                	fsw	fa0,16(a4)
  30:	0002                	c.slli64	zero
  32:	0200                	addi	s0,sp,256
  34:	0502                	c.slli64	a0
  36:	00000307          	0x307
  3a:	0202                	c.slli64	tp
  3c:	0001f007          	0x1f007
  40:	0200                	addi	s0,sp,256
  42:	0504                	addi	s1,sp,640
  44:	00ed                	addi	ra,ra,27
  46:	0000                	unimp
  48:	0402                	c.slli64	s0
  4a:	00006207          	0x6207
  4e:	0200                	addi	s0,sp,256
  50:	0508                	addi	a0,sp,640
  52:	00e8                	addi	a0,sp,76
  54:	0000                	unimp
  56:	0002bf03          	0x2bf03
  5a:	0200                	addi	s0,sp,256
  5c:	1969                	addi	s2,s2,-6
  5e:	0062                	c.slli	zero,0x18
  60:	0000                	unimp
  62:	0802                	c.slli64	a6
  64:	00005d07          	0x5d07
  68:	0400                	addi	s0,sp,512
  6a:	0504                	addi	s1,sp,640
  6c:	6e69                	lui	t3,0x1a
  6e:	0074                	addi	a3,sp,12
  70:	0402                	c.slli64	s0
  72:	00006707          	0x6707
  76:	0500                	addi	s0,sp,640
  78:	0070                	addi	a2,sp,12
  7a:	0000                	unimp
  jal x0, default_exc_handler
  7c:	0002c103          	lbu	sp,0(t0)
  jal x0, reset_handler
  80:	0300                	addi	s0,sp,384
  82:	143c                	addi	a5,sp,552
  jal x0, default_exc_handler
  84:	0056                	c.slli	zero,0x15
  86:	0000                	unimp
  jal x0, default_exc_handler
  88:	1002                	c.slli	zero,0x20
  8a:	7904                	flw	fs1,48(a0)
  8c:	0002                	c.slli64	zero
  8e:	0600                	addi	s0,sp,768
  90:	00000233          	add	tp,zero,zero
  94:	5e04                	lw	s1,56(a2)
  96:	1701                	addi	a4,a4,-32
  98:	0070                	addi	a2,sp,12
  jal x0, default_exc_handler
  9a:	0000                	unimp
  9c:	0002b803          	0x2b803
  mv  x1, x0
  a0:	0500                	addi	s0,sp,640
  mv  x2, x1
  a2:	0e2e                	slli	t3,t3,0xb
  mv  x3, x1
  a4:	0041                	c.nop	16
  mv  x4, x1
  a6:	0000                	unimp
  mv  x5, x1
  a8:	0003c303          	lbu	t1,0(t2)
  mv  x7, x1
  ac:	0500                	addi	s0,sp,640
  mv  x8, x1
  ae:	0e74                	addi	a3,sp,796
  mv  x9, x1
  b0:	0041                	c.nop	16
  mv x10, x1
  b2:	0000                	unimp
  mv x11, x1
  b4:	0004a603          	lw	a2,0(s1)
  mv x13, x1
  b8:	0500                	addi	s0,sp,640
  mv x14, x1
  ba:	00691793          	slli	a5,s2,0x6
  mv x16, x1
  be:	0000                	unimp
  mv x17, x1
  c0:	a5050407          	0xa5050407
  mv x19, x1
  c4:	0000e203          	0xe203
  mv x21, x1
  c8:	0800                	addi	s0,sp,16
  mv x22, x1
  ca:	022d                	addi	tp,tp,11
  mv x23, x1
  cc:	0000                	unimp
  mv x24, x1
  ce:	a705                	j	7ee <_endtext+0x682>
  mv x25, x1
  d0:	8f0c                	0x8f0c
  mv x26, x1
  d2:	0000                	unimp
  mv x27, x1
  d4:	0800                	addi	s0,sp,16
  mv x28, x1
  d6:	01cd                	addi	gp,gp,19
  mv x29, x1
  d8:	0000                	unimp
  mv x30, x1
  da:	a805                	j	10a <main+0x2>
  mv x31, x1
  dc:	0000e213          	ori	tp,ra,0
  la   x2, _stack_start
  e0:	0000                	unimp
  e2:	2c09                	jal	2f4 <_endtext+0x188>
  e4:	0000                	unimp
  la x26, _bss_start
  e6:	f200                	fsw	fs0,32(a2)
  e8:	0000                	unimp
  la x27, _bss_end
  ea:	0a00                	addi	s0,sp,272
  ec:	0070                	addi	a2,sp,12
  bge x26, x27, zero_loop_end
  ee:	0000                	unimp
  f0:	080b0003          	lb	zero,128(s6)
  sw x0, 0(x26)
  f4:	a205                	j	214 <_endtext+0xa8>
  addi x26, x26, 4
  f6:	1609                	addi	a2,a2,-30
  ble x26, x27, zero_loop
  f8:	0001                	nop
  fa:	0c00                	addi	s0,sp,528
  addi x10, x0, 0
  fc:	03ad                	addi	t2,t2,11
  fe:	0000                	unimp
  addi x11, x0, 0
 100:	a405                	j	320 <_endtext+0x1b4>
 102:	00006907          	0x6907
  jal x1, main
 106:	0000                	unimp
 108:	b50c                	fsd	fa1,40(a0)
 10a:	05000003          	lb	zero,80(zero) # 50 <__DYNAMIC+0x50>
 10e:	05a9                	addi	a1,a1,10
 110:	00c0                	addi	s0,sp,68
 112:	0000                	unimp
 114:	0004                	0x4
 116:	00032f03          	lw	t5,0(t1)
 11a:	0500                	addi	s0,sp,640
 11c:	03aa                	slli	t2,t2,0xa
 11e:	00f2                	slli	ra,ra,0x1c
 120:	0000                	unimp
 122:	040d                	addi	s0,s0,3
 124:	0003fa03          	0x3fa03
 128:	0600                	addi	s0,sp,768
 12a:	1916                	slli	s2,s2,0x25
 12c:	0048                	addi	a0,sp,4
 12e:	0000                	unimp
 130:	0002d903          	lhu	s2,0(t0)
 134:	0700                	addi	s0,sp,896
 136:	0d0c                	addi	a1,sp,656
 138:	0069                	c.nop	26
 13a:	0000                	unimp
 13c:	00019003          	lh	zero,0(gp)
 140:	0600                	addi	s0,sp,768
 142:	01301b23          	sh	s3,22(zero) # 16 <__DYNAMIC+0x16>
 146:	0000                	unimp
 148:	a10e                	fsd	ft3,128(sp)
 14a:	0001                	nop
 14c:	1800                	addi	s0,sp,48
 14e:	3406                	fld	fs0,96(sp)
 150:	a208                	fsd	fa0,0(a2)
 152:	0001                	nop
 154:	0c00                	addi	s0,sp,528
 156:	0350                	addi	a2,sp,388
 158:	0000                	unimp
 15a:	3606                	fld	fa2,96(sp)
 15c:	0001a213          	slti	tp,gp,0
 160:	0000                	unimp
 162:	006b5f0f          	0x6b5f0f
 166:	3706                	fld	fa4,96(sp)
 168:	00006907          	0x6907
 16c:	0400                	addi	s0,sp,512
 16e:	980c                	0x980c
 170:	06000003          	lb	zero,96(zero) # 60 <__DYNAMIC+0x60>
 174:	00690b37          	lui	s6,0x690
 178:	0000                	unimp
 17a:	0c08                	addi	a0,sp,528
 17c:	018a                	slli	gp,gp,0x2
 17e:	0000                	unimp
 180:	3706                	fld	fa4,96(sp)
 182:	6914                	flw	fa3,16(a0)
 184:	0000                	unimp
 186:	0c00                	addi	s0,sp,528
 188:	910c                	0x910c
 18a:	0004                	0x4
 18c:	0600                	addi	s0,sp,768
 18e:	00691b37          	lui	s6,0x691
 192:	0000                	unimp
 194:	0f10                	addi	a2,sp,912
 196:	785f 0600 0b38      	0xb380600785f
 19c:	01a8                	addi	a0,sp,200
 19e:	0000                	unimp
 1a0:	0014                	0x14
 1a2:	0410                	addi	a2,sp,512
 1a4:	0148                	addi	a0,sp,132
 1a6:	0000                	unimp
 1a8:	2409                	jal	3aa <_endtext+0x23e>
 1aa:	0001                	nop
 1ac:	b800                	fsd	fs0,48(s0)
 1ae:	0001                	nop
 1b0:	0a00                	addi	s0,sp,272
 1b2:	0070                	addi	a2,sp,12
 1b4:	0000                	unimp
 1b6:	0000                	unimp
 1b8:	c80e                	sw	gp,16(sp)
 1ba:	0001                	nop
 1bc:	2400                	fld	fs0,8(s0)
 1be:	3c06                	fld	fs8,96(sp)
 1c0:	3b08                	fld	fa0,48(a4)
 1c2:	0002                	c.slli64	zero
 1c4:	0c00                	addi	s0,sp,528
 1c6:	00a1                	addi	ra,ra,8
 1c8:	0000                	unimp
 1ca:	3e06                	fld	ft8,96(sp)
 1cc:	6909                	lui	s2,0x2
 1ce:	0000                	unimp
 1d0:	0000                	unimp
 1d2:	d00c                	sw	a1,32(s0)
 1d4:	06000003          	lb	zero,96(zero) # 60 <__DYNAMIC+0x60>
 1d8:	0069093f 0c040000 	0xc0400000069093f
 1e0:	0102                	c.slli64	sp
 1e2:	0000                	unimp
 1e4:	4006                	0x4006
 1e6:	6909                	lui	s2,0x2
 1e8:	0000                	unimp
 1ea:	0800                	addi	s0,sp,16
 1ec:	1b0c                	addi	a1,sp,432
 1ee:	0005                	c.nop	1
 1f0:	0600                	addi	s0,sp,768
 1f2:	0941                	addi	s2,s2,16
 1f4:	0069                	c.nop	26
 1f6:	0000                	unimp
 1f8:	0c0c                	addi	a1,sp,528
 1fa:	029c                	addi	a5,sp,320
 1fc:	0000                	unimp
 1fe:	4206                	lw	tp,64(sp)
 200:	6909                	lui	s2,0x2
 202:	0000                	unimp
 204:	1000                	addi	s0,sp,32
 206:	5a0c                	lw	a1,48(a2)
 208:	0002                	c.slli64	zero
 20a:	0600                	addi	s0,sp,768
 20c:	00690943          	fmadd.s	fs2,fs2,ft6,ft0,rne
 210:	0000                	unimp
 212:	0c14                	addi	a3,sp,528
 214:	0496                	slli	s1,s1,0x5
 216:	0000                	unimp
 218:	4406                	lw	s0,64(sp)
 21a:	6909                	lui	s2,0x2
 21c:	0000                	unimp
 21e:	1800                	addi	s0,sp,48
 220:	110c                	addi	a1,sp,160
 222:	06000003          	lb	zero,96(zero) # 60 <__DYNAMIC+0x60>
 226:	0945                	addi	s2,s2,17
 228:	0069                	c.nop	26
 22a:	0000                	unimp
 22c:	0c1c                	addi	a5,sp,528
 22e:	04d6                	slli	s1,s1,0x15
 230:	0000                	unimp
 232:	4606                	lw	a2,64(sp)
 234:	6909                	lui	s2,0x2
 236:	0000                	unimp
 238:	2000                	fld	fs0,0(s0)
 23a:	1100                	addi	s0,sp,160
 23c:	0111                	addi	sp,sp,4
 23e:	0000                	unimp
 240:	0108                	addi	a0,sp,128
 242:	4f06                	lw	t5,64(sp)
 244:	8008                	0x8008
 246:	0002                	c.slli64	zero
 248:	0c00                	addi	s0,sp,528
 24a:	017d                	addi	sp,sp,31
 24c:	0000                	unimp
 24e:	5006                	0x5006
 250:	800a                	c.mv	zero,sp
 252:	0002                	c.slli64	zero
 254:	0000                	unimp
 256:	000c                	0xc
 258:	0000                	unimp
 25a:	0600                	addi	s0,sp,768
 25c:	0951                	addi	s2,s2,20
 25e:	0280                	addi	s0,sp,320
 260:	0000                	unimp
 262:	1280                	addi	s0,sp,352
 264:	03ec                	addi	a1,sp,460
 266:	0000                	unimp
 268:	5306                	lw	t1,96(sp)
 26a:	240a                	fld	fs0,128(sp)
 26c:	0001                	nop
 26e:	0000                	unimp
 270:	1201                	addi	tp,tp,-32
 272:	0136                	slli	sp,sp,0xd
 274:	0000                	unimp
 276:	5606                	lw	a2,96(sp)
 278:	240a                	fld	fs0,128(sp)
 27a:	0001                	nop
 27c:	0400                	addi	s0,sp,512
 27e:	0001                	nop
 280:	2209                	jal	382 <_endtext+0x216>
 282:	0001                	nop
 284:	9000                	0x9000
 286:	0002                	c.slli64	zero
 288:	0a00                	addi	s0,sp,272
 28a:	0070                	addi	a2,sp,12
 28c:	0000                	unimp
 28e:	001f a511 0002      	0x2a511001f
 294:	9000                	0x9000
 296:	0601                	addi	a2,a2,0
 298:	0862                	slli	a6,a6,0x18
 29a:	000002d3          	fadd.s	ft5,ft0,ft0,rne
 29e:	500c                	lw	a1,32(s0)
 2a0:	06000003          	lb	zero,96(zero) # 60 <__DYNAMIC+0x60>
 2a4:	02d31263          	bne	t1,a3,2c8 <_endtext+0x15c>
 2a8:	0000                	unimp
 2aa:	0c00                	addi	s0,sp,528
 2ac:	0368                	addi	a0,sp,396
 2ae:	0000                	unimp
 2b0:	6406                	flw	fs0,64(sp)
 2b2:	6906                	flw	fs2,64(sp)
 2b4:	0000                	unimp
 2b6:	0400                	addi	s0,sp,512
 2b8:	850c                	0x850c
 2ba:	0001                	nop
 2bc:	0600                	addi	s0,sp,768
 2be:	0966                	slli	s2,s2,0x19
 2c0:	02d9                	addi	t0,t0,22
 2c2:	0000                	unimp
 2c4:	0c08                	addi	a0,sp,528
 2c6:	0111                	addi	sp,sp,4
 2c8:	0000                	unimp
 2ca:	6706                	flw	fa4,64(sp)
 2cc:	3b1e                	fld	fs6,480(sp)
 2ce:	0002                	c.slli64	zero
 2d0:	8800                	0x8800
 2d2:	1000                	addi	s0,sp,32
 2d4:	9004                	0x9004
 2d6:	0002                	c.slli64	zero
 2d8:	0900                	addi	s0,sp,144
 2da:	02e9                	addi	t0,t0,26
 2dc:	0000                	unimp
 2de:	02e9                	addi	t0,t0,26
 2e0:	0000                	unimp
 2e2:	700a                	flw	ft0,160(sp)
 2e4:	0000                	unimp
 2e6:	1f00                	addi	s0,sp,944
 2e8:	1000                	addi	s0,sp,32
 2ea:	ef04                	fsw	fs1,24(a4)
 2ec:	0002                	c.slli64	zero
 2ee:	1300                	addi	s0,sp,416
 2f0:	1b0e                	slli	s6,s6,0x23
 2f2:	08000003          	lb	zero,128(zero) # 80 <__DYNAMIC+0x80>
 2f6:	7a06                	flw	fs4,96(sp)
 2f8:	1808                	addi	a0,sp,48
 2fa:	0c000003          	lb	zero,192(zero) # c0 <reset_handler+0x22>
 2fe:	00fc                	addi	a5,sp,76
 300:	0000                	unimp
 302:	7b06                	flw	fs6,96(sp)
 304:	1811                	addi	a6,a6,-28
 306:	00000003          	lb	zero,0(zero) # 0 <__DYNAMIC>
 30a:	120c                	addi	a1,sp,288
 30c:	0000                	unimp
 30e:	0600                	addi	s0,sp,768
 310:	067c                	addi	a5,sp,780
 312:	0069                	c.nop	26
 314:	0000                	unimp
 316:	0004                	0x4
 318:	0410                	addi	a2,sp,512
 31a:	002c                	addi	a1,sp,8
 31c:	0000                	unimp
 31e:	3a0e                	fld	fs4,224(sp)
 320:	68000003          	lb	zero,1664(zero) # 680 <_endtext+0x514>
 324:	ba06                	fsd	ft1,304(sp)
 326:	6108                	flw	fa0,0(a0)
 328:	0004                	0x4
 32a:	0f00                	addi	s0,sp,912
 32c:	705f 0600 12bb      	0x12bb0600705f
 332:	0318                	addi	a4,sp,384
 334:	0000                	unimp
 336:	0f00                	addi	s0,sp,912
 338:	725f 0600 07bc      	0x7bc0600725f
 33e:	0069                	c.nop	26
 340:	0000                	unimp
 342:	0f04                	addi	s1,sp,912
 344:	775f 0600 07bd      	0x7bd0600775f
 34a:	0069                	c.nop	26
 34c:	0000                	unimp
 34e:	0c08                	addi	a0,sp,528
 350:	0000012f          	0x12f
 354:	be06                	fsd	ft1,312(sp)
 356:	3309                	jal	58 <__DYNAMIC+0x58>
 358:	0000                	unimp
 35a:	0c00                	addi	s0,sp,528
 35c:	e40c                	fsw	fa1,8(s0)
 35e:	0001                	nop
 360:	0600                	addi	s0,sp,768
 362:	003309bf 0f0e0000 	0xf0e0000003309bf
 36a:	625f 0066 c006      	0xc0060066625f
 370:	f011                	bnez	s0,274 <_endtext+0x108>
 372:	0002                	c.slli64	zero
 374:	1000                	addi	s0,sp,32
 376:	740c                	flw	fa1,40(s0)
 378:	0000                	unimp
 37a:	0600                	addi	s0,sp,768
 37c:	07c1                	addi	a5,a5,16
 37e:	0069                	c.nop	26
 380:	0000                	unimp
 382:	0c18                	addi	a4,sp,528
 384:	011f 0000 c806      	0xc8060000011f
 38a:	220a                	fld	ft4,128(sp)
 38c:	0001                	nop
 38e:	1c00                	addi	s0,sp,560
 390:	b80c                	fsd	fa1,48(s0)
 392:	0001                	nop
 394:	0600                	addi	s0,sp,768
 396:	1dca                	slli	s11,s11,0x32
 398:	05e5                	addi	a1,a1,25
 39a:	0000                	unimp
 39c:	0c20                	addi	s0,sp,536
 39e:	00000253          	fadd.s	ft4,ft0,ft0,rne
 3a2:	cc06                	sw	ra,24(sp)
 3a4:	0f1d                	addi	t5,t5,7
 3a6:	0006                	c.slli	zero,0x1
 3a8:	2400                	fld	fs0,8(s0)
 3aa:	bd0c                	fsd	fa1,56(a0)
 3ac:	06000003          	lb	zero,96(zero) # 60 <__DYNAMIC+0x60>
 3b0:	06330dcf          	fnmadd.q	fs11,ft6,ft3,ft0,rne
 3b4:	0000                	unimp
 3b6:	0c28                	addi	a0,sp,536
 3b8:	04f0                	addi	a2,sp,588
 3ba:	0000                	unimp
 3bc:	d006                	sw	ra,32(sp)
 3be:	4d09                	li	s10,2
 3c0:	0006                	c.slli	zero,0x1
 3c2:	2c00                	fld	fs0,24(s0)
 3c4:	62755f0f          	0x62755f0f
 3c8:	0600                	addi	s0,sp,768
 3ca:	02f011d3          	fadd.d	ft3,ft0,fa5,rtz
 3ce:	0000                	unimp
 3d0:	0f30                	addi	a2,sp,920
 3d2:	755f 0070 d406      	0xd4060070755f
 3d8:	1812                	slli	a6,a6,0x24
 3da:	38000003          	lb	zero,896(zero) # 380 <_endtext+0x214>
 3de:	72755f0f          	0x72755f0f
 3e2:	0600                	addi	s0,sp,768
 3e4:	07d5                	addi	a5,a5,21
 3e6:	0069                	c.nop	26
 3e8:	0000                	unimp
 3ea:	0c3c                	addi	a5,sp,536
 3ec:	00f6                	slli	ra,ra,0x1d
 3ee:	0000                	unimp
 3f0:	d806                	sw	ra,48(sp)
 3f2:	5311                	li	t1,-28
 3f4:	0006                	c.slli	zero,0x1
 3f6:	4000                	lw	s0,0(s0)
 3f8:	c30c                	sw	a1,0(a4)
 3fa:	0004                	0x4
 3fc:	0600                	addi	s0,sp,768
 3fe:	11d9                	addi	gp,gp,-10
 400:	00000663          	beqz	zero,40c <_endtext+0x2a0>
 404:	6c5f0f43          	0x6c5f0f43
 408:	0062                	c.slli	zero,0x18
 40a:	dc06                	sw	ra,56(sp)
 40c:	f011                	bnez	s0,310 <_endtext+0x1a4>
 40e:	0002                	c.slli64	zero
 410:	4400                	lw	s0,8(s0)
 412:	450c                	lw	a1,8(a0)
 414:	0001                	nop
 416:	0600                	addi	s0,sp,768
 418:	07df 0069 0000      	0x6907df
 41e:	0c4c                	addi	a1,sp,532
 420:	0156                	slli	sp,sp,0x15
 422:	0000                	unimp
 424:	e006                	fsw	ft1,0(sp)
 426:	9c0a                	add	s8,s8,sp
 428:	0000                	unimp
 42a:	5000                	lw	s0,32(s0)
 42c:	370c                	fld	fa1,40(a4)
 42e:	0000                	unimp
 430:	0600                	addi	s0,sp,768
 432:	047f12e3          	bne	t5,t2,c76 <_endtext+0xb0a>
 436:	0000                	unimp
 438:	0c54                	addi	a3,sp,532
 43a:	023a                	slli	tp,tp,0xe
 43c:	0000                	unimp
 43e:	e706                	fsw	ft1,140(sp)
 440:	3c0c                	fld	fa1,56(s0)
 442:	0001                	nop
 444:	5800                	lw	s0,48(s0)
 446:	420c                	lw	a1,0(a2)
 448:	06000003          	lb	zero,96(zero) # 60 <__DYNAMIC+0x60>
 44c:	0ee9                	addi	t4,t4,26
 44e:	0116                	slli	sp,sp,0x5
 450:	0000                	unimp
 452:	0c5c                	addi	a5,sp,532
 454:	0240                	addi	s0,sp,260
 456:	0000                	unimp
 458:	ea06                	fsw	ft1,20(sp)
 45a:	6909                	lui	s2,0x2
 45c:	0000                	unimp
 45e:	6400                	flw	fs0,8(s0)
 460:	1400                	addi	s0,sp,544
 462:	00b4                	addi	a3,sp,72
 464:	0000                	unimp
 466:	047f                	0x47f
 468:	0000                	unimp
 46a:	7f15                	lui	t5,0xfffe5
 46c:	0004                	0x4
 46e:	1500                	addi	s0,sp,672
 470:	0122                	slli	sp,sp,0x8
 472:	0000                	unimp
 474:	d315                	beqz	a4,398 <_endtext+0x22c>
 476:	0005                	c.nop	1
 478:	1500                	addi	s0,sp,672
 47a:	0069                	c.nop	26
 47c:	0000                	unimp
 47e:	1000                	addi	s0,sp,32
 480:	8a04                	0x8a04
 482:	0004                	0x4
 484:	1600                	addi	s0,sp,800
 486:	047f                	0x47f
 488:	0000                	unimp
 48a:	0003a017          	auipc	zero,0x3a
 48e:	2800                	fld	fs0,16(s0)
 490:	0604                	addi	s1,sp,768
 492:	0265                	addi	tp,tp,25
 494:	d308                	sw	a0,32(a4)
 496:	0005                	c.nop	1
 498:	1800                	addi	s0,sp,48
 49a:	0300                	addi	s0,sp,384
 49c:	0000                	unimp
 49e:	6706                	flw	fa4,64(sp)
 4a0:	0702                	c.slli64	a4
 4a2:	0069                	c.nop	26
 4a4:	0000                	unimp
 4a6:	1800                	addi	s0,sp,48
 4a8:	013e                	slli	sp,sp,0xf
 4aa:	0000                	unimp
 4ac:	6c06                	flw	fs8,64(sp)
 4ae:	0b02                	c.slli64	s6
 4b0:	000006bf 01d41804 	0x1d41804000006bf
 4b8:	0000                	unimp
 4ba:	6c06                	flw	fs8,64(sp)
 4bc:	1402                	slli	s0,s0,0x20
 4be:	000006bf 01991808 	0x1991808000006bf
 4c6:	0000                	unimp
 4c8:	6c06                	flw	fs8,64(sp)
 4ca:	1e02                	slli	t3,t3,0x20
 4cc:	000006bf 0363180c 	0x363180c000006bf
 4d4:	0000                	unimp
 4d6:	6e06                	flw	ft8,64(sp)
 4d8:	0802                	c.slli64	a6
 4da:	0069                	c.nop	26
 4dc:	0000                	unimp
 4de:	1810                	addi	a2,sp,48
 4e0:	0020                	addi	s0,sp,8
 4e2:	0000                	unimp
 4e4:	6f06                	flw	ft10,64(sp)
 4e6:	0802                	c.slli64	a6
 4e8:	000008bf 037f1814 	0x37f1814000008bf
 4f0:	0000                	unimp
 4f2:	7206                	flw	ft4,96(sp)
 4f4:	0702                	c.slli64	a4
 4f6:	0069                	c.nop	26
 4f8:	0000                	unimp
 4fa:	1830                	addi	a2,sp,56
 4fc:	036d                	addi	t1,t1,27
 4fe:	0000                	unimp
 500:	7306                	flw	ft6,96(sp)
 502:	1602                	slli	a2,a2,0x20
 504:	08d4                	addi	a3,sp,84
 506:	0000                	unimp
 508:	1834                	addi	a3,sp,56
 50a:	02ad                	addi	t0,t0,11
 50c:	0000                	unimp
 50e:	7506                	flw	fa0,96(sp)
 510:	0702                	c.slli64	a4
 512:	0069                	c.nop	26
 514:	0000                	unimp
 516:	1838                	addi	a4,sp,56
 518:	0375                	addi	t1,t1,29
 51a:	0000                	unimp
 51c:	7706                	flw	fa4,96(sp)
 51e:	0a02                	c.slli64	s4
 520:	08e5                	addi	a7,a7,25
 522:	0000                	unimp
 524:	183c                	addi	a5,sp,56
 526:	0225                	addi	tp,tp,9
 528:	0000                	unimp
 52a:	7a06                	flw	fs4,96(sp)
 52c:	1302                	slli	t1,t1,0x20
 52e:	01a2                	slli	gp,gp,0x8
 530:	0000                	unimp
 532:	1840                	addi	s0,sp,52
 534:	01be                	slli	gp,gp,0xf
 536:	0000                	unimp
 538:	7b06                	flw	fs6,96(sp)
 53a:	0702                	c.slli64	a4
 53c:	0069                	c.nop	26
 53e:	0000                	unimp
 540:	1844                	addi	s1,sp,52
 542:	0511                	addi	a0,a0,4
 544:	0000                	unimp
 546:	7c06                	flw	fs8,96(sp)
 548:	1302                	slli	t1,t1,0x20
 54a:	01a2                	slli	gp,gp,0x8
 54c:	0000                	unimp
 54e:	1848                	addi	a0,sp,52
 550:	000002cf          	fnmadd.s	ft5,ft0,ft0,ft0,rne
 554:	7d06                	flw	fs10,96(sp)
 556:	1402                	slli	s0,s0,0x20
 558:	000008eb          	0x8eb
 55c:	184c                	addi	a1,sp,52
 55e:	01dc                	addi	a5,sp,196
 560:	0000                	unimp
 562:	8006                	c.mv	zero,ra
 564:	0702                	c.slli64	a4
 566:	0069                	c.nop	26
 568:	0000                	unimp
 56a:	1850                	addi	a2,sp,52
 56c:	014e                	slli	sp,sp,0x13
 56e:	0000                	unimp
 570:	8106                	mv	sp,ra
 572:	0902                	c.slli64	s2
 574:	000005d3          	fadd.s	fa1,ft0,ft0,rne
 578:	1854                	addi	a3,sp,52
 57a:	02f9                	addi	t0,t0,30
 57c:	0000                	unimp
 57e:	a406                	fsd	ft1,8(sp)
 580:	0702                	c.slli64	a4
 582:	089a                	slli	a7,a7,0x6
 584:	0000                	unimp
 586:	1958                	addi	a4,sp,180
 588:	02a5                	addi	t0,t0,9
 58a:	0000                	unimp
 58c:	a806                	fsd	ft1,16(sp)
 58e:	1302                	slli	t1,t1,0x20
 590:	000002d3          	fadd.s	ft5,ft0,ft0,rne
 594:	0148                	addi	a0,sp,132
 596:	0319                	addi	t1,t1,6
 598:	0002                	c.slli64	zero
 59a:	0600                	addi	s0,sp,768
 59c:	02a9                	addi	t0,t0,10
 59e:	9012                	c.add	zero,tp
 5a0:	0002                	c.slli64	zero
 5a2:	4c00                	lw	s0,24(s0)
 5a4:	1901                	addi	s2,s2,-32
 5a6:	04b9                	addi	s1,s1,14
 5a8:	0000                	unimp
 5aa:	ad06                	fsd	ft1,152(sp)
 5ac:	0c02                	c.slli64	s8
 5ae:	08fc                	addi	a5,sp,92
 5b0:	0000                	unimp
 5b2:	02dc                	addi	a5,sp,324
 5b4:	2719                	jal	cba <_endtext+0xb4e>
 5b6:	0001                	nop
 5b8:	0600                	addi	s0,sp,768
 5ba:	02b2                	slli	t0,t0,0xc
 5bc:	8010                	0x8010
 5be:	0006                	c.slli	zero,0x1
 5c0:	e000                	fsw	fs0,0(s0)
 5c2:	1902                	slli	s2,s2,0x20
 5c4:	010c                	addi	a1,sp,128
 5c6:	0000                	unimp
 5c8:	b406                	fsd	ft1,40(sp)
 5ca:	0a02                	c.slli64	s4
 5cc:	0908                	addi	a0,sp,144
 5ce:	0000                	unimp
 5d0:	02ec                	addi	a1,sp,332
 5d2:	1000                	addi	s0,sp,32
 5d4:	d904                	sw	s1,48(a0)
 5d6:	0005                	c.nop	1
 5d8:	0200                	addi	s0,sp,256
 5da:	0801                	addi	a6,a6,0
 5dc:	02f4                	addi	a3,sp,332
 5de:	0000                	unimp
 5e0:	d916                	sw	t0,176(sp)
 5e2:	0005                	c.nop	1
 5e4:	1000                	addi	s0,sp,32
 5e6:	6104                	flw	fs1,0(a0)
 5e8:	0004                	0x4
 5ea:	1400                	addi	s0,sp,544
 5ec:	00b4                	addi	a3,sp,72
 5ee:	0000                	unimp
 5f0:	0609                	addi	a2,a2,2
 5f2:	0000                	unimp
 5f4:	7f15                	lui	t5,0xfffe5
 5f6:	0004                	0x4
 5f8:	1500                	addi	s0,sp,672
 5fa:	0122                	slli	sp,sp,0x8
 5fc:	0000                	unimp
 5fe:	0915                	addi	s2,s2,5
 600:	0006                	c.slli	zero,0x1
 602:	1500                	addi	s0,sp,672
 604:	0069                	c.nop	26
 606:	0000                	unimp
 608:	1000                	addi	s0,sp,32
 60a:	e004                	fsw	fs1,0(s0)
 60c:	0005                	c.nop	1
 60e:	1000                	addi	s0,sp,32
 610:	eb04                	fsw	fs1,16(a4)
 612:	0005                	c.nop	1
 614:	1400                	addi	s0,sp,544
 616:	00a8                	addi	a0,sp,72
 618:	0000                	unimp
 61a:	00000633          	add	a2,zero,zero
 61e:	7f15                	lui	t5,0xfffe5
 620:	0004                	0x4
 622:	1500                	addi	s0,sp,672
 624:	0122                	slli	sp,sp,0x8
 626:	0000                	unimp
 628:	a815                	j	65c <_endtext+0x4f0>
 62a:	0000                	unimp
 62c:	1500                	addi	s0,sp,672
 62e:	0069                	c.nop	26
 630:	0000                	unimp
 632:	1000                	addi	s0,sp,32
 634:	1504                	addi	s1,sp,672
 636:	0006                	c.slli	zero,0x1
 638:	1400                	addi	s0,sp,544
 63a:	0069                	c.nop	26
 63c:	0000                	unimp
 63e:	064d                	addi	a2,a2,19
 640:	0000                	unimp
 642:	7f15                	lui	t5,0xfffe5
 644:	0004                	0x4
 646:	1500                	addi	s0,sp,672
 648:	0122                	slli	sp,sp,0x8
 64a:	0000                	unimp
 64c:	1000                	addi	s0,sp,32
 64e:	3904                	fld	fs1,48(a0)
 650:	0006                	c.slli	zero,0x1
 652:	0900                	addi	s0,sp,144
 654:	002c                	addi	a1,sp,8
 656:	0000                	unimp
 658:	00000663          	beqz	zero,664 <_endtext+0x4f8>
 65c:	700a                	flw	ft0,160(sp)
 65e:	0000                	unimp
 660:	0200                	addi	s0,sp,256
 662:	0900                	addi	s0,sp,144
 664:	002c                	addi	a1,sp,8
 666:	0000                	unimp
 668:	00000673          	0x673
 66c:	700a                	flw	ft0,160(sp)
 66e:	0000                	unimp
 670:	0000                	unimp
 672:	0600                	addi	s0,sp,768
 674:	0328                	addi	a0,sp,392
 676:	0000                	unimp
 678:	2406                	fld	fs0,64(sp)
 67a:	1a01                	addi	s4,s4,-32
 67c:	031e                	slli	t1,t1,0x7
 67e:	0000                	unimp
 680:	a01a                	fsd	ft6,0(sp)
 682:	0004                	0x4
 684:	0c00                	addi	s0,sp,528
 686:	2806                	fld	fa6,64(sp)
 688:	0801                	addi	a6,a6,0
 68a:	06b9                	addi	a3,a3,14
 68c:	0000                	unimp
 68e:	5018                	lw	a4,32(s0)
 690:	06000003          	lb	zero,96(zero) # 60 <__DYNAMIC+0x60>
 694:	012a                	slli	sp,sp,0xa
 696:	b911                	j	2aa <_endtext+0x13e>
 698:	0006                	c.slli	zero,0x1
 69a:	0000                	unimp
 69c:	7d18                	flw	fa4,56(a0)
 69e:	0000                	unimp
 6a0:	0600                	addi	s0,sp,768
 6a2:	6907012b          	0x6907012b
 6a6:	0000                	unimp
 6a8:	0400                	addi	s0,sp,512
 6aa:	2218                	fld	fa4,0(a2)
 6ac:	06000003          	lb	zero,96(zero) # 60 <__DYNAMIC+0x60>
 6b0:	012c                	addi	a1,sp,136
 6b2:	0006bf0b          	0x6bf0b
 6b6:	0800                	addi	s0,sp,16
 6b8:	1000                	addi	s0,sp,32
 6ba:	8004                	0x8004
 6bc:	0006                	c.slli	zero,0x1
 6be:	1000                	addi	s0,sp,32
 6c0:	7304                	flw	fs1,32(a4)
 6c2:	0006                	c.slli	zero,0x1
 6c4:	1a00                	addi	s0,sp,304
 6c6:	0018                	0x18
 6c8:	0000                	unimp
 6ca:	060e                	slli	a2,a2,0x3
 6cc:	0144                	addi	s1,sp,132
 6ce:	fe08                	fsw	fa0,56(a2)
 6d0:	0006                	c.slli	zero,0x1
 6d2:	1800                	addi	s0,sp,48
 6d4:	000003a7          	0x3a7
 6d8:	4506                	lw	a0,64(sp)
 6da:	1201                	addi	tp,tp,-32
 6dc:	06fe                	slli	a3,a3,0x1f
 6de:	0000                	unimp
 6e0:	1800                	addi	s0,sp,48
 6e2:	03d9                	addi	t2,t2,22
 6e4:	0000                	unimp
 6e6:	4606                	lw	a2,64(sp)
 6e8:	1201                	addi	tp,tp,-32
 6ea:	06fe                	slli	a3,a3,0x1f
 6ec:	0000                	unimp
 6ee:	1806                	slli	a6,a6,0x21
 6f0:	03f5                	addi	t2,t2,29
 6f2:	0000                	unimp
 6f4:	4706                	lw	a4,64(sp)
 6f6:	1201                	addi	tp,tp,-32
 6f8:	003a                	c.slli	zero,0xe
 6fa:	0000                	unimp
 6fc:	000c                	0xc
 6fe:	3a09                	jal	10 <__DYNAMIC+0x10>
 700:	0000                	unimp
 702:	0e00                	addi	s0,sp,784
 704:	0a000007          	0xa000007
 708:	0070                	addi	a2,sp,12
 70a:	0000                	unimp
 70c:	0002                	c.slli64	zero
 70e:	8506d01b          	0x8506d01b
 712:	0702                	c.slli64	a4
 714:	00000823          	sb	zero,16(zero) # 10 <__DYNAMIC+0x10>
 718:	8418                	0x8418
 71a:	0004                	0x4
 71c:	0600                	addi	s0,sp,768
 71e:	70180287          	0x70180287
 722:	0000                	unimp
 724:	0000                	unimp
 726:	df18                	sw	a4,56(a4)
 728:	06000003          	lb	zero,96(zero) # 60 <__DYNAMIC+0x60>
 72c:	0288                	addi	a0,sp,320
 72e:	d312                	sw	tp,164(sp)
 730:	0005                	c.nop	1
 732:	0400                	addi	s0,sp,512
 734:	1818                	addi	a4,sp,48
 736:	0002                	c.slli64	zero
 738:	0600                	addi	s0,sp,768
 73a:	0289                	addi	t0,t0,2
 73c:	2310                	fld	fa2,0(a4)
 73e:	0008                	0x8
 740:	0800                	addi	s0,sp,16
 742:	e118                	fsw	fa4,0(a0)
 744:	0004                	0x4
 746:	0600                	addi	s0,sp,768
 748:	028a                	slli	t0,t0,0x2
 74a:	0001b817          	auipc	a6,0x1b
 74e:	2400                	fld	fs0,8(s0)
 750:	a918                	fsd	fa4,16(a0)
 752:	0001                	nop
 754:	0600                	addi	s0,sp,768
 756:	690f028b          	0x690f028b
 75a:	0000                	unimp
 75c:	4800                	lw	s0,16(s0)
 75e:	4b18                	lw	a4,16(a4)
 760:	06000003          	lb	zero,96(zero) # 60 <__DYNAMIC+0x60>
 764:	028c                	addi	a1,sp,320
 766:	622c                	flw	fa1,64(a2)
 768:	0000                	unimp
 76a:	5000                	lw	s0,32(s0)
 76c:	f718                	fsw	fa4,40(a4)
 76e:	0004                	0x4
 770:	0600                	addi	s0,sp,768
 772:	028d                	addi	t0,t0,3
 774:	c51a                	sw	t1,136(sp)
 776:	0006                	c.slli	zero,0x1
 778:	5800                	lw	s0,48(s0)
 77a:	5618                	lw	a4,40(a2)
 77c:	06000003          	lb	zero,96(zero) # 60 <__DYNAMIC+0x60>
 780:	028e                	slli	t0,t0,0x3
 782:	1616                	slli	a2,a2,0x25
 784:	0001                	nop
 786:	6800                	flw	fs0,16(s0)
 788:	0318                	addi	a4,sp,384
 78a:	0005                	c.nop	1
 78c:	0600                	addi	s0,sp,768
 78e:	1616028f          	0x1616028f
 792:	0001                	nop
 794:	7000                	flw	fs0,32(s0)
 796:	9318                	0x9318
 798:	0000                	unimp
 79a:	0600                	addi	s0,sp,768
 79c:	0290                	addi	a2,sp,320
 79e:	1616                	slli	a2,a2,0x25
 7a0:	0001                	nop
 7a2:	7800                	flw	fs0,48(s0)
 7a4:	af18                	fsd	fa4,24(a4)
 7a6:	0004                	0x4
 7a8:	0600                	addi	s0,sp,768
 7aa:	0291                	addi	t0,t0,4
 7ac:	3310                	fld	fa2,32(a4)
 7ae:	0008                	0x8
 7b0:	8000                	0x8000
 7b2:	0c18                	addi	a4,sp,528
 7b4:	0002                	c.slli64	zero
 7b6:	0600                	addi	s0,sp,768
 7b8:	0292                	slli	t0,t0,0x4
 7ba:	4310                	lw	a2,0(a4)
 7bc:	0008                	0x8
 7be:	8800                	0x8800
 7c0:	0218                	addi	a4,sp,256
 7c2:	0004                	0x4
 7c4:	0600                	addi	s0,sp,768
 7c6:	690f0293          	addi	t0,t5,1680 # fffe5690 <_stack_start+0xfffd5690>
 7ca:	0000                	unimp
 7cc:	a000                	fsd	fs0,0(s0)
 7ce:	6f18                	flw	fa4,24(a4)
 7d0:	0001                	nop
 7d2:	0600                	addi	s0,sp,768
 7d4:	0294                	addi	a3,sp,320
 7d6:	1616                	slli	a2,a2,0x25
 7d8:	0001                	nop
 7da:	a400                	fsd	fs0,8(s0)
 7dc:	8418                	0x8418
 7de:	0000                	unimp
 7e0:	0600                	addi	s0,sp,768
 7e2:	0295                	addi	t0,t0,5
 7e4:	1616                	slli	a2,a2,0x25
 7e6:	0001                	nop
 7e8:	ac00                	fsd	fs0,24(s0)
 7ea:	5e18                	lw	a4,56(a2)
 7ec:	0001                	nop
 7ee:	0600                	addi	s0,sp,768
 7f0:	0296                	slli	t0,t0,0x5
 7f2:	1616                	slli	a2,a2,0x25
 7f4:	0001                	nop
 7f6:	b400                	fsd	fs0,40(s0)
 7f8:	3d18                	fld	fa4,56(a0)
 7fa:	0000                	unimp
 7fc:	0600                	addi	s0,sp,768
 7fe:	16160297          	auipc	t0,0x16160
 802:	0001                	nop
 804:	bc00                	fsd	fs0,56(s0)
 806:	4c18                	lw	a4,24(s0)
 808:	0000                	unimp
 80a:	0600                	addi	s0,sp,768
 80c:	0298                	addi	a4,sp,320
 80e:	1616                	slli	a2,a2,0x25
 810:	0001                	nop
 812:	c400                	sw	s0,8(s0)
 814:	fe18                	fsw	fa4,56(a2)
 816:	0002                	c.slli64	zero
 818:	0600                	addi	s0,sp,768
 81a:	0299                	addi	t0,t0,6
 81c:	6908                	flw	fa0,16(a0)
 81e:	0000                	unimp
 820:	cc00                	sw	s0,24(s0)
 822:	0900                	addi	s0,sp,144
 824:	05d9                	addi	a1,a1,22
 826:	0000                	unimp
 828:	00000833          	add	a6,zero,zero
 82c:	700a                	flw	ft0,160(sp)
 82e:	0000                	unimp
 830:	1900                	addi	s0,sp,176
 832:	0900                	addi	s0,sp,144
 834:	05d9                	addi	a1,a1,22
 836:	0000                	unimp
 838:	00000843          	fmadd.s	fa6,ft0,ft0,ft0,rne
 83c:	700a                	flw	ft0,160(sp)
 83e:	0000                	unimp
 840:	0700                	addi	s0,sp,896
 842:	0900                	addi	s0,sp,144
 844:	05d9                	addi	a1,a1,22
 846:	0000                	unimp
 848:	00000853          	fadd.s	fa6,ft0,ft0,rne
 84c:	700a                	flw	ft0,160(sp)
 84e:	0000                	unimp
 850:	1700                	addi	s0,sp,928
 852:	1b00                	addi	s0,sp,432
 854:	06f0                	addi	a2,sp,844
 856:	029e                	slli	t0,t0,0x7
 858:	00087a07          	0x87a07
 85c:	1800                	addi	s0,sp,48
 85e:	0295                	addi	t0,t0,5
 860:	0000                	unimp
 862:	a106                	fsd	ft1,128(sp)
 864:	1b02                	slli	s6,s6,0x20
 866:	087a                	slli	a6,a6,0x1e
 868:	0000                	unimp
 86a:	1800                	addi	s0,sp,48
 86c:	0270                	addi	a2,sp,268
 86e:	0000                	unimp
 870:	a206                	fsd	ft1,256(sp)
 872:	1802                	slli	a6,a6,0x20
 874:	088a                	slli	a7,a7,0x2
 876:	0000                	unimp
 878:	0078                	addi	a4,sp,12
 87a:	1809                	addi	a6,a6,-30
 87c:	8a000003          	lb	zero,-1888(zero) # fffff8a0 <_stack_start+0xfffef8a0>
 880:	0008                	0x8
 882:	0a00                	addi	s0,sp,272
 884:	0070                	addi	a2,sp,12
 886:	0000                	unimp
 888:	001d                	c.nop	7
 88a:	7009                	c.lui	zero,0xfffe2
 88c:	0000                	unimp
 88e:	9a00                	0x9a00
 890:	0008                	0x8
 892:	0a00                	addi	s0,sp,272
 894:	0070                	addi	a2,sp,12
 896:	0000                	unimp
 898:	001d                	c.nop	7
 89a:	f01c                	fsw	fa5,32(s0)
 89c:	8306                	mv	t1,ra
 89e:	0302                	c.slli64	t1
 8a0:	000008bf 0003a01d 	0x3a01d000008bf
 8a8:	0600                	addi	s0,sp,768
 8aa:	029a                	slli	t0,t0,0x6
 8ac:	00070e0b          	0x70e0b
 8b0:	1d00                	addi	s0,sp,688
 8b2:	04c9                	addi	s1,s1,18
 8b4:	0000                	unimp
 8b6:	a306                	fsd	ft1,384(sp)
 8b8:	0b02                	c.slli64	s6
 8ba:	00000853          	fadd.s	fa6,ft0,ft0,rne
 8be:	0900                	addi	s0,sp,144
 8c0:	05d9                	addi	a1,a1,22
 8c2:	0000                	unimp
 8c4:	000008cf          	fnmadd.s	fa7,ft0,ft0,ft0,rne
 8c8:	700a                	flw	ft0,160(sp)
 8ca:	0000                	unimp
 8cc:	1800                	addi	s0,sp,48
 8ce:	1e00                	addi	s0,sp,816
 8d0:	0248                	addi	a0,sp,260
 8d2:	0000                	unimp
 8d4:	0410                	addi	a2,sp,512
 8d6:	000008cf          	fnmadd.s	fa7,ft0,ft0,ft0,rne
 8da:	e51f 0008 1500      	0x15000008e51f
 8e0:	047f                	0x47f
 8e2:	0000                	unimp
 8e4:	1000                	addi	s0,sp,32
 8e6:	da04                	sw	s1,48(a2)
 8e8:	0008                	0x8
 8ea:	1000                	addi	s0,sp,32
 8ec:	a204                	fsd	fs1,0(a2)
 8ee:	0001                	nop
 8f0:	1f00                	addi	s0,sp,944
 8f2:	08fc                	addi	a5,sp,92
 8f4:	0000                	unimp
 8f6:	6915                	lui	s2,0x5
 8f8:	0000                	unimp
 8fa:	0000                	unimp
 8fc:	0410                	addi	a2,sp,512
 8fe:	0902                	c.slli64	s2
 900:	0000                	unimp
 902:	0410                	addi	a2,sp,512
 904:	08f1                	addi	a7,a7,28
 906:	0000                	unimp
 908:	7309                	lui	t1,0xfffe2
 90a:	0006                	c.slli	zero,0x1
 90c:	1800                	addi	s0,sp,48
 90e:	0009                	c.nop	2
 910:	0a00                	addi	s0,sp,272
 912:	0070                	addi	a2,sp,12
 914:	0000                	unimp
 916:	0002                	c.slli64	zero
 918:	1620                	addi	s0,sp,808
 91a:	0004                	0x4
 91c:	0600                	addi	s0,sp,768
 91e:	7f170333          	0x7f170333
 922:	0004                	0x4
 924:	2000                	fld	fs0,0(s0)
 926:	0000040f          	0x40f
 92a:	3406                	fld	fs0,96(sp)
 92c:	04851d03          	lh	s10,72(a0)
 930:	0000                	unimp
 932:	1621                	addi	a2,a2,-24
 934:	0005                	c.nop	1
 936:	0100                	addi	s0,sp,128
 938:	00690527          	0x690527
 93c:	0000                	unimp
 93e:	0108                	addi	a0,sp,128
 940:	0000                	unimp
 942:	0052                	c.slli	zero,0x14
 944:	0000                	unimp
 946:	9c01                	0x9c01
 948:	0b35                	addi	s6,s6,13
 94a:	0000                	unimp
 94c:	d122                	sw	s0,160(sp)
 94e:	0004                	0x4
 950:	0100                	addi	s0,sp,128
 952:	00690e27          	0x690e27
 956:	0000                	unimp
 958:	0000                	unimp
 95a:	0000                	unimp
 95c:	cb22                	sw	s0,148(sp)
 95e:	01000003          	lb	zero,16(zero) # 10 <__DYNAMIC+0x10>
 962:	0b351b27          	0xb351b27
 966:	0000                	unimp
 968:	0021                	c.nop	8
 96a:	0000                	unimp
 96c:	01006123          	0x1006123
 970:	0c2a                	slli	s8,s8,0xa
 972:	007c                	addi	a5,sp,12
 974:	0000                	unimp
 976:	ee19e4e3          	bltu	s3,ra,85e <_endtext+0x6f2>
 97a:	01006223          	0x1006223
 97e:	007c0c2b          	0x7c0c2b
 982:	0000                	unimp
 984:	3f19                	jal	89a <_endtext+0x72e>
 986:	bab5                	j	302 <_endtext+0x196>
 988:	01006323          	0x1006323
 98c:	0c2c                	addi	a1,sp,536
 98e:	007c                	addi	a5,sp,12
 990:	0000                	unimp
 992:	4995ffd3          	0x4995ffd3
 996:	01006d23          	0x1006d23
 99a:	0c2d                	addi	s8,s8,11
 99c:	007c                	addi	a5,sp,12
 99e:	0000                	unimp
 9a0:	3b9aca07          	flq	fs4,953(s5)
 9a4:	7624                	flw	fs1,104(a2)
 9a6:	7261                	lui	tp,0xffff8
 9a8:	0100                	addi	s0,sp,128
 9aa:	0b3b192f          	0xb3b192f
 9ae:	0000                	unimp
 9b0:	c010                	sw	a2,0(s0)
 9b2:	01007823          	0x1007823
 9b6:	0a31                	addi	s4,s4,12
 9b8:	007c                	addi	a5,sp,12
 9ba:	0000                	unimp
 9bc:	9d46                	add	s10,s10,a7
 9be:	1c94                	addi	a3,sp,624
 9c0:	6925                	lui	s2,0x9
 9c2:	0100                	addi	s0,sp,128
 9c4:	007c0b33          	add	s6,s8,t2
 9c8:	0000                	unimp
 9ca:	0042                	c.slli	zero,0x10
 9cc:	0000                	unimp
 9ce:	6b25                	lui	s6,0x9
 9d0:	0100                	addi	s0,sp,128
 9d2:	0b34                	addi	a3,sp,408
 9d4:	007c                	addi	a5,sp,12
 9d6:	0000                	unimp
 9d8:	0072                	c.slli	zero,0x1c
 9da:	0000                	unimp
 9dc:	6a25                	lui	s4,0x9
 9de:	0100                	addi	s0,sp,128
 9e0:	0b35                	addi	s6,s6,13
 9e2:	007c                	addi	a5,sp,12
 9e4:	0000                	unimp
 9e6:	00a2                	slli	ra,ra,0x8
 9e8:	0000                	unimp
 9ea:	4126                	lw	sp,72(sp)
 9ec:	0800000b          	0x800000b
 9f0:	0001                	nop
 9f2:	0000                	unimp
 9f4:	0000                	unimp
 9f6:	0100                	addi	s0,sp,128
 9f8:	013a                	slli	sp,sp,0xe
 9fa:	0a42                	slli	s4,s4,0x10
 9fc:	0000                	unimp
 9fe:	000b5227          	0xb5227
 a02:	d200                	sw	s0,32(a2)
 a04:	0000                	unimp
 a06:	2800                	fld	fs0,16(s0)
 a08:	0b5f 0000 0108      	0x10800000b5f
 a0e:	0000                	unimp
 a10:	0000                	unimp
 a12:	0000                	unimp
 a14:	2401                	jal	c14 <_endtext+0xaa8>
 a16:	270a                	fld	fa4,128(sp)
 a18:	0b70                	addi	a2,sp,412
 a1a:	0000                	unimp
 a1c:	00d2                	slli	ra,ra,0x14
 a1e:	0000                	unimp
 a20:	0029                	c.nop	10
 a22:	0000                	unimp
 a24:	2a00                	fld	fs0,16(a2)
 a26:	0b7c                	addi	a5,sp,412
 a28:	0000                	unimp
 a2a:	000000e7          	jalr	zero # 0 <__DYNAMIC>
 a2e:	0001142b          	0x1142b
 a32:	8900                	0x8900
 a34:	2c00000b          	0x2c00000b
 a38:	5a01                	li	s4,-32
 a3a:	02710a03          	lb	s4,39(sp)
 a3e:	0000                	unimp
 a40:	0000                	unimp
 a42:	412d                	li	sp,11
 a44:	2000000b          	0x2000000b
 a48:	0001                	nop
 a4a:	0600                	addi	s0,sp,768
 a4c:	0000                	unimp
 a4e:	0100                	addi	s0,sp,128
 a50:	0140                	addi	s0,sp,132
 a52:	0a94                	addi	a3,sp,336
 a54:	0000                	unimp
 a56:	000b5227          	0xb5227
 a5a:	fd00                	fsw	fs0,56(a0)
 a5c:	0000                	unimp
 a5e:	2e00                	fld	fs0,24(a2)
 a60:	0b5f 0000 0120      	0x12000000b5f
 a66:	0000                	unimp
 a68:	0006                	c.slli	zero,0x1
 a6a:	0000                	unimp
 a6c:	2401                	jal	c6c <_endtext+0xb00>
 a6e:	270a                	fld	fa4,128(sp)
 a70:	0b70                	addi	a2,sp,412
 a72:	0000                	unimp
 a74:	00fd                	addi	ra,ra,31
 a76:	0000                	unimp
 a78:	7c2a                	flw	fs8,168(sp)
 a7a:	1200000b          	0x1200000b
 a7e:	0001                	nop
 a80:	2b00                	fld	fs0,16(a4)
 a82:	0126                	slli	sp,sp,0x9
 a84:	0000                	unimp
 a86:	0b89                	addi	s7,s7,2
 a88:	0000                	unimp
 a8a:	012c                	addi	a1,sp,136
 a8c:	035a                	slli	t1,t1,0x16
 a8e:	710a                	flw	ft2,160(sp)
 a90:	0002                	c.slli64	zero
 a92:	0000                	unimp
 a94:	412d                	li	sp,11
 a96:	3000000b          	0x3000000b
 a9a:	0001                	nop
 a9c:	0600                	addi	s0,sp,768
 a9e:	0000                	unimp
 aa0:	0100                	addi	s0,sp,128
 aa2:	0145                	addi	sp,sp,17
 aa4:	0ae6                	slli	s5,s5,0x19
 aa6:	0000                	unimp
 aa8:	000b5227          	0xb5227
 aac:	2800                	fld	fs0,16(s0)
 aae:	0001                	nop
 ab0:	2e00                	fld	fs0,24(a2)
 ab2:	0b5f 0000 0130      	0x13000000b5f
 ab8:	0000                	unimp
 aba:	0006                	c.slli	zero,0x1
 abc:	0000                	unimp
 abe:	2401                	jal	cbe <_endtext+0xb52>
 ac0:	270a                	fld	fa4,128(sp)
 ac2:	0b70                	addi	a2,sp,412
 ac4:	0000                	unimp
 ac6:	0128                	addi	a0,sp,136
 ac8:	0000                	unimp
 aca:	7c2a                	flw	fs8,168(sp)
 acc:	3d00000b          	0x3d00000b
 ad0:	0001                	nop
 ad2:	2b00                	fld	fs0,16(a4)
 ad4:	0136                	slli	sp,sp,0xd
 ad6:	0000                	unimp
 ad8:	0b89                	addi	s7,s7,2
 ada:	0000                	unimp
 adc:	012c                	addi	a1,sp,136
 ade:	035a                	slli	t1,t1,0x16
 ae0:	710a                	flw	ft2,160(sp)
 ae2:	0002                	c.slli64	zero
 ae4:	0000                	unimp
 ae6:	412e                	lw	sp,200(sp)
 ae8:	4000000b          	0x4000000b
 aec:	0001                	nop
 aee:	0600                	addi	s0,sp,768
 af0:	0000                	unimp
 af2:	0100                	addi	s0,sp,128
 af4:	5227014b          	fnmsub.d	ft2,fa4,ft2,fa0,rne
 af8:	5300000b          	0x5300000b
 afc:	0001                	nop
 afe:	2e00                	fld	fs0,24(a2)
 b00:	0b5f 0000 0140      	0x14000000b5f
 b06:	0000                	unimp
 b08:	0006                	c.slli	zero,0x1
 b0a:	0000                	unimp
 b0c:	2401                	jal	d0c <_endtext+0xba0>
 b0e:	270a                	fld	fa4,128(sp)
 b10:	0b70                	addi	a2,sp,412
 b12:	0000                	unimp
 b14:	00000153          	fadd.s	ft2,ft0,ft0,rne
 b18:	7c2a                	flw	fs8,168(sp)
 b1a:	6800000b          	0x6800000b
 b1e:	0001                	nop
 b20:	2b00                	fld	fs0,16(a4)
 b22:	0146                	slli	sp,sp,0x11
 b24:	0000                	unimp
 b26:	0b89                	addi	s7,s7,2
 b28:	0000                	unimp
 b2a:	012c                	addi	a1,sp,136
 b2c:	035a                	slli	t1,t1,0x16
 b2e:	710a                	flw	ft2,160(sp)
 b30:	0002                	c.slli64	zero
 b32:	0000                	unimp
 b34:	1000                	addi	s0,sp,32
 b36:	d304                	sw	s1,32(a4)
 b38:	0005                	c.nop	1
 b3a:	1000                	addi	s0,sp,32
 b3c:	7704                	flw	fs1,40(a4)
 b3e:	0000                	unimp
 b40:	2f00                	fld	fs0,24(a4)
 b42:	04fc                	addi	a5,sp,588
 b44:	0000                	unimp
 b46:	2301                	jal	1046 <_endtext+0xeda>
 b48:	690c                	flw	fa1,16(a0)
 b4a:	0000                	unimp
 b4c:	0100                	addi	s0,sp,128
 b4e:	0b5f 0000 ca30      	0xca3000000b5f
 b54:	0002                	c.slli64	zero
 b56:	0100                	addi	s0,sp,128
 b58:	00482123          	sw	tp,2(a6) # 1b74c <_stack_start+0xb74c>
 b5c:	0000                	unimp
 b5e:	2f00                	fld	fs0,24(a4)
 b60:	0264                	addi	s1,sp,268
 b62:	0000                	unimp
 b64:	1b01                	addi	s6,s6,-32
 b66:	690c                	flw	fa1,16(a0)
 b68:	0000                	unimp
 b6a:	0100                	addi	s0,sp,128
 b6c:	0b89                	addi	s7,s7,2
 b6e:	0000                	unimp
 b70:	ca30                	sw	a2,80(a2)
 b72:	0002                	c.slli64	zero
 b74:	0100                	addi	s0,sp,128
 b76:	0048261b          	0x48261b
 b7a:	0000                	unimp
 b7c:	2b31                	jal	1098 <_endtext+0xf2c>
 b7e:	0000                	unimp
 b80:	0100                	addi	s0,sp,128
 b82:	111c                	addi	a5,sp,160
 b84:	0048                	addi	a0,sp,4
 b86:	0000                	unimp
 b88:	3200                	fld	fs0,32(a2)
 b8a:	0285                	addi	t0,t0,1
 b8c:	0000                	unimp
 b8e:	0d01                	addi	s10,s10,0
 b90:	8c0d                	sub	s0,s0,a1
 b92:	0000                	unimp
 b94:	0e00                	addi	s0,sp,784
 b96:	0000                	unimp
 b98:	0100                	addi	s0,sp,128
 b9a:	229c                	fld	fa5,0(a3)
 b9c:	000c                	0xc
 b9e:	0000                	unimp
 ba0:	0d01                	addi	s10,s10,0
 ba2:	0000482b          	0x482b
 ba6:	7e00                	flw	fs0,56(a2)
 ba8:	0001                	nop
 baa:	3300                	fld	fs0,32(a4)
 bac:	0074756f          	jal	a0,483b2 <_stack_start+0x383b2>
 bb0:	0e01                	addi	t3,t3,0
 bb2:	00006907          	0x6907
 bb6:	0000                	unimp
 bb8:	1e00                	addi	s0,sp,816
 bba:	0000                	unimp
 bbc:	0200                	addi	s0,sp,256
 bbe:	dd00                	sw	s0,56(a0)
 bc0:	0002                	c.slli64	zero
 bc2:	0400                	addi	s0,sp,512
 bc4:	bb01                	j	8d4 <_endtext+0x768>
 bc6:	0002                	c.slli64	zero
 bc8:	3800                	fld	fs0,48(s0)
 bca:	0000                	unimp
 bcc:	2500                	fld	fs0,8(a0)
 bce:	0005                	c.nop	1
 bd0:	2c00                	fld	fs0,24(s0)
 bd2:	0005                	c.nop	1
 bd4:	6d00                	flw	fs0,24(a0)
 bd6:	0005                	c.nop	1
 bd8:	0100                	addi	s0,sp,128
 bda:	80              	Address 0x0000000000000bda is out of bounds.


Disassembly of section .debug_abbrev:

00000000 <.debug_abbrev>:
  .endr
   0:	1101                	addi	sp,sp,-32
   2:	2501                	jal	602 <_endtext+0x496>
   4:	130e                	slli	t1,t1,0x23
   6:	1b0e030b          	0x1b0e030b
   a:	550e                	lw	a0,224(sp)
   c:	10011117          	auipc	sp,0x10011
  10:	02000017          	auipc	zero,0x2000
  14:	0024                	addi	s1,sp,8
  16:	0b3e0b0b          	0xb3e0b0b
  1a:	00000e03          	lb	t3,0(zero) # 0 <__DYNAMIC>
  1e:	03001603          	lh	a2,48(zero) # 30 <__DYNAMIC+0x30>
  22:	3a0e                	fld	fs4,224(sp)
  24:	390b3b0b          	0x390b3b0b
  28:	0013490b          	0x13490b
  2c:	0400                	addi	s0,sp,512
  2e:	0024                	addi	s1,sp,8
  30:	0b3e0b0b          	0xb3e0b0b
  34:	00000803          	lb	a6,0(zero) # 0 <__DYNAMIC>
  38:	3505                	jal	fffffe58 <_stack_start+0xfffefe58>
  3a:	4900                	lw	s0,16(a0)
  3c:	06000013          	li	zero,96
  40:	0016                	c.slli	zero,0x5
  42:	0b3a0e03          	lb	t3,179(s4) # 90b3 <_stack_len+0x50b3>
  46:	0b39053b          	0xb39053b
  4a:	1349                	addi	t1,t1,-14
  4c:	0000                	unimp
  4e:	0b011707          	0xb011707
  52:	3b0b3a0b          	0x3b0b3a0b
  56:	010b390b          	0x10b390b
  5a:	08000013          	li	zero,128
  5e:	000d                	c.nop	3
  60:	0b3a0e03          	lb	t3,179(s4)
  64:	0b390b3b          	0xb390b3b
  68:	1349                	addi	t1,t1,-14
  6a:	0000                	unimp
  6c:	0109                	addi	sp,sp,2
  6e:	4901                	li	s2,0
  70:	00130113          	addi	sp,t1,1 # fffe2001 <_stack_start+0xfffd2001>
  74:	0a00                	addi	s0,sp,272
  76:	0021                	c.nop	8
  78:	1349                	addi	t1,t1,-14
  7a:	00000b2f          	0xb2f
  jal x0, default_exc_handler
  7e:	0b01130b          	0xb01130b
  jal x0, reset_handler
  82:	3b0b3a0b          	0x3b0b3a0b
  jal x0, default_exc_handler
  86:	010b390b          	0x10b390b
  jal x0, default_exc_handler
  8a:	0c000013          	li	zero,192
  8e:	000d                	c.nop	3
  90:	0b3a0e03          	lb	t3,179(s4)
  94:	0b390b3b          	0xb390b3b
  98:	1349                	addi	t1,t1,-14
  jal x0, default_exc_handler
  9a:	0b38                	addi	a4,sp,408
  9c:	0000                	unimp
  mv  x1, x0
  9e:	0f0d                	addi	t5,t5,3
  a0:	0b00                	addi	s0,sp,400
  mv  x2, x1
  a2:	0e00000b          	0xe00000b
  mv  x4, x1
  a6:	0e030113          	addi	sp,t1,224
  mv  x6, x1
  aa:	0b3a0b0b          	0xb3a0b0b
  mv  x8, x1
  ae:	0b390b3b          	0xb390b3b
  mv x10, x1
  b2:	1301                	addi	t1,t1,-32
  mv x11, x1
  b4:	0000                	unimp
  mv x12, x1
  b6:	03000d0f          	0x3000d0f
  mv x14, x1
  ba:	3a08                	fld	fa0,48(a2)
  mv x15, x1
  bc:	390b3b0b          	0x390b3b0b
  mv x17, x1
  c0:	3813490b          	0x3813490b
  mv x19, x1
  c4:	1000000b          	0x1000000b
  mv x21, x1
  c8:	0b0b000f          	0xb0b000f
  mv x23, x1
  cc:	1349                	addi	t1,t1,-14
  mv x24, x1
  ce:	0000                	unimp
  mv x25, x1
  d0:	1311                	addi	t1,t1,-28
  mv x26, x1
  d2:	0301                	addi	t1,t1,0
  mv x27, x1
  d4:	0b0e                	slli	s6,s6,0x3
  mv x28, x1
  d6:	3a05                	jal	fffffa06 <_stack_start+0xfffefa06>
  mv x29, x1
  d8:	390b3b0b          	0x390b3b0b
  mv x31, x1
  dc:	0013010b          	0x13010b
  la   x2, _stack_start
  e0:	1200                	addi	s0,sp,288
  e2:	000d                	c.nop	3
  e4:	0b3a0e03          	lb	t3,179(s4)
  la x26, _bss_start
  e8:	0b390b3b          	0xb390b3b
  la x27, _bss_end
  ec:	1349                	addi	t1,t1,-14
  bge x26, x27, zero_loop_end
  ee:	0538                	addi	a4,sp,648
  f0:	0000                	unimp
  sw x0, 0(x26)
  f2:	27001513          	0x27001513
  addi x26, x26, 4
  f6:	0019                	c.nop	6
  ble x26, x27, zero_loop
  f8:	1400                	addi	s0,sp,544
  fa:	0115                	addi	sp,sp,5
  addi x10, x0, 0
  fc:	13491927          	0x13491927
  addi x11, x0, 0
 100:	1301                	addi	t1,t1,-32
 102:	0000                	unimp
  jal x1, main
 104:	0515                	addi	a0,a0,5
 106:	4900                	lw	s0,16(a0)
 108:	16000013          	li	zero,352
 10c:	0026                	c.slli	zero,0x9
 10e:	1349                	addi	t1,t1,-14
 110:	0000                	unimp
 112:	03011317          	auipc	t1,0x3011
 116:	0b0e                	slli	s6,s6,0x3
 118:	3a05                	jal	fffffa48 <_stack_start+0xfffefa48>
 11a:	39053b0b          	0x39053b0b
 11e:	0013010b          	0x13010b
 122:	1800                	addi	s0,sp,48
 124:	000d                	c.nop	3
 126:	0b3a0e03          	lb	t3,179(s4)
 12a:	0b39053b          	0xb39053b
 12e:	1349                	addi	t1,t1,-14
 130:	0b38                	addi	a4,sp,408
 132:	0000                	unimp
 134:	0d19                	addi	s10,s10,6
 136:	0300                	addi	s0,sp,384
 138:	3a0e                	fld	fs4,224(sp)
 13a:	39053b0b          	0x39053b0b
 13e:	3813490b          	0x3813490b
 142:	0005                	c.nop	1
 144:	1a00                	addi	s0,sp,304
 146:	0e030113          	addi	sp,t1,224 # 30111f2 <_stack_start+0x30011f2>
 14a:	0b3a0b0b          	0xb3a0b0b
 14e:	0b39053b          	0xb39053b
 152:	1301                	addi	t1,t1,-32
 154:	0000                	unimp
 156:	0b01131b          	0xb01131b
 15a:	3b0b3a0b          	0x3b0b3a0b
 15e:	3905                	jal	fffffd8e <_stack_start+0xfffefd8e>
 160:	0013010b          	0x13010b
 164:	1c00                	addi	s0,sp,560
 166:	0b0b0117          	auipc	sp,0xb0b0
 16a:	0b3a                	slli	s6,s6,0xe
 16c:	0b39053b          	0xb39053b
 170:	1301                	addi	t1,t1,-32
 172:	0000                	unimp
 174:	0d1d                	addi	s10,s10,7
 176:	0300                	addi	s0,sp,384
 178:	3a0e                	fld	fs4,224(sp)
 17a:	39053b0b          	0x39053b0b
 17e:	0013490b          	0x13490b
 182:	1e00                	addi	s0,sp,816
 184:	0e030013          	addi	zero,t1,224
 188:	193c                	addi	a5,sp,184
 18a:	0000                	unimp
 18c:	151f 2701 0119      	0x1192701151f
 192:	20000013          	li	zero,512
 196:	0034                	addi	a3,sp,8
 198:	0b3a0e03          	lb	t3,179(s4)
 19c:	0b39053b          	0xb39053b
 1a0:	1349                	addi	t1,t1,-14
 1a2:	193c193f 2e210000 	0x2e210000193c193f
 1aa:	3f01                	jal	ba <reset_handler+0x1c>
 1ac:	0319                	addi	t1,t1,6
 1ae:	3a0e                	fld	fs4,224(sp)
 1b0:	390b3b0b          	0x390b3b0b
 1b4:	4919270b          	0x4919270b
 1b8:	12011113          	0x12011113
 1bc:	4006                	0x4006
 1be:	9718                	0x9718
 1c0:	1942                	slli	s2,s2,0x30
 1c2:	1301                	addi	t1,t1,-32
 1c4:	0000                	unimp
 1c6:	0522                	slli	a0,a0,0x8
 1c8:	0300                	addi	s0,sp,384
 1ca:	3a0e                	fld	fs4,224(sp)
 1cc:	390b3b0b          	0x390b3b0b
 1d0:	0213490b          	0x213490b
 1d4:	23000017          	auipc	zero,0x23000
 1d8:	0034                	addi	a3,sp,8
 1da:	0b3a0803          	lb	a6,179(s4)
 1de:	0b390b3b          	0xb390b3b
 1e2:	1349                	addi	t1,t1,-14
 1e4:	061c                	addi	a5,sp,768
 1e6:	0000                	unimp
 1e8:	3424                	fld	fs1,104(s0)
 1ea:	0300                	addi	s0,sp,384
 1ec:	3a08                	fld	fa0,48(a2)
 1ee:	390b3b0b          	0x390b3b0b
 1f2:	1c13490b          	0x1c13490b
 1f6:	0005                	c.nop	1
 1f8:	2500                	fld	fs0,8(a0)
 1fa:	0034                	addi	a3,sp,8
 1fc:	0b3a0803          	lb	a6,179(s4)
 200:	0b390b3b          	0xb390b3b
 204:	1349                	addi	t1,t1,-14
 206:	1702                	slli	a4,a4,0x20
 208:	0000                	unimp
 20a:	1d26                	slli	s10,s10,0x29
 20c:	3101                	jal	fffffe0c <_stack_start+0xfffefe0c>
 20e:	55015213          	0x55015213
 212:	590b5817          	auipc	a6,0x590b5
 216:	010b570b          	0x10b570b
 21a:	27000013          	li	zero,624
 21e:	0005                	c.nop	1
 220:	1331                	addi	t1,t1,-20
 222:	1702                	slli	a4,a4,0x20
 224:	0000                	unimp
 226:	1d28                	addi	a0,sp,696
 228:	3101                	jal	fffffe28 <_stack_start+0xfffefe28>
 22a:	55015213          	0x55015213
 22e:	590b5817          	auipc	a6,0x590b5
 232:	000b570b          	0xb570b
 236:	2900                	fld	fs0,16(a0)
 238:	1755010b          	0x1755010b
 23c:	0000                	unimp
 23e:	342a                	fld	fs0,168(sp)
 240:	3100                	fld	fs0,32(a0)
 242:	00170213          	addi	tp,a4,1
 246:	2b00                	fld	fs0,16(a4)
 248:	8289                	srli	a3,a3,0x2
 24a:	0101                	addi	sp,sp,0
 24c:	0111                	addi	sp,sp,4
 24e:	1331                	addi	t1,t1,-20
 250:	0000                	unimp
 252:	8a2c                	0x8a2c
 254:	0182                	c.slli64	gp
 256:	0200                	addi	s0,sp,256
 258:	9118                	0x9118
 25a:	1842                	slli	a6,a6,0x30
 25c:	0000                	unimp
 25e:	1d2d                	addi	s10,s10,-21
 260:	3101                	jal	fffffe60 <_stack_start+0xfffefe60>
 262:	12011113          	0x12011113
 266:	5806                	lw	a6,96(sp)
 268:	570b590b          	0x570b590b
 26c:	0013010b          	0x13010b
 270:	2e00                	fld	fs0,24(a2)
 272:	011d                	addi	sp,sp,7
 274:	1331                	addi	t1,t1,-20
 276:	0111                	addi	sp,sp,4
 278:	0612                	slli	a2,a2,0x4
 27a:	0b58                	addi	a4,sp,404
 27c:	0b59                	addi	s6,s6,22
 27e:	00000b57          	0xb57
 282:	03012e2f          	amoadd.w.rl	t3,a6,(sp)
 286:	3a0e                	fld	fs4,224(sp)
 288:	390b3b0b          	0x390b3b0b
 28c:	4919270b          	0x4919270b
 290:	010b2013          	slti	zero,s6,16
 294:	30000013          	li	zero,768
 298:	0005                	c.nop	1
 29a:	0b3a0e03          	lb	t3,179(s4)
 29e:	0b390b3b          	0xb390b3b
 2a2:	1349                	addi	t1,t1,-14
 2a4:	0000                	unimp
 2a6:	3431                	jal	fffffcb2 <_stack_start+0xfffefcb2>
 2a8:	0300                	addi	s0,sp,384
 2aa:	3a0e                	fld	fs4,224(sp)
 2ac:	390b3b0b          	0x390b3b0b
 2b0:	0013490b          	0x13490b
 2b4:	3200                	fld	fs0,32(a2)
 2b6:	012e                	slli	sp,sp,0xb
 2b8:	0b3a0e03          	lb	t3,179(s4)
 2bc:	0b390b3b          	0xb390b3b
 2c0:	01111927          	0x1111927
 2c4:	0612                	slli	a2,a2,0x4
 2c6:	1840                	addi	s0,sp,52
 2c8:	00194297          	auipc	t0,0x194
 2cc:	3300                	fld	fs0,32(a4)
 2ce:	0034                	addi	a3,sp,8
 2d0:	0b3a0803          	lb	a6,179(s4)
 2d4:	0b390b3b          	0xb390b3b
 2d8:	1349                	addi	t1,t1,-14
 2da:	0000                	unimp
 2dc:	0100                	addi	s0,sp,128
 2de:	0011                	c.nop	4
 2e0:	0610                	addi	a2,sp,768
 2e2:	0655                	addi	a2,a2,21
 2e4:	0e1b0e03          	lb	t3,225(s6) # 90e1 <_stack_len+0x50e1>
 2e8:	0e25                	addi	t3,t3,9
 2ea:	00000513          	li	a0,0
	...

Disassembly of section .debug_loc:

00000000 <.debug_loc>:
  .endr
   0:	0108                	addi	a0,sp,128
   2:	0000                	unimp
   4:	010e                	slli	sp,sp,0x3
   6:	0000                	unimp
   8:	0001                	nop
   a:	0e5a                	slli	t3,t3,0x16
   c:	0001                	nop
   e:	5a00                	lw	s0,48(a2)
  10:	0001                	nop
  12:	0400                	addi	s0,sp,512
  14:	f300                	fsw	fs0,32(a4)
  16:	5a01                	li	s4,-32
  18:	009f 0000 0000      	0x9f
  1e:	0000                	unimp
  20:	0800                	addi	s0,sp,16
  22:	0001                	nop
  24:	1300                	addi	s0,sp,416
  26:	0001                	nop
  28:	0100                	addi	s0,sp,128
  2a:	5b00                	lw	s0,48(a4)
  2c:	00000113          	li	sp,0
  30:	015a                	slli	sp,sp,0x16
  32:	0000                	unimp
  34:	0004                	0x4
  36:	9f5b01f3          	0x9f5b01f3
	...
  42:	0108                	addi	a0,sp,128
  44:	0000                	unimp
  46:	0114                	addi	a3,sp,128
  48:	0000                	unimp
  4a:	000a                	c.slli	zero,0x2
  4c:	089e                	slli	a7,a7,0x7
  4e:	0001                	nop
  50:	0000                	unimp
  52:	0000                	unimp
  54:	0000                	unimp
  56:	0114                	addi	a3,sp,128
  58:	0000                	unimp
  5a:	015a                	slli	sp,sp,0x16
  5c:	0000                	unimp
  5e:	000a                	c.slli	zero,0x2
  60:	089e                	slli	a7,a7,0x7
  62:	86ce                	mv	a3,s3
  64:	3b49                	jal	fffffdf6 <_stack_start+0xfffefdf6>
	...
  72:	0108                	addi	a0,sp,128
  74:	0000                	unimp
  76:	0126                	slli	sp,sp,0x9
  78:	0000                	unimp
  7a:	000a                	c.slli	zero,0x2
  jal x0, default_exc_handler
  7c:	089e                	slli	a7,a7,0x7
  7e:	0001                	nop
  jal x0, reset_handler
  80:	0000                	unimp
  82:	0000                	unimp
  jal x0, default_exc_handler
  84:	0000                	unimp
  86:	0126                	slli	sp,sp,0x9
  jal x0, default_exc_handler
  88:	0000                	unimp
  8a:	015a                	slli	sp,sp,0x16
  8c:	0000                	unimp
  8e:	000a                	c.slli	zero,0x2
  90:	089e                	slli	a7,a7,0x7
  92:	e104                	fsw	fs1,0(a0)
  94:	07e4                	addi	s1,sp,972
	...
  mv  x2, x1
  a2:	0108                	addi	a0,sp,128
  mv  x3, x1
  a4:	0000                	unimp
  mv  x4, x1
  a6:	0136                	slli	sp,sp,0xd
  mv  x5, x1
  a8:	0000                	unimp
  mv  x6, x1
  aa:	000a                	c.slli	zero,0x2
  mv  x7, x1
  ac:	089e                	slli	a7,a7,0x7
  mv  x8, x1
  ae:	0001                	nop
  mv  x9, x1
  b0:	0000                	unimp
  mv x10, x1
  b2:	0000                	unimp
  mv x11, x1
  b4:	0000                	unimp
  mv x12, x1
  b6:	0136                	slli	sp,sp,0xd
  mv x13, x1
  b8:	0000                	unimp
  mv x14, x1
  ba:	015a                	slli	sp,sp,0x16
  mv x15, x1
  bc:	0000                	unimp
  mv x16, x1
  be:	000a                	c.slli	zero,0x2
  mv x17, x1
  c0:	089e                	slli	a7,a7,0x7
  mv x18, x1
  c2:	35cc                	fld	fa1,168(a1)
  mv x19, x1
  c4:	00000dfb          	0xdfb
	...
  mv x25, x1
  d0:	0000                	unimp
  mv x26, x1
  d2:	0108                	addi	a0,sp,128
  mv x27, x1
  d4:	0000                	unimp
  mv x28, x1
  d6:	0114                	addi	a3,sp,128
  mv x29, x1
  d8:	0000                	unimp
  mv x30, x1
  da:	64080003          	lb	zero,1600(a6) # 590b586e <_stack_start+0x590a586e>
  la   x2, _stack_start
  de:	009f 0000 0000      	0x9f
  e4:	0000                	unimp
  la x26, _bss_start
  e6:	0800                	addi	s0,sp,16
  e8:	0001                	nop
  la x27, _bss_end
  ea:	1400                	addi	s0,sp,544
  ec:	0001                	nop
  bge x26, x27, zero_loop_end
  ee:	0400                	addi	s0,sp,512
  f0:	0a00                	addi	s0,sp,272
  sw x0, 0(x26)
  f2:	0271                	addi	tp,tp,28
  f4:	009f 0000 0000      	0x9f
  ble x26, x27, zero_loop
  fa:	0000                	unimp
  addi x10, x0, 0
  fc:	2000                	fld	fs0,0(s0)
  fe:	0001                	nop
  addi x11, x0, 0
 100:	2600                	fld	fs0,8(a2)
 102:	0001                	nop
  jal x1, main
 104:	0300                	addi	s0,sp,384
 106:	0800                	addi	s0,sp,16
 108:	9f64                	0x9f64
	...
 112:	0120                	addi	s0,sp,136
 114:	0000                	unimp
 116:	0126                	slli	sp,sp,0x9
 118:	0000                	unimp
 11a:	0004                	0x4
 11c:	710a                	flw	ft2,160(sp)
 11e:	9f02                	jalr	t5
	...
 128:	0130                	addi	a2,sp,136
 12a:	0000                	unimp
 12c:	0136                	slli	sp,sp,0xd
 12e:	0000                	unimp
 130:	64080003          	lb	zero,1600(a6)
 134:	009f 0000 0000      	0x9f
 13a:	0000                	unimp
 13c:	3000                	fld	fs0,32(s0)
 13e:	0001                	nop
 140:	3600                	fld	fs0,40(a2)
 142:	0001                	nop
 144:	0400                	addi	s0,sp,512
 146:	0a00                	addi	s0,sp,272
 148:	0271                	addi	tp,tp,28
 14a:	009f 0000 0000      	0x9f
 150:	0000                	unimp
 152:	4000                	lw	s0,0(s0)
 154:	0001                	nop
 156:	4600                	lw	s0,8(a2)
 158:	0001                	nop
 15a:	0300                	addi	s0,sp,384
 15c:	0800                	addi	s0,sp,16
 15e:	9f64                	0x9f64
	...
 168:	0140                	addi	s0,sp,132
 16a:	0000                	unimp
 16c:	0146                	slli	sp,sp,0x11
 16e:	0000                	unimp
 170:	0004                	0x4
 172:	710a                	flw	ft2,160(sp)
 174:	9f02                	jalr	t5
	...
 17e:	008c                	addi	a1,sp,64
 180:	0000                	unimp
 182:	0098                	addi	a4,sp,64
 184:	0000                	unimp
 186:	0001                	nop
 188:	985a                	add	a6,a6,s6
 18a:	0000                	unimp
 18c:	9a00                	0x9a00
 18e:	0000                	unimp
 190:	0400                	addi	s0,sp,512
 192:	f300                	fsw	fs0,32(a4)
 194:	5a01                	li	s4,-32
 196:	009f 0000 0000      	0x9f
 19c:	0000                	unimp
	...

Disassembly of section .debug_aranges:

00000000 <.debug_aranges>:
  .endr
   0:	0024                	addi	s1,sp,8
   2:	0000                	unimp
   4:	0002                	c.slli64	zero
   6:	0000                	unimp
   8:	0000                	unimp
   a:	0004                	0x4
   c:	0000                	unimp
   e:	0000                	unimp
  10:	008c                	addi	a1,sp,64
  12:	0000                	unimp
  14:	000e                	c.slli	zero,0x3
  16:	0000                	unimp
  18:	0108                	addi	a0,sp,128
  1a:	0000                	unimp
  1c:	0052                	c.slli	zero,0x14
	...
  26:	0000                	unimp
  28:	0024                	addi	s1,sp,8
  2a:	0000                	unimp
  2c:	0002                	c.slli64	zero
  2e:	0bb9                	addi	s7,s7,14
  30:	0000                	unimp
  32:	0004                	0x4
  34:	0000                	unimp
  36:	0000                	unimp
  38:	009a                	slli	ra,ra,0x6
  3a:	0000                	unimp
  3c:	006e                	c.slli	zero,0x1b
  3e:	0000                	unimp
  40:	0000                	unimp
  42:	0000                	unimp
  44:	008c                	addi	a1,sp,64
	...

Disassembly of section .debug_ranges:

00000000 <.debug_ranges>:
   0:	0108                	addi	a0,sp,128
   2:	0000                	unimp
   4:	0108                	addi	a0,sp,128
   6:	0000                	unimp
   8:	010a                	slli	sp,sp,0x2
   a:	0000                	unimp
   c:	010e                	slli	sp,sp,0x3
   e:	0000                	unimp
  10:	0112                	slli	sp,sp,0x4
  12:	0000                	unimp
  14:	0114                	addi	a3,sp,128
	...
  1e:	0000                	unimp
  20:	008c                	addi	a1,sp,64
  22:	0000                	unimp
  24:	009a                	slli	ra,ra,0x6
  26:	0000                	unimp
  28:	0108                	addi	a0,sp,128
  2a:	0000                	unimp
  2c:	015a                	slli	sp,sp,0x16
	...
  36:	0000                	unimp
  38:	ffff                	0xffff
  3a:	ffff                	0xffff
  3c:	0000                	unimp
  3e:	0000                	unimp
  40:	009a                	slli	ra,ra,0x6
  42:	0000                	unimp
  44:	0108                	addi	a0,sp,128
  46:	0000                	unimp
  48:	0000                	unimp
  4a:	0000                	unimp
  4c:	008c                	addi	a1,sp,64
	...

Disassembly of section .debug_line:

00000000 <.debug_line>:
   0:	000002b7          	lui	t0,0x0
   4:	00f90003          	lb	zero,15(s2) # 900f <_stack_len+0x500f>
   8:	0000                	unimp
   a:	0101                	addi	sp,sp,0
   c:	000d0efb          	0xd0efb
  10:	0101                	addi	sp,sp,0
  12:	0101                	addi	sp,sp,0
  14:	0000                	unimp
  16:	0100                	addi	s0,sp,128
  18:	0000                	unimp
  1a:	2f01                	jal	72a <_endtext+0x5be>
  1c:	2f74706f          	j	47b12 <_stack_start+0x37b12>
  20:	6972                	flw	fs2,28(sp)
  22:	2f766373          	csrrsi	t1,0x2f7,12
  26:	6972                	flw	fs2,28(sp)
  28:	33766373          	csrrsi	t1,mhpmevent23,12
  2c:	2d32                	fld	fs10,264(sp)
  2e:	6e75                	lui	t3,0x1d
  30:	776f6e6b          	0x776f6e6b
  34:	2d6e                	fld	fs10,216(sp)
  36:	6c65                	lui	s8,0x19
  38:	2f66                	fld	ft10,88(sp)
  3a:	6e69                	lui	t3,0x1a
  3c:	64756c63          	bltu	a0,t2,694 <_endtext+0x528>
  40:	2f65                	jal	7f8 <_endtext+0x68c>
  42:	616d                	addi	sp,sp,240
  44:	6e696863          	bltu	s2,t1,734 <_endtext+0x5c8>
  48:	0065                	c.nop	25
  4a:	74706f2f          	0x74706f2f
  4e:	7369722f          	0x7369722f
  52:	722f7663          	bgeu	t5,sp,77e <_endtext+0x612>
  56:	7369                	lui	t1,0xffffa
  58:	32337663          	bgeu	t1,gp,384 <_endtext+0x218>
  5c:	752d                	lui	a0,0xfffeb
  5e:	6b6e                	flw	fs6,216(sp)
  60:	6f6e                	flw	ft10,216(sp)
  62:	652d6e77          	0x652d6e77
  66:	666c                	flw	fa1,76(a2)
  68:	636e692f          	0x636e692f
  6c:	756c                	flw	fa1,108(a0)
  6e:	6564                	flw	fs1,76(a0)
  70:	7379732f          	0x7379732f
  74:	2f00                	fld	fs0,24(a4)
  76:	2f74706f          	j	47b6c <_stack_start+0x37b6c>
  7a:	6972                	flw	fs2,28(sp)
  jal x0, default_exc_handler
  7c:	2f766373          	csrrsi	t1,0x2f7,12
  jal x0, reset_handler
  80:	696c                	flw	fa1,84(a0)
  82:	2f62                	fld	ft10,24(sp)
  jal x0, default_exc_handler
  84:	2f636367          	0x2f636367
  jal x0, default_exc_handler
  88:	6972                	flw	fs2,28(sp)
  8a:	33766373          	csrrsi	t1,mhpmevent23,12
  8e:	2d32                	fld	fs10,264(sp)
  90:	6e75                	lui	t3,0x1d
  92:	776f6e6b          	0x776f6e6b
  96:	2d6e                	fld	fs10,216(sp)
  98:	6c65                	lui	s8,0x19
  jal x0, default_exc_handler
  9a:	2f66                	fld	ft10,88(sp)
  9c:	2e39                	jal	3ba <_endtext+0x24e>
  mv  x1, x0
  9e:	2e32                	fld	ft8,264(sp)
  a0:	2f30                	fld	fa2,88(a4)
  mv  x2, x1
  a2:	6e69                	lui	t3,0x1a
  mv  x3, x1
  a4:	64756c63          	bltu	a0,t2,6fc <_endtext+0x590>
  mv  x5, x1
  a8:	0065                	c.nop	25
  mv  x6, x1
  aa:	6c00                	flw	fs0,24(s0)
  mv  x7, x1
  ac:	6465                	lui	s0,0x19
  mv  x8, x1
  ae:	632e                	flw	ft6,200(sp)
  mv  x9, x1
  b0:	0000                	unimp
  mv x10, x1
  b2:	0000                	unimp
  mv x11, x1
  b4:	645f 6665 7561      	0x75616665645f
  mv x14, x1
  ba:	746c                	flw	fa1,108(s0)
  mv x15, x1
  bc:	745f 7079 7365      	0x73657079745f
  mv x18, x1
  c2:	682e                	flw	fa6,200(sp)
  mv x19, x1
  c4:	0100                	addi	s0,sp,128
  mv x20, x1
  c6:	0000                	unimp
  mv x21, x1
  c8:	735f 6474 6e69      	0x6e696474735f
  mv x24, x1
  ce:	2e74                	fld	fa3,216(a2)
  mv x25, x1
  d0:	0068                	addi	a0,sp,12
  mv x26, x1
  d2:	0002                	c.slli64	zero
  mv x27, x1
  d4:	7300                	flw	fs0,32(a4)
  mv x28, x1
  d6:	6474                	flw	fa3,76(s0)
  mv x29, x1
  d8:	6564                	flw	fs1,76(a0)
  mv x30, x1
  da:	2e66                	fld	ft8,88(sp)
  mv x31, x1
  dc:	0068                	addi	a0,sp,12
  la   x2, _stack_start
  de:	5f000003          	lb	zero,1520(zero) # 5f0 <_endtext+0x484>
  e2:	7974                	flw	fa3,116(a0)
  e4:	6570                	flw	fa2,76(a0)
  la x26, _bss_start
  e6:	00682e73          	csrrs	t3,0x6,a6
  la x27, _bss_end
  ea:	0002                	c.slli64	zero
  ec:	7200                	flw	fs0,32(a2)
  bge x26, x27, zero_loop_end
  ee:	6565                	lui	a0,0x19
  f0:	746e                	flw	fs0,248(sp)
  sw x0, 0(x26)
  f2:	682e                	flw	fa6,200(sp)
  f4:	0200                	addi	s0,sp,256
  addi x26, x26, 4
  f6:	0000                	unimp
  ble x26, x27, zero_loop
  f8:	6f6c                	flw	fa1,92(a4)
  fa:	682e6b63          	bltu	t3,sp,790 <_endtext+0x624>
  addi x10, x0, 0
  fe:	0200                	addi	s0,sp,256
  addi x11, x0, 0
 100:	0000                	unimp
 102:	0500                	addi	s0,sp,640
  jal x1, main
 104:	0032                	c.slli	zero,0xc
 106:	0205                	addi	tp,tp,1
 108:	008c                	addi	a1,sp,64
 10a:	0000                	unimp
 10c:	05010c03          	lb	s8,80(sp) # b0b01b6 <_stack_start+0xb0a01b6>
 110:	09010303          	lb	t1,144(sp)
 114:	0000                	unimp
 116:	0301                	addi	t1,t1,0
 118:	0901                	addi	s2,s2,0
 11a:	0000                	unimp
 11c:	0501                	addi	a0,a0,0
 11e:	0601                	addi	a2,a2,0
 120:	0c090a03          	lb	s4,192(s2)
 124:	0100                	addi	s0,sp,128
 126:	0209                	addi	tp,tp,2
 128:	0000                	unimp
 12a:	0101                	addi	sp,sp,0
 12c:	2105                	jal	54c <_endtext+0x3e0>
 12e:	0500                	addi	s0,sp,640
 130:	0802                	c.slli64	a6
 132:	0001                	nop
 134:	0300                	addi	s0,sp,384
 136:	0126                	slli	sp,sp,0x9
 138:	0105                	addi	sp,sp,1
 13a:	00090303          	lb	t1,0(s2)
 13e:	0100                	addi	s0,sp,128
 140:	00090103          	lb	sp,0(s2)
 144:	0100                	addi	s0,sp,128
 146:	00090103          	lb	sp,0(s2)
 14a:	0100                	addi	s0,sp,128
 14c:	00090103          	lb	sp,0(s2)
 150:	0100                	addi	s0,sp,128
 152:	00090203          	lb	tp,0(s2)
 156:	0100                	addi	s0,sp,128
 158:	00090203          	lb	tp,0(s2)
 15c:	0100                	addi	s0,sp,128
 15e:	00090203          	lb	tp,0(s2)
 162:	0100                	addi	s0,sp,128
 164:	00090103          	lb	sp,0(s2)
 168:	0100                	addi	s0,sp,128
 16a:	00090103          	lb	sp,0(s2)
 16e:	0100                	addi	s0,sp,128
 170:	00090503          	lb	a0,0(s2)
 174:	0100                	addi	s0,sp,128
 176:	0305                	addi	t1,t1,1
 178:	00096a03          	0x96a03
 17c:	0100                	addi	s0,sp,128
 17e:	00097803          	0x97803
 182:	0100                	addi	s0,sp,128
 184:	00090103          	lb	sp,0(s2)
 188:	0100                	addi	s0,sp,128
 18a:	00090203          	lb	tp,0(s2)
 18e:	0100                	addi	s0,sp,128
 190:	2105                	jal	5b0 <_endtext+0x444>
 192:	0306                	slli	t1,t1,0x1
 194:	0908                	addi	a0,sp,144
 196:	0000                	unimp
 198:	0501                	addi	a0,a0,0
 19a:	09780303          	lb	t1,151(a6)
 19e:	0002                	c.slli64	zero
 1a0:	0501                	addi	a0,a0,0
 1a2:	0321                	addi	t1,t1,8
 1a4:	0908                	addi	a0,sp,144
 1a6:	0004                	0x4
 1a8:	0501                	addi	a0,a0,0
 1aa:	09780303          	lb	t1,151(a6)
 1ae:	0004                	0x4
 1b0:	0601                	addi	a2,a2,0
 1b2:	02090103          	lb	sp,32(s2)
 1b6:	0100                	addi	s0,sp,128
 1b8:	0105                	addi	sp,sp,1
 1ba:	00091b03          	lh	s6,0(s2)
 1be:	0100                	addi	s0,sp,128
 1c0:	0205                	addi	tp,tp,1
 1c2:	00090103          	lb	sp,0(s2)
 1c6:	0100                	addi	s0,sp,128
 1c8:	0705                	addi	a4,a4,1
 1ca:	0306                	slli	t1,t1,0x1
 1cc:	0900                	addi	s0,sp,144
 1ce:	0000                	unimp
 1d0:	0501                	addi	a0,a0,0
 1d2:	0601                	addi	a2,a2,0
 1d4:	0c090403          	lb	s0,192(s2)
 1d8:	0100                	addi	s0,sp,128
 1da:	0305                	addi	t1,t1,1
 1dc:	00096403          	0x96403
 1e0:	0100                	addi	s0,sp,128
 1e2:	00097803          	0x97803
 1e6:	0100                	addi	s0,sp,128
 1e8:	00090103          	lb	sp,0(s2)
 1ec:	0100                	addi	s0,sp,128
 1ee:	00090203          	lb	tp,0(s2)
 1f2:	0100                	addi	s0,sp,128
 1f4:	06090103          	lb	sp,96(s2)
 1f8:	0100                	addi	s0,sp,128
 1fa:	0105                	addi	sp,sp,1
 1fc:	00092103          	lw	sp,0(s2)
 200:	0100                	addi	s0,sp,128
 202:	0205                	addi	tp,tp,1
 204:	00090103          	lb	sp,0(s2)
 208:	0100                	addi	s0,sp,128
 20a:	0705                	addi	a4,a4,1
 20c:	0306                	slli	t1,t1,0x1
 20e:	0900                	addi	s0,sp,144
 210:	0000                	unimp
 212:	0501                	addi	a0,a0,0
 214:	0601                	addi	a2,a2,0
 216:	0a090303          	lb	t1,160(s2)
 21a:	0100                	addi	s0,sp,128
 21c:	0305                	addi	t1,t1,1
 21e:	00095f03          	lhu	t5,0(s2)
 222:	0100                	addi	s0,sp,128
 224:	00097803          	0x97803
 228:	0100                	addi	s0,sp,128
 22a:	00090103          	lb	sp,0(s2)
 22e:	0100                	addi	s0,sp,128
 230:	00090203          	lb	tp,0(s2)
 234:	0100                	addi	s0,sp,128
 236:	06090103          	lb	sp,96(s2)
 23a:	0100                	addi	s0,sp,128
 23c:	0105                	addi	sp,sp,1
 23e:	00092603          	lw	a2,0(s2)
 242:	0100                	addi	s0,sp,128
 244:	0205                	addi	tp,tp,1
 246:	00090103          	lb	sp,0(s2)
 24a:	0100                	addi	s0,sp,128
 24c:	0705                	addi	a4,a4,1
 24e:	0306                	slli	t1,t1,0x1
 250:	0900                	addi	s0,sp,144
 252:	0000                	unimp
 254:	0501                	addi	a0,a0,0
 256:	0601                	addi	a2,a2,0
 258:	0a090403          	lb	s0,160(s2)
 25c:	0100                	addi	s0,sp,128
 25e:	0305                	addi	t1,t1,1
 260:	00095903          	lhu	s2,0(s2)
 264:	0100                	addi	s0,sp,128
 266:	00097803          	0x97803
 26a:	0100                	addi	s0,sp,128
 26c:	00090103          	lb	sp,0(s2)
 270:	0100                	addi	s0,sp,128
 272:	00090203          	lb	tp,0(s2)
 276:	0100                	addi	s0,sp,128
 278:	06090103          	lb	sp,96(s2)
 27c:	0100                	addi	s0,sp,128
 27e:	0105                	addi	sp,sp,1
 280:	00092d03          	lw	s10,0(s2)
 284:	0100                	addi	s0,sp,128
 286:	00090103          	lb	sp,0(s2)
 28a:	0100                	addi	s0,sp,128
 28c:	0605                	addi	a2,a2,1
 28e:	0306                	slli	t1,t1,0x1
 290:	0900                	addi	s0,sp,144
 292:	0000                	unimp
 294:	0501                	addi	a0,a0,0
 296:	0301                	addi	t1,t1,0
 298:	0905                	addi	s2,s2,1
 29a:	0008                	0x8
 29c:	0501                	addi	a0,a0,0
 29e:	0306                	slli	t1,t1,0x1
 2a0:	0002097b          	0x2097b
 2a4:	0501                	addi	a0,a0,0
 2a6:	0601                	addi	a2,a2,0
 2a8:	02090403          	lb	s0,32(s2)
 2ac:	0100                	addi	s0,sp,128
 2ae:	0306                	slli	t1,t1,0x1
 2b0:	0901                	addi	s2,s2,0
 2b2:	0000                	unimp
 2b4:	0901                	addi	s2,s2,0
 2b6:	0008                	0x8
 2b8:	0100                	addi	s0,sp,128
 2ba:	5001                	c.li	zero,-32
 2bc:	0001                	nop
 2be:	0300                	addi	s0,sp,384
 2c0:	1d00                	addi	s0,sp,688
 2c2:	0000                	unimp
 2c4:	0100                	addi	s0,sp,128
 2c6:	fb01                	bnez	a4,1d6 <_endtext+0x6a>
 2c8:	0d0e                	slli	s10,s10,0x3
 2ca:	0100                	addi	s0,sp,128
 2cc:	0101                	addi	sp,sp,0
 2ce:	0001                	nop
 2d0:	0000                	unimp
 2d2:	0001                	nop
 2d4:	0100                	addi	s0,sp,128
 2d6:	6300                	flw	fs0,0(a4)
 2d8:	7472                	flw	fs0,60(sp)
 2da:	2e30                	fld	fa2,88(a2)
 2dc:	00000053          	fadd.s	ft0,ft0,ft0,rne
 2e0:	0000                	unimp
 2e2:	0500                	addi	s0,sp,640
 2e4:	9a02                	jalr	s4
 2e6:	0000                	unimp
 2e8:	1500                	addi	s0,sp,672
 2ea:	04090403          	lb	s0,64(s2)
 2ee:	0100                	addi	s0,sp,128
 2f0:	04090103          	lb	sp,64(s2)
 2f4:	0100                	addi	s0,sp,128
 2f6:	02090103          	lb	sp,32(s2)
 2fa:	0100                	addi	s0,sp,128
 2fc:	02090103          	lb	sp,32(s2)
 300:	0100                	addi	s0,sp,128
 302:	02090103          	lb	sp,32(s2)
 306:	0100                	addi	s0,sp,128
 308:	02090103          	lb	sp,32(s2)
 30c:	0100                	addi	s0,sp,128
 30e:	02090103          	lb	sp,32(s2)
 312:	0100                	addi	s0,sp,128
 314:	02090103          	lb	sp,32(s2)
 318:	0100                	addi	s0,sp,128
 31a:	02090103          	lb	sp,32(s2)
 31e:	0100                	addi	s0,sp,128
 320:	02090103          	lb	sp,32(s2)
 324:	0100                	addi	s0,sp,128
 326:	02090103          	lb	sp,32(s2)
 32a:	0100                	addi	s0,sp,128
 32c:	02090103          	lb	sp,32(s2)
 330:	0100                	addi	s0,sp,128
 332:	02090103          	lb	sp,32(s2)
 336:	0100                	addi	s0,sp,128
 338:	02090103          	lb	sp,32(s2)
 33c:	0100                	addi	s0,sp,128
 33e:	02090103          	lb	sp,32(s2)
 342:	0100                	addi	s0,sp,128
 344:	02090103          	lb	sp,32(s2)
 348:	0100                	addi	s0,sp,128
 34a:	02090103          	lb	sp,32(s2)
 34e:	0100                	addi	s0,sp,128
 350:	02090103          	lb	sp,32(s2)
 354:	0100                	addi	s0,sp,128
 356:	02090103          	lb	sp,32(s2)
 35a:	0100                	addi	s0,sp,128
 35c:	02090103          	lb	sp,32(s2)
 360:	0100                	addi	s0,sp,128
 362:	02090103          	lb	sp,32(s2)
 366:	0100                	addi	s0,sp,128
 368:	02090103          	lb	sp,32(s2)
 36c:	0100                	addi	s0,sp,128
 36e:	02090103          	lb	sp,32(s2)
 372:	0100                	addi	s0,sp,128
 374:	02090103          	lb	sp,32(s2)
 378:	0100                	addi	s0,sp,128
 37a:	02090103          	lb	sp,32(s2)
 37e:	0100                	addi	s0,sp,128
 380:	02090103          	lb	sp,32(s2)
 384:	0100                	addi	s0,sp,128
 386:	02090103          	lb	sp,32(s2)
 38a:	0100                	addi	s0,sp,128
 38c:	02090103          	lb	sp,32(s2)
 390:	0100                	addi	s0,sp,128
 392:	02090103          	lb	sp,32(s2)
 396:	0100                	addi	s0,sp,128
 398:	02090103          	lb	sp,32(s2)
 39c:	0100                	addi	s0,sp,128
 39e:	02090103          	lb	sp,32(s2)
 3a2:	0100                	addi	s0,sp,128
 3a4:	02090303          	lb	t1,32(s2)
 3a8:	0100                	addi	s0,sp,128
 3aa:	08090603          	lb	a2,128(s2)
 3ae:	0100                	addi	s0,sp,128
 3b0:	04090103          	lb	sp,64(s2)
 3b4:	0100                	addi	s0,sp,128
 3b6:	04090203          	lb	tp,64(s2)
 3ba:	0100                	addi	s0,sp,128
 3bc:	04090303          	lb	t1,64(s2)
 3c0:	0100                	addi	s0,sp,128
 3c2:	04090103          	lb	sp,64(s2)
 3c6:	0100                	addi	s0,sp,128
 3c8:	02090103          	lb	sp,32(s2)
 3cc:	0100                	addi	s0,sp,128
 3ce:	04090603          	lb	a2,64(s2)
 3d2:	0100                	addi	s0,sp,128
 3d4:	04090103          	lb	sp,64(s2)
 3d8:	0100                	addi	s0,sp,128
 3da:	04090103          	lb	sp,64(s2)
 3de:	0100                	addi	s0,sp,128
 3e0:	0409                	addi	s0,s0,2
 3e2:	0000                	unimp
 3e4:	0101                	addi	sp,sp,0
 3e6:	0500                	addi	s0,sp,640
 3e8:	0002                	c.slli64	zero
 3ea:	0000                	unimp
 3ec:	0300                	addi	s0,sp,384
 3ee:	030100cb          	fnmsub.d	ft1,ft2,fa6,ft0,rne
 3f2:	0901                	addi	s2,s2,0
 3f4:	007c                	addi	a5,sp,12
 3f6:	0301                	addi	t1,t1,0
 3f8:	0904                	addi	s1,sp,144
 3fa:	0004                	0x4
 3fc:	0301                	addi	t1,t1,0
 3fe:	0904                	addi	s1,sp,144
 400:	0004                	0x4
 402:	0301                	addi	t1,t1,0
 404:	0904                	addi	s1,sp,144
 406:	0004                	0x4
 408:	0901                	addi	s2,s2,0
 40a:	0004                	0x4
 40c:	0100                	addi	s0,sp,128
 40e:	01              	Address 0x000000000000040e is out of bounds.


Disassembly of section .debug_str:

00000000 <.debug_str>:
  .endr
   0:	645f 6f73 685f      	0x685f6f73645f
   6:	6e61                	lui	t3,0x18
   8:	6c64                	flw	fs1,92(s0)
   a:	0065                	c.nop	25
   c:	6f6c                	flw	fa1,92(a4)
   e:	0073706f          	j	37814 <_stack_start+0x27814>
  12:	735f 7a69 0065      	0x657a69735f
  18:	725f 6e61 3464      	0x34646e61725f
  1e:	0038                	addi	a4,sp,8
  20:	655f 656d 6772      	0x6772656d655f
  26:	6e65                	lui	t3,0x19
  28:	75007963          	bgeu	zero,a6,77a <_endtext+0x60e>
  2c:	5f636573          	csrrsi	a0,0x5f6,6
  30:	6c637963          	bgeu	t1,t1,702 <_endtext+0x596>
  34:	7365                	lui	t1,0xffff9
  36:	5f00                	lw	s0,56(a4)
  38:	6164                	flw	fs1,68(a0)
  3a:	6174                	flw	fa3,68(a0)
  3c:	5f00                	lw	s0,56(a4)
  3e:	74726377          	0x74726377
  42:	5f626d6f          	jal	s10,26638 <_stack_start+0x16638>
  46:	74617473          	csrrci	s0,0x746,2
  4a:	0065                	c.nop	25
  4c:	775f 7363 7472      	0x74727363775f
  52:	73626d6f          	jal	s10,26788 <_stack_start+0x16788>
  56:	735f 6174 6574      	0x65746174735f
  5c:	6c00                	flw	fs0,24(s0)
  5e:	20676e6f          	jal	t3,76264 <_stack_start+0x66264>
  62:	6f6c                	flw	fa1,92(a4)
  64:	676e                	flw	fa4,216(sp)
  66:	7520                	flw	fs0,104(a0)
  68:	736e                	flw	ft6,248(sp)
  6a:	6769                	lui	a4,0x1a
  6c:	656e                	flw	fa0,216(sp)
  6e:	2064                	fld	fs1,192(s0)
  70:	6e69                	lui	t3,0x1a
  72:	0074                	addi	a3,sp,12
  74:	6c5f 6662 6973      	0x697366626c5f
  7a:	657a                	flw	fa0,156(sp)
  jal x0, default_exc_handler
  7c:	5f00                	lw	s0,56(a4)
  7e:	696e                	flw	fs2,216(sp)
  jal x0, reset_handler
  80:	0073626f          	jal	tp,36886 <_stack_start+0x26886>
  jal x0, default_exc_handler
  84:	6d5f 7262 6f74      	0x6f7472626d5f
  jal x0, default_exc_handler
  8a:	735f6377          	0x735f6377
  8e:	6174                	flw	fa3,68(a0)
  90:	6574                	flw	fa3,76(a0)
  92:	5f00                	lw	s0,56(a4)
  94:	6f746377          	0x6f746377
  98:	626d                	lui	tp,0x1b
  jal x0, default_exc_handler
  9a:	735f 6174 6574      	0x65746174735f
  mv  x1, x0
  a0:	5f00                	lw	s0,56(a4)
  mv  x2, x1
  a2:	745f 5f6d 6573      	0x65735f6d745f
  mv  x5, x1
  a8:	682f0063          	beq	t5,sp,728 <_endtext+0x5bc>
  mv  x7, x1
  ac:	2f656d6f          	jal	s10,563a2 <_stack_start+0x463a2>
  mv  x9, x1
  b0:	6c65                	lui	s8,0x19
  mv x10, x1
  b2:	6669                	lui	a2,0x1a
  mv x11, x1
  b4:	756e                	flw	fa0,248(sp)
  mv x12, x1
  b6:	2f72                	fld	ft10,280(sp)
  mv x13, x1
  b8:	6544                	flw	fs1,12(a0)
  mv x14, x1
  ba:	6f746b73          	csrrsi	s6,0x6f7,8
  mv x16, x1
  be:	2f70                	fld	fa2,216(a4)
  mv x17, x1
  c0:	6269                	lui	tp,0x1a
  mv x18, x1
  c2:	7865                	lui	a6,0xffff9
  mv x19, x1
  c4:	765f 2f32 6269      	0x62692f32765f
  mv x22, x1
  ca:	7865                	lui	a6,0xffff9
  mv x23, x1
  cc:	6d2d                	lui	s10,0xb
  mv x24, x1
  ce:	7361                	lui	t1,0xffff8
  mv x25, x1
  d0:	6574                	flw	fa3,76(a0)
  mv x26, x1
  d2:	2f72                	fld	ft10,280(sp)
  mv x27, x1
  d4:	7865                	lui	a6,0xffff9
  mv x28, x1
  d6:	6d61                	lui	s10,0x18
  mv x29, x1
  d8:	6c70                	flw	fa2,92(s0)
  mv x30, x1
  da:	7365                	lui	t1,0xffff9
  mv x31, x1
  dc:	2f77732f          	0x2f77732f
  la   x2, _stack_start
  e0:	6f74                	flw	fa3,92(a4)
  e2:	6c70                	flw	fa2,92(s0)
  e4:	6d61                	lui	s10,0x18
  la x26, _bss_start
  e6:	0061                	c.nop	24
  e8:	6f6c                	flw	fa1,92(a4)
  la x27, _bss_end
  ea:	676e                	flw	fa4,216(sp)
  ec:	6c20                	flw	fs0,88(s0)
  bge x26, x27, zero_loop_end
  ee:	20676e6f          	jal	t3,762f4 <_stack_start+0x662f4>
  sw x0, 0(x26)
  f2:	6e69                	lui	t3,0x1a
  f4:	0074                	addi	a3,sp,12
  addi x26, x26, 4
  f6:	755f 7562 0066      	0x667562755f
  addi x10, x0, 0
  fc:	625f 7361 0065      	0x657361625f
  addi x11, x0, 0
 102:	5f5f 6d74 685f      	0x685f6d745f5f
 108:	0072756f          	jal	a0,2790e <_stack_start+0x1790e>
 10c:	5f5f 6673 5f00      	0x5f0066735f5f
 112:	655f6e6f          	jal	t3,f6f66 <_stack_start+0xe6f66>
 116:	6978                	flw	fa4,84(a0)
 118:	5f74                	lw	a3,124(a4)
 11a:	7261                	lui	tp,0xffff8
 11c:	5f007367          	0x5f007367
 120:	6b6f6f63          	bltu	t5,s6,7de <_endtext+0x672>
 124:	6569                	lui	a0,0x1a
 126:	5f00                	lw	s0,56(a4)
 128:	735f 6c67 6575      	0x65756c67735f
 12e:	5f00                	lw	s0,56(a4)
 130:	6c66                	flw	fs8,88(sp)
 132:	6761                	lui	a4,0x18
 134:	695f0073          	0x695f0073
 138:	78635f73          	csrrwi	t5,0x786,6
 13c:	0061                	c.nop	24
 13e:	735f 6474 6e69      	0x6e696474735f
 144:	5f00                	lw	s0,56(a4)
 146:	6c62                	flw	fs8,24(sp)
 148:	7a69736b          	0x7a69736b
 14c:	0065                	c.nop	25
 14e:	635f 7476 7562      	0x75627476635f
 154:	0066                	c.slli	zero,0x19
 156:	6f5f 6666 6573      	0x657366666f5f
 15c:	0074                	addi	a3,sp,12
 15e:	6d5f 7362 7472      	0x747273626d5f
 164:	7363776f          	jal	a4,3789a <_stack_start+0x2789a>
 168:	735f 6174 6574      	0x65746174735f
 16e:	5f00                	lw	s0,56(a4)
 170:	626d                	lui	tp,0x1b
 172:	6c72                	flw	fs8,28(sp)
 174:	6e65                	lui	t3,0x19
 176:	735f 6174 6574      	0x65746174735f
 17c:	5f00                	lw	s0,56(a4)
 17e:	6e66                	flw	ft8,88(sp)
 180:	7261                	lui	tp,0xffff8
 182:	5f007367          	0x5f007367
 186:	6e66                	flw	ft8,88(sp)
 188:	735f0073          	0x735f0073
 18c:	6769                	lui	a4,0x1a
 18e:	006e                	c.slli	zero,0x1b
 190:	665f 6f6c 6b63      	0x6b636f6c665f
 196:	745f 5f00 7473      	0x74735f00745f
 19c:	6564                	flw	fs1,76(a0)
 19e:	7272                	flw	ft4,60(sp)
 1a0:	5f00                	lw	s0,56(a4)
 1a2:	6942                	flw	fs2,16(sp)
 1a4:	746e6967          	0x746e6967
 1a8:	5f00                	lw	s0,56(a4)
 1aa:	6d6d6167          	0x6d6d6167
 1ae:	5f61                	li	t5,-8
 1b0:	6e676973          	csrrsi	s2,0x6e6,14
 1b4:	006d6167          	0x6d6167
 1b8:	725f 6165 0064      	0x646165725f
 1be:	725f 7365 6c75      	0x6c757365725f
 1c4:	5f74                	lw	a3,124(a4)
 1c6:	5f5f006b          	0x5f5f006b
 1ca:	6d74                	flw	fa3,92(a0)
 1cc:	5f00                	lw	s0,56(a4)
 1ce:	775f 6863 0062      	0x626863775f
 1d4:	735f 6474 756f      	0x756f6474735f
 1da:	0074                	addi	a3,sp,12
 1dc:	635f 7476 656c      	0x656c7476635f
 1e2:	006e                	c.slli	zero,0x1b
 1e4:	665f 6c69 0065      	0x656c69665f
 1ea:	656c                	flw	fa1,76(a0)
 1ec:	2e64                	fld	fs1,216(a2)
 1ee:	68730063          	beq	t1,t2,86e <_endtext+0x702>
 1f2:	2074726f          	jal	tp,47bf8 <_stack_start+0x37bf8>
 1f6:	6e75                	lui	t3,0x1d
 1f8:	6e676973          	csrrsi	s2,0x6e6,14
 1fc:	6465                	lui	s0,0x19
 1fe:	6920                	flw	fs0,80(a0)
 200:	746e                	flw	fs0,248(sp)
 202:	5f00                	lw	s0,56(a4)
 204:	7461                	lui	s0,0xffff8
 206:	7865                	lui	a6,0xffff9
 208:	7469                	lui	s0,0xffffa
 20a:	0030                	addi	a2,sp,8
 20c:	735f 6769 616e      	0x616e6769735f
 212:	5f6c                	lw	a1,124(a4)
 214:	7562                	flw	fa0,56(sp)
 216:	0066                	c.slli	zero,0x19
 218:	615f 6373 6974      	0x69746373615f
 21e:	656d                	lui	a0,0x1b
 220:	625f 6675 5f00      	0x5f006675625f
 226:	6572                	flw	fa0,28(sp)
 228:	746c7573          	csrrci	a0,0x746,24
 22c:	5f00                	lw	s0,56(a4)
 22e:	775f 6863 7700      	0x77006863775f
 234:	6e69                	lui	t3,0x1a
 236:	5f74                	lw	a3,124(a4)
 238:	0074                	addi	a3,sp,12
 23a:	6c5f 636f 006b      	0x6b636f6c5f
 240:	665f 616c 7367      	0x7367616c665f
 246:	0032                	c.slli	zero,0xc
 248:	5f5f 6f6c 6163      	0x61636f6c5f5f
 24e:	656c                	flw	fa1,76(a0)
 250:	745f 5f00 7277      	0x72775f00745f
 256:	7469                	lui	s0,0xffffa
 258:	0065                	c.nop	25
 25a:	5f5f 6d74 795f      	0x795f6d745f5f
 260:	6165                	addi	sp,sp,112
 262:	0072                	c.slli	zero,0x1c
 264:	7375                	lui	t1,0xffffd
 266:	656c                	flw	fa1,76(a0)
 268:	7065                	c.lui	zero,0xffff9
 26a:	695f 6562 0078      	0x786562695f
 270:	6e5f 616d 6c6c      	0x6c6c616d6e5f
 276:	6c00636f          	jal	t1,6936 <_stack_len+0x2936>
 27a:	20676e6f          	jal	t3,76480 <_stack_start+0x66480>
 27e:	6f64                	flw	fs1,92(a4)
 280:	6275                	lui	tp,0x1d
 282:	656c                	flw	fa1,76(a0)
 284:	6400                	flw	fs0,8(s0)
 286:	6c65                	lui	s8,0x19
 288:	7961                	lui	s2,0xffff8
 28a:	6c5f 6f6f 5f70      	0x5f706f6f6c5f
 290:	6269                	lui	tp,0x1a
 292:	7865                	lui	a6,0xffff9
 294:	5f00                	lw	s0,56(a4)
 296:	656e                	flw	fa0,216(sp)
 298:	7478                	flw	fa4,108(s0)
 29a:	0066                	c.slli	zero,0x19
 29c:	5f5f 6d74 6d5f      	0x6d5f6d745f5f
 2a2:	5f006e6f          	jal	t3,6892 <_stack_len+0x2892>
 2a6:	7461                	lui	s0,0xffff8
 2a8:	7865                	lui	a6,0xffff9
 2aa:	7469                	lui	s0,0xffffa
 2ac:	5f00                	lw	s0,56(a4)
 2ae:	735f 6964 6964      	0x69646964735f
 2b4:	696e                	flw	fs2,216(sp)
 2b6:	0074                	addi	a3,sp,12
 2b8:	6f5f 6666 745f      	0x745f66666f5f
 2be:	5f00                	lw	s0,56(a4)
 2c0:	755f 6e69 3674      	0x36746e69755f
 2c6:	5f34                	lw	a3,120(a4)
 2c8:	0074                	addi	a3,sp,12
 2ca:	7375                	lui	t1,0xffffd
 2cc:	6365                	lui	t1,0x19
 2ce:	5f00                	lw	s0,56(a4)
 2d0:	7266                	flw	ft4,120(sp)
 2d2:	6565                	lui	a0,0x19
 2d4:	696c                	flw	fa1,84(a0)
 2d6:	5f007473          	csrrci	s0,0x5f0,0
 2da:	4f4c                	lw	a1,28(a4)
 2dc:	525f4b43          	fmadd.d	fs6,ft10,ft5,fa0,rmm
 2e0:	4345                	li	t1,17
 2e2:	5255                	li	tp,-11
 2e4:	45564953          	0x45564953
 2e8:	545f 7500 736e      	0x736e7500545f
 2ee:	6769                	lui	a4,0x1a
 2f0:	656e                	flw	fa0,216(sp)
 2f2:	2064                	fld	fs1,192(s0)
 2f4:	72616863          	bltu	sp,t1,a24 <_endtext+0x8b8>
 2f8:	5f00                	lw	s0,56(a4)
 2fa:	656e                	flw	fa0,216(sp)
 2fc:	685f0077          	0x685f0077
 300:	655f 7272 6f6e      	0x6f6e7272655f
 306:	7300                	flw	fs0,32(a4)
 308:	6f68                	flw	fa0,92(a4)
 30a:	7472                	flw	fs0,60(sp)
 30c:	6920                	flw	fs0,80(a0)
 30e:	746e                	flw	fs0,248(sp)
 310:	5f00                	lw	s0,56(a4)
 312:	745f 5f6d 6479      	0x64795f6d745f
 318:	7961                	lui	s2,0xffff8
 31a:	5f00                	lw	s0,56(a4)
 31c:	735f 7562 0066      	0x667562735f
 322:	695f 626f 0073      	0x73626f695f
 328:	5f5f 4946 454c      	0x454c49465f5f
 32e:	5f00                	lw	s0,56(a4)
 330:	626d                	lui	tp,0x1b
 332:	74617473          	csrrci	s0,0x746,2
 336:	5f65                	li	t5,-7
 338:	0074                	addi	a3,sp,12
 33a:	5f5f 4673 4c49      	0x4c4946735f5f
 340:	0045                	c.nop	17
 342:	6d5f 7362 6174      	0x617473626d5f
 348:	6574                	flw	fa3,76(a0)
 34a:	5f00                	lw	s0,56(a4)
 34c:	6172                	flw	ft2,28(sp)
 34e:	646e                	flw	fs0,216(sp)
 350:	6e5f 7865 0074      	0x7478656e5f
 356:	6d5f 6c62 6e65      	0x6e656c626d5f
 35c:	735f 6174 6574      	0x65746174735f
 362:	5f00                	lw	s0,56(a4)
 364:	6e69                	lui	t3,0x1a
 366:	695f0063          	beq	t5,s5,9e6 <_endtext+0x87a>
 36a:	646e                	flw	fs0,216(sp)
 36c:	5f00                	lw	s0,56(a4)
 36e:	6f6c                	flw	fa1,92(a4)
 370:	656c6163          	bltu	s8,s6,9b2 <_endtext+0x846>
 374:	5f00                	lw	s0,56(a4)
 376:	635f 656c 6e61      	0x6e61656c635f
 37c:	7075                	c.lui	zero,0xffffd
 37e:	5f00                	lw	s0,56(a4)
 380:	6e75                	lui	t3,0x1d
 382:	63657073          	csrci	0x636,10
 386:	6669                	lui	a2,0x1a
 388:	6569                	lui	a0,0x1a
 38a:	5f64                	lw	s1,124(a4)
 38c:	6f6c                	flw	fa1,92(a4)
 38e:	656c6163          	bltu	s8,s6,9d0 <_endtext+0x864>
 392:	695f 666e 006f      	0x6f666e695f
 398:	6d5f 7861 6477      	0x647778616d5f
 39e:	725f0073          	0x725f0073
 3a2:	6565                	lui	a0,0x19
 3a4:	746e                	flw	fs0,248(sp)
 3a6:	5f00                	lw	s0,56(a4)
 3a8:	64656573          	csrrsi	a0,0x646,10
 3ac:	5f00                	lw	s0,56(a4)
 3ae:	635f 756f 746e      	0x746e756f635f
 3b4:	5f00                	lw	s0,56(a4)
 3b6:	765f 6c61 6575      	0x65756c61765f
 3bc:	5f00                	lw	s0,56(a4)
 3be:	6b656573          	csrrsi	a0,0x6b6,10
 3c2:	5f00                	lw	s0,56(a4)
 3c4:	7066                	flw	ft0,120(sp)
 3c6:	745f736f          	jal	t1,f830a <_stack_start+0xe830a>
 3ca:	6100                	flw	fs0,0(a0)
 3cc:	6772                	flw	fa4,28(sp)
 3ce:	0076                	c.slli	zero,0x1d
 3d0:	5f5f 6d74 6d5f      	0x6d5f6d745f5f
 3d6:	6e69                	lui	t3,0x1a
 3d8:	5f00                	lw	s0,56(a4)
 3da:	756d                	lui	a0,0xffffb
 3dc:	746c                	flw	fa1,108(s0)
 3de:	5f00                	lw	s0,56(a4)
 3e0:	74727473          	csrrci	s0,0x747,4
 3e4:	6c5f6b6f          	jal	s6,f72a8 <_stack_start+0xe72a8>
 3e8:	7361                	lui	t1,0xffff8
 3ea:	0074                	addi	a3,sp,12
 3ec:	665f 746e 7079      	0x7079746e665f
 3f2:	7365                	lui	t1,0xffff9
 3f4:	5f00                	lw	s0,56(a4)
 3f6:	6461                	lui	s0,0x18
 3f8:	0064                	addi	s1,sp,12
 3fa:	5f5f 4c55 6e6f      	0x6e6f4c555f5f
 400:	675f0067          	jr	1653(t5)
 404:	7465                	lui	s0,0xffff9
 406:	6164                	flw	fs1,68(a0)
 408:	6574                	flw	fa3,76(a0)
 40a:	655f 7272 5f00      	0x5f007272655f
 410:	626f6c67          	0x626f6c67
 414:	6c61                	lui	s8,0x18
 416:	695f 706d 7275      	0x7275706d695f
 41c:	5f65                	li	t5,-7
 41e:	7470                	flw	fa2,108(s0)
 420:	0072                	c.slli	zero,0x1c
 422:	20554e47          	fmsub.s	ft8,fa0,ft5,ft4,rmm
 426:	20373143          	fmadd.s	ft2,fa4,ft3,ft4,rup
 42a:	2e39                	jal	748 <_endtext+0x5dc>
 42c:	2e32                	fld	ft8,264(sp)
 42e:	2030                	fld	fa2,64(s0)
 430:	6d2d                	lui	s10,0xb
 432:	7261                	lui	tp,0xffff8
 434:	723d6863          	bltu	s10,gp,b64 <_endtext+0x9f8>
 438:	3376                	fld	ft6,376(sp)
 43a:	6932                	flw	fs2,12(sp)
 43c:	636d                	lui	t1,0x1b
 43e:	2d20                	fld	fs0,88(a0)
 440:	616d                	addi	sp,sp,240
 442:	6962                	flw	fs2,24(sp)
 444:	693d                	lui	s2,0xf
 446:	706c                	flw	fa1,100(s0)
 448:	2d203233          	0x2d203233
 44c:	636d                	lui	t1,0x1b
 44e:	6f6d                	lui	t5,0x1b
 450:	6564                	flw	fs1,76(a0)
 452:	3d6c                	fld	fa1,248(a0)
 454:	656d                	lui	a0,0x1b
 456:	6164                	flw	fs1,68(a0)
 458:	796e                	flw	fs2,248(sp)
 45a:	2d20                	fld	fs0,88(a0)
 45c:	746d                	lui	s0,0xffffb
 45e:	6e75                	lui	t3,0x1d
 460:	3d65                	jal	318 <_endtext+0x1ac>
 462:	6f72                	flw	ft10,28(sp)
 464:	74656b63          	bltu	a0,t1,bba <_endtext+0xa4e>
 468:	2d20                	fld	fs0,88(a0)
 46a:	4f2d2067          	0x4f2d2067
 46e:	662d2073          	csrs	0x662,s10
 472:	6976                	flw	fs2,92(sp)
 474:	69626973          	csrrsi	s2,0x696,4
 478:	696c                	flw	fa1,84(a0)
 47a:	7974                	flw	fa3,116(a0)
 47c:	683d                	lui	a6,0xf
 47e:	6469                	lui	s0,0x1a
 480:	6564                	flw	fs1,76(a0)
 482:	006e                	c.slli	zero,0x1b
 484:	755f 756e 6573      	0x6573756e755f
 48a:	5f64                	lw	s1,124(a4)
 48c:	6172                	flw	ft2,28(sp)
 48e:	646e                	flw	fs0,216(sp)
 490:	5f00                	lw	s0,56(a4)
 492:	00736477          	0x736477
 496:	5f5f 6d74 775f      	0x775f6d745f5f
 49c:	6164                	flw	fs1,68(a0)
 49e:	0079                	c.nop	30
 4a0:	675f 756c 0065      	0x65756c675f
 4a6:	735f 6973 657a      	0x657a6973735f
 4ac:	745f 5f00 366c      	0x366c5f00745f
 4b2:	6134                	flw	fa3,64(a0)
 4b4:	625f 6675 5f00      	0x5f006675625f
 4ba:	5f676973          	csrrsi	s2,0x5f6,14
 4be:	7566                	flw	fa0,120(sp)
 4c0:	636e                	flw	ft6,216(sp)
 4c2:	5f00                	lw	s0,56(a4)
 4c4:	626e                	flw	ft4,216(sp)
 4c6:	6675                	lui	a2,0x1d
 4c8:	5f00                	lw	s0,56(a4)
 4ca:	6e75                	lui	t3,0x1d
 4cc:	7375                	lui	t1,0xffffd
 4ce:	6465                	lui	s0,0x19
 4d0:	6100                	flw	fs0,0(a0)
 4d2:	6772                	flw	fa4,28(sp)
 4d4:	5f5f0063          	beq	t5,s5,ab4 <_endtext+0x948>
 4d8:	6d74                	flw	fa3,92(a0)
 4da:	695f 6473 7473      	0x74736473695f
 4e0:	5f00                	lw	s0,56(a4)
 4e2:	6f6c                	flw	fa1,92(a4)
 4e4:	746c6163          	bltu	s8,t1,c26 <_endtext+0xaba>
 4e8:	6d69                	lui	s10,0x1a
 4ea:	5f65                	li	t5,-7
 4ec:	7562                	flw	fa0,56(sp)
 4ee:	0066                	c.slli	zero,0x19
 4f0:	635f 6f6c 6573      	0x65736f6c635f
 4f6:	5f00                	lw	s0,56(a4)
 4f8:	3472                	fld	fs0,312(sp)
 4fa:	0038                	addi	a4,sp,8
 4fc:	7375                	lui	t1,0xffffd
 4fe:	656c                	flw	fa1,76(a0)
 500:	7065                	c.lui	zero,0xffff9
 502:	5f00                	lw	s0,56(a4)
 504:	626d                	lui	tp,0x1b
 506:	6f74                	flw	fa3,92(a4)
 508:	735f6377          	0x735f6377
 50c:	6174                	flw	fa3,68(a0)
 50e:	6574                	flw	fa3,76(a0)
 510:	5f00                	lw	s0,56(a4)
 512:	3570                	fld	fa2,232(a0)
 514:	616d0073          	0x616d0073
 518:	6e69                	lui	t3,0x1a
 51a:	5f00                	lw	s0,56(a4)
 51c:	745f 5f6d 646d      	0x646d5f6d745f
 522:	7961                	lui	s2,0xffff8
 524:	6300                	flw	fs0,0(a4)
 526:	7472                	flw	fs0,60(sp)
 528:	2e30                	fld	fa2,88(a2)
 52a:	682f0053          	0x682f0053
 52e:	2f656d6f          	jal	s10,56824 <_stack_start+0x46824>
 532:	6c65                	lui	s8,0x19
 534:	6669                	lui	a2,0x1a
 536:	756e                	flw	fa0,248(sp)
 538:	2f72                	fld	ft10,280(sp)
 53a:	6544                	flw	fs1,12(a0)
 53c:	6f746b73          	csrrsi	s6,0x6f7,8
 540:	2f70                	fld	fa2,216(a4)
 542:	6269                	lui	tp,0x1a
 544:	7865                	lui	a6,0xffff9
 546:	765f 2f32 6269      	0x62692f32765f
 54c:	7865                	lui	a6,0xffff9
 54e:	6d2d                	lui	s10,0xb
 550:	7361                	lui	t1,0xffff8
 552:	6574                	flw	fa3,76(a0)
 554:	2f72                	fld	ft10,280(sp)
 556:	7865                	lui	a6,0xffff9
 558:	6d61                	lui	s10,0x18
 55a:	6c70                	flw	fa2,92(s0)
 55c:	7365                	lui	t1,0xffff9
 55e:	2f77732f          	0x2f77732f
 562:	6f6d                	lui	t5,0x1b
 564:	7564                	flw	fs1,108(a0)
 566:	616c                	flw	fa1,68(a0)
 568:	6974                	flw	fa3,84(a0)
 56a:	47006e6f          	jal	t3,69da <_stack_len+0x29da>
 56e:	554e                	lw	a0,240(sp)
 570:	4120                	lw	s0,64(a0)
 572:	2e322053          	0x2e322053
 576:	          	snez	tp,zero

Disassembly of section .comment:

00000000 <.comment>:
  .endr
   0:	3a434347          	fmsub.d	ft6,ft6,ft4,ft7,rmm
   4:	2820                	fld	fs0,80(s0)
   6:	29554e47          	fmsub.s	ft8,fa0,fs5,ft5,rmm
   a:	3920                	fld	fs0,112(a0)
   c:	322e                	fld	ft4,232(sp)
   e:	302e                	fld	ft0,232(sp)
	...

Disassembly of section .riscv.attributes:

00000000 <.riscv.attributes>:
   0:	2541                	jal	680 <_endtext+0x514>
   2:	0000                	unimp
   4:	7200                	flw	fs0,32(a2)
   6:	7369                	lui	t1,0xffffa
   8:	01007663          	bgeu	zero,a6,14 <__DYNAMIC+0x14>
   c:	0000001b          	0x1b
  10:	1004                	addi	s1,sp,32
  12:	7205                	lui	tp,0xfffe1
  14:	3376                	fld	ft6,376(sp)
  16:	6932                	flw	fs2,12(sp)
  18:	7032                	flw	ft0,44(sp)
  1a:	5f30                	lw	a2,120(a4)
  1c:	326d                	jal	fffff9c6 <_stack_start+0xfffef9c6>
  1e:	3070                	fld	fa2,224(s0)
  20:	635f 7032 0030      	0x307032635f

Disassembly of section .debug_frame:

00000000 <.debug_frame>:
   0:	000c                	0xc
   2:	0000                	unimp
   4:	ffff                	0xffff
   6:	ffff                	0xffff
   8:	0001                	nop
   a:	7c01                	lui	s8,0xfffe0
   c:	0d01                	addi	s10,s10,0
   e:	0002                	c.slli64	zero
  10:	000c                	0xc
  12:	0000                	unimp
  14:	0000                	unimp
  16:	0000                	unimp
  18:	008c                	addi	a1,sp,64
  1a:	0000                	unimp
  1c:	000e                	c.slli	zero,0x3
  1e:	0000                	unimp
  20:	001c                	0x1c
  22:	0000                	unimp
  24:	0000                	unimp
  26:	0000                	unimp
  28:	0108                	addi	a0,sp,128
  2a:	0000                	unimp
  2c:	0052                	c.slli	zero,0x14
  2e:	0000                	unimp
  30:	0e42                	slli	t3,t3,0x10
  32:	4810                	lw	a2,16(s0)
  34:	0181                	addi	gp,gp,0
  36:	0288                	addi	a0,sp,320
  38:	3e02                	fld	ft8,32(sp)
  3a:	44c1                	li	s1,16
  3c:	44c8                	lw	a0,12(s1)
  3e:	000e                	c.slli	zero,0x3
