
led.elf:     file format elf32-littleriscv


Disassembly of section .vectors:

00000000 <_stack_start-0x10000>:
  // external interrupts are handled by the same callback
  // until compiler supports IRQ routines
  .org 0x00
  .rept 31
  nop
  .endr
   0:	00000013          	nop
   4:	00000013          	nop
   8:	00000013          	nop
   c:	00000013          	nop
  10:	00000013          	nop
  14:	00000013          	nop
  18:	00000013          	nop
  1c:	00000013          	nop
  20:	00000013          	nop
  24:	00000013          	nop
  28:	00000013          	nop
  2c:	00000013          	nop
  30:	00000013          	nop
  34:	00000013          	nop
  38:	00000013          	nop
  3c:	00000013          	nop
  40:	00000013          	nop
  44:	00000013          	nop
  48:	00000013          	nop
  4c:	00000013          	nop
  50:	00000013          	nop
  54:	00000013          	nop
  58:	00000013          	nop
  5c:	00000013          	nop
  60:	00000013          	nop
  64:	00000013          	nop
  68:	00000013          	nop
  6c:	00000013          	nop
  70:	00000013          	nop
  74:	00000013          	nop
  78:	00000013          	nop
  jal x0, default_exc_handler
  7c:	01e0006f          	j	9a <default_exc_handler>

  // reset vector
  .org 0x80
  jal x0, reset_handler
  80:	01e0006f          	j	9e <reset_handler>

  // illegal instruction exception
  .org 0x84
  jal x0, default_exc_handler
  84:	0160006f          	j	9a <default_exc_handler>

  // ecall handler
  .org 0x88
  jal x0, default_exc_handler
  88:	0120006f          	j	9a <default_exc_handler>

Disassembly of section .text:

0000008c <delay_loop_ibex>:
  8c:	0001                	nop
  8e:	0001                	nop
  90:	0001                	nop
  92:	0001                	nop
  94:	157d                	addi	a0,a0,-1
  96:	f97d                	bnez	a0,8c <delay_loop_ibex>
  98:	8082                	ret

0000009a <default_exc_handler>:
  jal x0, default_exc_handler
  9a:	0000006f          	j	9a <default_exc_handler>

0000009e <reset_handler>:
  mv  x1, x0
  9e:	00000093          	li	ra,0
  mv  x2, x1
  a2:	8106                	mv	sp,ra
  mv  x3, x1
  a4:	8186                	mv	gp,ra
  mv  x4, x1
  a6:	8206                	mv	tp,ra
  mv  x5, x1
  a8:	8286                	mv	t0,ra
  mv  x6, x1
  aa:	8306                	mv	t1,ra
  mv  x7, x1
  ac:	8386                	mv	t2,ra
  mv  x8, x1
  ae:	8406                	mv	s0,ra
  mv  x9, x1
  b0:	8486                	mv	s1,ra
  mv x10, x1
  b2:	8506                	mv	a0,ra
  mv x11, x1
  b4:	8586                	mv	a1,ra
  mv x12, x1
  b6:	8606                	mv	a2,ra
  mv x13, x1
  b8:	8686                	mv	a3,ra
  mv x14, x1
  ba:	8706                	mv	a4,ra
  mv x15, x1
  bc:	8786                	mv	a5,ra
  mv x16, x1
  be:	8806                	mv	a6,ra
  mv x17, x1
  c0:	8886                	mv	a7,ra
  mv x18, x1
  c2:	8906                	mv	s2,ra
  mv x19, x1
  c4:	8986                	mv	s3,ra
  mv x20, x1
  c6:	8a06                	mv	s4,ra
  mv x21, x1
  c8:	8a86                	mv	s5,ra
  mv x22, x1
  ca:	8b06                	mv	s6,ra
  mv x23, x1
  cc:	8b86                	mv	s7,ra
  mv x24, x1
  ce:	8c06                	mv	s8,ra
  mv x25, x1
  d0:	8c86                	mv	s9,ra
  mv x26, x1
  d2:	8d06                	mv	s10,ra
  mv x27, x1
  d4:	8d86                	mv	s11,ra
  mv x28, x1
  d6:	8e06                	mv	t3,ra
  mv x29, x1
  d8:	8e86                	mv	t4,ra
  mv x30, x1
  da:	8f06                	mv	t5,ra
  mv x31, x1
  dc:	8f86                	mv	t6,ra
  la   x2, _stack_start
  de:	00010117          	auipc	sp,0x10
  e2:	f2210113          	addi	sp,sp,-222 # 10000 <_stack_start>

000000e6 <_start>:
  la x26, _bss_start
  e6:	16c00d13          	li	s10,364
  la x27, _bss_end
  ea:	16c00d93          	li	s11,364
  bge x26, x27, zero_loop_end
  ee:	01bd5763          	bge	s10,s11,fc <main_entry>

000000f2 <zero_loop>:
  sw x0, 0(x26)
  f2:	000d2023          	sw	zero,0(s10)
  addi x26, x26, 4
  f6:	0d11                	addi	s10,s10,4
  ble x26, x27, zero_loop
  f8:	ffaddde3          	bge	s11,s10,f2 <zero_loop>

000000fc <main_entry>:
  addi x10, x0, 0
  fc:	00000513          	li	a0,0
  addi x11, x0, 0
 100:	00000593          	li	a1,0
  jal x1, main
 104:	004000ef          	jal	ra,108 <main>

00000108 <main>:
 108:	1141                	addi	sp,sp,-16
 10a:	27100513          	li	a0,625
 10e:	c606                	sw	ra,12(sp)
 110:	c422                	sw	s0,8(sp)
 112:	3fad                	jal	8c <delay_loop_ibex>
 114:	3b4987b7          	lui	a5,0x3b498
 118:	6431                	lui	s0,0xc
 11a:	6ce78793          	addi	a5,a5,1742 # 3b4986ce <_stack_start+0x3b4886ce>
 11e:	c81c                	sw	a5,16(s0)
 120:	27100513          	li	a0,625
 124:	37a5                	jal	8c <delay_loop_ibex>
 126:	07e4e7b7          	lui	a5,0x7e4e
 12a:	10478793          	addi	a5,a5,260 # 7e4e104 <_stack_start+0x7e3e104>
 12e:	c81c                	sw	a5,16(s0)
 130:	27100513          	li	a0,625
 134:	3fa1                	jal	8c <delay_loop_ibex>
 136:	0dfb37b7          	lui	a5,0xdfb3
 13a:	5cc78793          	addi	a5,a5,1484 # dfb35cc <_stack_start+0xdfa35cc>
 13e:	c81c                	sw	a5,16(s0)
 140:	27100513          	li	a0,625
 144:	37a1                	jal	8c <delay_loop_ibex>
 146:	2a8fd7b7          	lui	a5,0x2a8fd
 14a:	31278793          	addi	a5,a5,786 # 2a8fd312 <_stack_start+0x2a8ed312>
 14e:	40b2                	lw	ra,12(sp)
 150:	c81c                	sw	a5,16(s0)
 152:	4422                	lw	s0,8(sp)
 154:	4501                	li	a0,0
 156:	0141                	addi	sp,sp,16
 158:	8082                	ret

0000015a <__CTOR_LIST__>:
	...

00000162 <__CTOR_END__>:
	...

0000016a <__DTOR_END__>:
	...
